(dp1
I4100
I53
sI4102
I122
sI4103
I510
sI4104
I1132
sI4112
I858
sI4115
I871
sI4117
I113
sI4118
I26
sI4120
I20
sI4126
I840
sI4127
I729
sI4130
I1119
sI4135
I101
sI4136
I699
sI4138
I855
sI4142
I27
sI4145
I31
sI4147
I919
sI4149
I708
sI4151
I45
sI4154
I888
sI4157
I1119
sI4158
I31
sI4159
I922
sI4162
I27
sI4166
I842
sI4168
I918
sI4170
I847
sI4176
I1122
sI4177
I926
sI4178
I51
sI4180
I883
sI4182
I77
sI4186
I69
sI4188
I1108
sI4189
I118
sI4191
I842
sI4193
I921
sI4194
I885
sI4195
I713
sI4198
I1131
sI4200
I743
sI4202
I118
sI4203
I700
sI4205
I707
sI4208
I1098
sI4210
I887
sI4211
I321
sI4213
I1108
sI4217
I1108
sI4219
I815
sI4222
I882
sI4225
I723
sI4228
I1125
sI4231
I336
sI4236
I726
sI4240
I290
sI4246
I275
sI4247
I726
sI4248
I731
sI4252
I273
sI4254
I726
sI4257
I740
sI4267
I304
sI4269
I304
sI4272
I304
sI4289
I309
sI4295
I284
sI4310
I289
sI4317
I331
sI4318
I335
sI4320
I295
sI4327
I319
sI4337
I332
sI4338
I324
sI4341
I337
sI4343
I324
sI4344
I334
sI4346
I315
sI4349
I322
sI4351
I317
sI4353
I334
sI4354
I317
sI2681
I1138
sI2682
I183
sI2683
I183
sI2684
I252
sI2685
I183
sI2686
I199
sI2687
I208
sI2688
I199
sI2689
I258
sI2690
I218
sI2691
I193
sI2692
I258
sI2695
I232
sI2697
I193
sI2698
I218
sI2699
I1013
sI2700
I232
sI2701
I215
sI2703
I190
sI2704
I242
sI2706
I1013
sI2708
I202
sI2709
I249
sI2710
I242
sI2714
I268
sI2717
I192
sI2718
I185
sI2719
I203
sI2722
I1032
sI2723
I230
sI2724
I1023
sI2725
I224
sI2726
I1045
sI2727
I266
sI2730
I1044
sI2733
I203
sI2735
I1023
sI2737
I207
sI2740
I228
sI2745
I150
sI2747
I204
sI2750
I219
sI2752
I227
sI2753
I158
sI2754
I140
sI2755
I1026
sI2758
I1026
sI2759
I1021
sI2760
I129
sI2761
I219
sI2762
I1026
sI2763
I244
sI2764
I1044
sI2765
I136
sI2766
I140
sI2770
I217
sI2771
I254
sI2772
I170
sI2775
I227
sI2776
I248
sI2780
I1083
sI2781
I240
sI2783
I219
sI2784
I129
sI2785
I176
sI2787
I1083
sI2788
I167
sI2789
I176
sI2793
I262
sI2795
I1083
sI2797
I1014
sI2800
I234
sI2801
I147
sI2804
I1047
sI2807
I169
sI2809
I257
sI2812
I227
sI2814
I257
sI2818
I270
sI2819
I243
sI2820
I262
sI2821
I131
sI2822
I1025
sI2823
I1014
sI2825
I1009
sI2830
I1019
sI2832
I262
sI2834
I1009
sI2835
I212
sI2836
I1047
sI2838
I153
sI2839
I1025
sI2841
I236
sI2852
I1038
sI2856
I155
sI2857
I205
sI2858
I130
sI2859
I1053
sI2860
I210
sI2863
I205
sI2865
I134
sI2866
I236
sI2867
I132
sI2868
I1076
sI2870
I194
sI2871
I156
sI2874
I1082
sI2877
I155
sI2878
I160
sI2879
I172
sI2880
I156
sI2881
I194
sI2883
I1086
sI2884
I1028
sI2885
I1053
sI2886
I221
sI2887
I151
sI2888
I1082
sI2889
I162
sI2891
I1086
sI2892
I149
sI2895
I172
sI2896
I210
sI2897
I168
sI2900
I1076
sI2901
I173
sI2903
I162
sI2905
I237
sI2906
I1017
sI2907
I168
sI2908
I1050
sI2911
I1057
sI2912
I1037
sI2914
I139
sI2915
I149
sI2916
I178
sI2917
I221
sI2918
I149
sI2920
I138
sI2923
I253
sI2924
I223
sI2925
I1017
sI2927
I1080
sI2928
I1067
sI2930
I159
sI2932
I1057
sI2934
I267
sI2935
I159
sI2936
I1066
sI2937
I267
sI2938
I1031
sI2941
I1046
sI2942
I159
sI2944
I174
sI2946
I191
sI2947
I1051
sI2948
I265
sI2951
I174
sI2952
I1048
sI2953
I265
sI2955
I1064
sI2956
I1068
sI2957
I1049
sI2958
I1029
sI2960
I1041
sI2962
I1046
sI2965
I1060
sI2966
I362
sI2967
I1022
sI2968
I1085
sI2969
I1048
sI2970
I1087
sI2971
I1085
sI2973
I1087
sI2977
I1041
sI2978
I1085
sI2980
I1070
sI2984
I579
sI2985
I566
sI2988
I556
sI2990
I594
sI2993
I361
sI2994
I594
sI2995
I341
sI2996
I1024
sI2998
I1081
sI3000
I581
sI3001
I579
sI3002
I361
sI3003
I524
sI3004
I1024
sI3005
I383
sI3007
I594
sI3008
I568
sI3010
I573
sI3014
I359
sI3015
I541
sI3017
I518
sI3019
I360
sI3021
I535
sI3022
I569
sI3024
I568
sI3025
I578
sI3026
I414
sI3027
I425
sI3028
I571
sI3029
I602
sI3033
I373
sI3036
I533
sI3038
I403
sI3039
I602
sI3042
I569
sI3043
I393
sI3044
I578
sI3046
I589
sI3047
I590
sI3050
I373
sI3052
I598
sI3054
I570
sI3056
I381
sI3057
I525
sI3061
I598
sI3063
I423
sI3065
I641
sI3066
I340
sI3067
I529
sI3070
I340
sI3071
I525
sI3072
I552
sI3073
I394
sI3074
I695
sI3075
I404
sI3076
I353
sI3077
I416
sI3078
I423
sI3084
I342
sI3086
I554
sI3087
I570
sI3088
I582
sI3091
I394
sI3092
I637
sI3093
I637
sI3094
I352
sI3097
I552
sI3098
I553
sI3099
I520
sI3102
I554
sI3105
I350
sI3108
I538
sI3110
I677
sI3111
I387
sI3112
I379
sI3113
I609
sI3115
I608
sI3120
I677
sI3121
I616
sI3123
I554
sI3124
I405
sI3125
I634
sI3131
I553
sI3134
I540
sI3136
I526
sI3138
I678
sI3140
I634
sI3142
I587
sI3143
I385
sI3146
I405
sI3147
I563
sI3148
I618
sI3149
I421
sI3150
I545
sI3159
I596
sI3161
I412
sI3163
I609
sI3164
I412
sI3166
I692
sI3168
I378
sI3170
I632
sI3171
I634
sI3173
I628
sI3174
I572
sI3175
I385
sI3180
I596
sI3181
I587
sI3182
I611
sI3183
I544
sI3184
I516
sI3185
I609
sI3187
I347
sI3189
I368
sI3191
I521
sI3192
I539
sI3194
I680
sI3195
I378
sI3196
I613
sI3199
I523
sI3200
I633
sI3202
I669
sI3205
I543
sI3207
I546
sI3208
I633
sI3212
I347
sI3215
I666
sI3216
I547
sI3217
I680
sI3218
I419
sI3224
I680
sI3225
I386
sI3226
I388
sI3227
I347
sI3228
I639
sI3230
I658
sI3232
I636
sI3234
I633
sI3235
I371
sI3238
I668
sI3243
I398
sI3244
I547
sI3245
I591
sI3251
I530
sI3252
I696
sI3253
I633
sI3254
I585
sI3256
I627
sI3257
I531
sI3258
I698
sI3259
I400
sI3262
I1139
sI3263
I612
sI3264
I372
sI3271
I398
sI3272
I631
sI3273
I693
sI3274
I547
sI3275
I671
sI3276
I407
sI3283
I417
sI3286
I531
sI3287
I606
sI3290
I407
sI3292
I623
sI3293
I407
sI3299
I687
sI3302
I640
sI3307
I682
sI3309
I1139
sI3310
I345
sI3311
I549
sI3312
I983
sI3315
I395
sI3316
I975
sI3317
I667
sI3320
I415
sI3322
I684
sI3323
I395
sI3324
I656
sI3328
I597
sI3330
I1147
sI3331
I656
sI3336
I963
sI3338
I673
sI3341
I810
sI3342
I549
sI3344
I635
sI3345
I376
sI3347
I934
sI3349
I339
sI3355
I643
sI3359
I870
sI3362
I934
sI3365
I934
sI3368
I1146
sI3371
I936
sI3373
I376
sI3374
I6
sI3375
I810
sI3376
I957
sI3377
I934
sI3380
I957
sI3381
I764
sI3386
I991
sI3388
I19
sI3389
I941
sI3390
I567
sI3395
I860
sI3396
I664
sI3399
I755
sI3400
I759
sI3401
I938
sI3403
I935
sI3405
I1146
sI3406
I936
sI3407
I603
sI3411
I972
sI3412
I996
sI3413
I664
sI3415
I494
sI3418
I759
sI3419
I800
sI3420
I37
sI3422
I1137
sI3426
I832
sI3427
I9
sI3430
I759
sI3431
I19
sI3447
I866
sI3449
I1137
sI3452
I515
sI3454
I832
sI3457
I844
sI3462
I1000
sI3467
I1141
sI3468
I1140
sI3471
I809
sI3473
I440
sI3475
I37
sI3476
I933
sI3478
I994
sI3480
I866
sI3484
I929
sI3486
I784
sI3488
I746
sI3491
I968
sI3492
I828
sI3493
I853
sI3494
I753
sI3495
I749
sI3500
I984
sI3506
I15
sI3508
I750
sI3510
I984
sI3516
I976
sI3517
I460
sI3518
I460
sI3519
I509
sI3521
I100
sI3523
I753
sI3526
I11
sI3528
I783
sI3530
I59
sI3532
I984
sI3534
I509
sI3535
I44
sI3536
I839
sI3537
I15
sI3539
I773
sI3540
I476
sI3541
I74
sI3545
I828
sI3547
I429
sI3550
I476
sI3554
I458
sI3560
I857
sI3561
I762
sI3562
I861
sI3567
I12
sI3568
I82
sI3570
I799
sI3572
I65
sI3574
I115
sI3576
I15
sI3580
I115
sI3588
I785
sI3594
I110
sI3599
I476
sI3602
I59
sI3605
I765
sI3606
I947
sI3608
I861
sI3610
I969
sI3615
I765
sI3619
I81
sI3620
I857
sI3622
I790
sI3623
I794
sI3625
I762
sI3627
I59
sI3628
I436
sI3629
I891
sI3631
I56
sI3634
I50
sI3638
I896
sI3640
I969
sI3642
I225
sI3649
I958
sI3655
I786
sI3658
I956
sI3662
I476
sI3664
I115
sI3665
I752
sI3668
I917
sI3671
I103
sI3672
I980
sI3675
I126
sI3681
I90
sI3684
I969
sI3686
I90
sI3687
I50
sI3688
I896
sI3690
I891
sI3691
I435
sI3692
I124
sI3696
I56
sI3701
I60
sI3707
I947
sI3709
I24
sI3711
I959
sI3714
I792
sI3716
I792
sI3722
I907
sI3724
I83
sI3730
I914
sI3731
I56
sI3732
I479
sI3734
I24
sI3735
I23
sI3736
I909
sI3737
I126
sI3741
I54
sI3743
I802
sI3749
I788
sI3752
I959
sI3753
I758
sI3755
I481
sI3763
I42
sI3769
I907
sI3771
I451
sI3776
I865
sI3777
I465
sI3778
I843
sI3782
I24
sI3784
I103
sI3787
I914
sI3791
I907
sI3798
I52
sI3811
I829
sI3814
I94
sI3825
I94
sI3827
I95
sI3833
I22
sI3836
I797
sI3839
I893
sI3840
I830
sI3842
I774
sI3843
I2
sI3850
I727
sI3852
I40
sI3853
I1003
sI3856
I76
sI3858
I1003
sI3859
I1003
sI3863
I1136
sI3867
I812
sI3871
I727
sI3872
I123
sI3875
I40
sI3880
I819
sI3886
I1134
sI3891
I107
sI3894
I448
sI3897
I46
sI3898
I923
sI3901
I448
sI3902
I4
sI3903
I845
sI3904
I111
sI3907
I1003
sI3909
I76
sI3922
I457
sI3924
I1003
sI3925
I727
sI3927
I68
sI3928
I493
sI3943
I814
sI3945
I120
sI3952
I121
sI3954
I119
sI3955
I1003
sI3965
I125
sI3972
I71
sI3974
I841
sI3975
I1003
sI3984
I741
sI3987
I483
sI3991
I30
sI3998
I125
sI3999
I513
sI4000
I28
sI4002
I68
sI4009
I29
sI4011
I905
sI4015
I5
sI4017
I119
sI4018
I125
sI4023
I807
sI4024
I925
sI4026
I71
sI4032
I119
sI4034
I463
sI4035
I719
sI4042
I91
sI4043
I849
sI4047
I29
sI4051
I478
sI4054
I432
sI4057
I92
sI4064
I5
sI4065
I463
sI4067
I825
sI4071
I36
sI4073
I513
sI4076
I101
sI4077
I858
sI4079
I849
sI4088
I87
sI4093
I57
sI4095
I1109
s.