(lp1
I192
aI204
aI265
aI264
aI247
aI248
aI256
aI258
aI275
aI226
aI234
aI261
aI206
aI167
aI136
aI161
aI146
aI82
aI79
aI104
aI170
aI186
aI155
aI94
aI118
aI133
aI71
aI99
aI119
aI183
aI168
aI369
aI406
aI328
aI376
aI87
aI300
aI364
aI349
aI303
aI11
aI38
aI16
aI400
aI416
aI370
aI323
aI390
aI408
aI330
aI331
aI363
aI411
aI429
aI439
aI456
aI425
aI354
aI340
aI277
aI326
aI374
aI327
aI280
aI296
aI312
aI393
aI409
aI347
aI379
aI241
aI250
aI260
aI227
aI262
aI254
aI207
aI270
aI225
aI235
aI268
aI231
aI272
aI201
aI178
aI263
aI221
aI166
aI198
aI246
aI144
aI176
aI145
aI169
aI101
aI130
aI131
aI98
aI140
aI189
aI158
aI322
aI403
aI342
aI344
aI396
aI285
aI301
aI335
aI352
aI404
aI389
aI343
aI332
aI302
aI305
aI353
aI355
aI360
aI377
aI395
aI368
aI324
aI278
aI358
aI375
aI397
aI287
aI288
aI385
aI401
aI371
aI309
aI325
aI294
aI329
aI282
aI299
aI316
aI334
aI351
aI290
aI387
aI356
aI313
aI346
aI410
aI315
aI365
aI398
aI367
aI337
aI338
aI307
aI339
aI276
aI279
aI391
aI392
aI362
aI394
aI284
aI381
aI4
aI240
aI193
aI209
aI259
aI202
aI251
aI196
aI214
aI199
aI271
aI243
aI255
aI92
aI108
aI177
aI89
aI90
aI156
aI188
aI91
aI151
aI76
aI84
aI96
aI93
aI110
aI111
aI142
aI190
aI135
aI30
aI435
aI455
aI430
aI432
aI419
aI436
aI441
aI442
aI445
aI427
aI297
aI348
aI380
aI59
aI9
aI232
aI257
aI217
aI212
aI80
aI121
aI187
aI114
aI86
aI148
aI386
aI73
aI292
aI147
aI106
aI333
aI286
aI382
aI32
aI18
aI20
aI40
aI0
aI10
aI12
aI19
aI22
aI28
aI33
aI37
aI45
aI314
aI283
aI451
aI51
aI17
aI23
aI228
aI112
aI137
aI113
aI163
aI107
aI174
aI180
aI149
aI150
aI311
aI361
aI359
aI52
aI62
aI224
aI220
aI215
aI200
aI216
aI203
aI223
aI152
aI165
aI124
aI132
aI127
aI388
aI34
aI39
aI43
aI2
aI444
aI308
aI318
aI424
aI431
aI447
aI61
aI69
aI63
aI230
aI218
aI153
aI185
aI97
aI139
aI175
aI128
aI143
aI162
aI134
aI448
aI418
aI420
aI437
aI422
aI454
aI423
aI440
aI428
aI413
aI372
aI54
aI208
aI205
aI109
aI172
aI173
aI138
aI122
aI407
aI281
aI345
aI378
aI75
aI319
aI383
aI384
aI6
aI15
aI289
aI306
aI291
aI295
aI249
aI252
aI434
aI49
aI78
aI72
aI402
aI293
aI341
aI298
aI317
aI366
aI426
aI405
aI236
aI239
aI237
aI116
aI160
aI184
aI126
aI164
aI83
aI115
aI417
aI433
aI450
aI452
aI453
aI438
aI457
aI443
aI373
aI195
aI213
aI446
aI1
aI449
aI414
aI24
aI350
aI7
aI14
aI60
aI105
aI74
aI415
aI48
aI66
aI8
aI242
aI120
aI77
aI125
aI157
aI103
aI182
aI141
aI412
aI46
aI44
aI210
aI67
aI26
aI57
aI238
aI274
aI194
aI219
aI421
aI58
aI244
aI253
aI266
aI269
aI102
aI304
aI320
aI321
aI50
aI229
aI245
aI267
aI70
aI171
aI179
aI123
aI41
aI64
aI65
aI117
aI88
aI31
aI35
aI222
aI95
aI5
aI3
aI211
aI197
aI233
aI27
aI310
aI53
aI21
aI273
aI159
aI100
aI85
aI357
aI129
aI81
aI154
aI399
aI181
aI336
aI42
aI13
aI191
a.