(dp1
I1540
I165
sI1542
I165
sI1551
I35
sI1552
I25
sI1553
I63
sI1554
I30
sI1558
I164
sI1565
I203
sI1808
I93
sI1568
I203
sI1569
I203
sI1572
I197
sI1579
I154
sI1580
I30
sI1586
I6
sI1590
I203
sI1595
I30
sI1596
I45
sI1600
I62
sI1604
I188
sI1607
I48
sI1610
I195
sI1611
I6
sI1946
I143
sI1615
I185
sI1929
I137
sI1620
I195
sI1621
I18
sI1622
I67
sI1628
I209
sI1631
I195
sI1633
I52
sI1635
I185
sI1642
I185
sI1644
I173
sI1646
I195
sI1647
I195
sI1653
I209
sI1660
I161
sI1666
I158
sI1668
I158
sI1674
I139
sI1676
I158
sI1682
I139
sI1683
I105
sI1684
I166
sI1686
I139
sI1687
I158
sI1688
I166
sI1689
I106
sI1693
I139
sI1694
I205
sI1698
I166
sI1819
I138
sI1703
I139
sI1705
I106
sI1706
I106
sI1707
I166
sI1711
I166
sI1712
I77
sI1713
I83
sI1714
I106
sI1715
I83
sI1717
I166
sI1718
I139
sI1719
I77
sI1721
I77
sI1723
I106
sI1724
I106
sI1729
I125
sI1730
I83
sI1731
I94
sI1735
I83
sI1736
I82
sI1737
I98
sI1738
I77
sI1739
I120
sI1826
I87
sI1742
I98
sI1743
I98
sI1744
I79
sI1745
I83
sI1746
I98
sI1747
I101
sI1749
I124
sI1750
I77
sI1751
I98
sI1914
I99
sI1762
I108
sI1767
I118
sI1916
I143
sI1771
I133
sI1849
I93
sI1774
I119
sI1776
I113
sI1777
I122
sI1778
I130
sI1779
I109
sI1780
I119
sI1271
I72
sI1784
I119
sI1273
I53
sI1792
I119
sI1282
I53
sI1283
I72
sI1285
I53
sI1798
I119
sI1799
I93
sI1800
I119
sI1292
I53
sI1293
I72
sI1806
I133
sI1295
I72
sI1296
I72
sI1810
I104
sI1923
I99
sI1813
I93
sI1816
I87
sI1818
I147
sI1307
I191
sI1821
I148
sI1312
I53
sI1825
I87
sI1314
I32
sI1828
I93
sI1829
I87
sI1832
I93
sI1833
I88
sI1834
I88
sI1323
I32
sI1842
I135
sI1331
I72
sI1333
I32
sI1847
I87
sI1336
I198
sI1337
I191
sI1851
I135
sI1341
I191
sI1845
I92
sI1857
I136
sI1346
I32
sI1859
I88
sI1861
I88
sI1869
I135
sI1864
I136
sI1835
I147
sI1867
I135
sI1356
I198
sI1357
I198
sI1359
I24
sI1872
I99
sI1848
I87
sI1362
I32
sI1875
I88
sI1932
I144
sI1877
I99
sI1878
I99
sI1367
I198
sI1369
I24
sI1371
I24
sI1373
I32
sI1375
I51
sI1933
I143
sI1379
I32
sI1893
I137
sI1382
I168
sI1895
I99
sI1384
I24
sI1897
I137
sI1901
I144
sI1902
I99
sI1903
I135
sI1907
I144
sI1911
I137
sI1912
I137
sI1401
I42
sI1402
I39
sI1855
I135
sI1404
I155
sI1919
I143
sI1920
I137
sI1922
I144
sI1411
I168
sI1417
I192
sI1930
I143
sI1420
I155
sI1421
I155
sI1424
I168
sI1426
I167
sI1427
I155
sI1428
I167
sI1431
I168
sI1432
I155
sI1433
I10
sI1434
I58
sI1437
I155
sI1438
I23
sI1439
I199
sI1441
I167
sI1442
I167
sI1444
I5
sI1448
I155
sI1450
I167
sI1452
I167
sI1457
I181
sI1461
I5
sI1463
I181
sI1464
I176
sI1466
I176
sI1469
I5
sI1473
I181
sI1805
I93
sI1477
I156
sI1481
I5
sI1484
I25
sI1486
I196
sI1487
I181
sI1488
I162
sI1490
I5
sI1491
I59
sI1495
I25
sI1497
I186
sI1871
I136
sI1500
I172
sI1503
I175
sI1504
I25
sI1506
I204
sI1507
I197
sI1508
I197
sI1509
I25
sI1514
I38
sI1516
I25
sI1519
I197
sI1523
I186
sI1525
I186
sI1530
I186
sI1533
I197
sI1534
I197
s.