(dp1
I0
F2.8528727886877618
sI3
F3.07414012957301
sI4
F-13.80990492710049
sI5
F10.575403239713722
sI6
F0.94357380857908879
sI7
F3.3545870252717123
sI8
F7.2391938280635628
sI9
F9.0526899743842648
sI10
F10.034607103832784
sI11
F6.4651201760594716
sI12
F0.67671044899253729
sI13
F1.3119989287318674
sI14
F10.150625441738455
sI15
F-0.036008886423331887
sI16
F1.9797677934838021
sI17
F-2.3673678860408955
sI19
F2.9918017227153939
sI20
F8.9421745736332099
sI22
F8.6737490554745875
sI23
F-7.8300709127079671
sI24
F8.5972576507955836
sI25
F8.6029350478486606
sI26
F7.7219088002232183
sI28
F-18.05358367708638
sI30
F-4.8850421045561774
sI31
F-26.475407077563062
sI33
F10.784468653140067
sI36
F9.7880004159164429
sI37
F5.5198647582938349
sI38
F9.6790238968821001
sI39
F10.676389187328851
sI40
F3.4812840257925188
sI41
F-1.9871247054125263
sI42
F-6.2242678467563906
sI43
F8.4661696825934172
sI44
F4.1894485258089702
sI45
F-8.1559819146097681
sI46
F4.1338024627563072
sI47
F1.7777077559399004
sI48
F-7.2820977800788427
sI49
F2.1622085821489492
sI50
F-5.5717144534156517
sI51
F-12.014087887777478
sI52
F10.000121712770607
sI55
F6.1002200094915366
sI56
F10.574034581528267
sI57
F3.5463780525098514
sI58
F7.3023260332085442
sI60
F9.40304490752726
sI61
F5.9881094044158658
sI62
F4.5215667470374541
sI63
F-0.87192898915945705
sI65
F3.0967338537359979
sI66
F10.042273534453514
sI67
F3.3559923986192928
sI68
F6.2329756157817542
sI69
F5.8708872202772824
sI70
F10.884395215450667
sI71
F8.648469662178897
sI72
F8.4494781235714811
sI73
F7.0487611579155498
sI75
F8.6628029826139255
sI76
F-1.7942171376327423
sI77
F8.7161349808987438
sI79
F7.1021506097854115
sI82
F8.7537724261095207
sI83
F2.8977638556707603
sI84
F8.0866029913404986
sI85
F6.5668969597893323
sI86
F7.6937877371150307
sI88
F9.0691411673238065
sI89
F10.688811262462934
sI90
F3.3183614716653835
sI91
F10.637380660401604
sI93
F-3.4429981012711011
sI94
F10.376285852883271
sI95
F10.191094928823262
sI96
F9.2756348211500494
sI97
F9.1314326036941651
sI98
F4.4185169040538597
sI99
F10.404143537719932
sI100
F-1.4980817695041537
sI101
F-4.888733167657648
sI102
F7.4527342278849602
sI103
F9.9031343893139905
sI104
F-1.9221471574541482
sI105
F-1.1358210311278754
sI108
F8.44066398313484
sI109
F4.9766472948217029
sI110
F7.1062188437821021
sI111
F8.3652429593149833
sI113
F1.2069262823907394
sI114
F-2.2906522604184403
sI115
F6.4214034358274432
sI116
F6.9808755209548963
sI117
F9.9930142975811691
sI118
F-7.2402458248255357
sI120
F-8.0822231108565035
sI121
F9.9616325576783709
sI122
F8.4941683376691515
sI123
F6.7218652908034358
sI124
F9.3319924904257903
sI125
F5.5797958051925605
sI126
F1.7913002738956436
sI127
F7.2621234769839731
sI128
F5.4194007472939631
sI129
F5.4572456775708247
sI130
F0.37770643231242218
sI133
F6.2204041780971266
sI134
F10.673525733053438
sI136
F10.678900637361608
sI138
F6.7020260819291337
sI139
F4.9878901677270875
sI140
F2.3661570876589479
sI141
F-4.0345930994350283
sI142
F9.5324925955730748
sI143
F-11.699050881729065
sI144
F9.1034346656530261
sI146
F-7.9197665514634252
sI147
F3.7516457014555868
sI148
F10.77643288555339
sI150
F5.0174262548798225
sI151
F10.223512115108463
sI152
F9.4356180111933696
sI154
F8.410332285274535
sI155
F-13.475656616810852
sI156
F10.175842825983977
sI157
F10.30162704332362
sI158
F10.675092661701683
sI159
F-3.8144667908312613
sI160
F3.9611868014567477
sI161
F4.9908493752157739
sI162
F8.2461220723387783
sI166
F9.8626908159342861
sI167
F4.7262580351438714
sI168
F10.953429668595945
sI170
F9.2596920411445893
sI171
F7.1403177784874856
sI172
F-3.7841697966691044
sI173
F6.5757391838460961
sI175
F1.2751494686527849
sI176
F9.8588581306600105
sI177
F-3.3852290332852135
sI179
F3.3459233462647546
sI180
F10.897247010625392
sI181
F9.7388601366307768
sI183
F7.8937800630865524
sI184
F2.7541191132360865
sI186
F3.8740429301490025
sI187
F-5.0291235919735016
sI190
F-0.026042813425121381
sI191
F5.5614048096285273
sI192
F-13.835296619794306
sI193
F-6.3510143622846726
sI194
F-2.1146428430640896
sI195
F10.214989477000529
sI196
F9.6539595453171074
sI197
F-10.727334158131711
sI198
F9.9369656881337107
sI199
F5.5650466851324438
sI200
F-18.973918754699113
sI201
F1.0453223519235166
sI202
F0.21272971908891236
sI203
F-19.606510789317682
sI204
F-14.492860788196481
sI205
F10.82990622091026
sI206
F9.1869898807603221
sI207
F7.8328445283812016
sI208
F6.7324859710643778
sI209
F4.9476848999286744
sI211
F-1.6016908142389923
sI212
F-0.1880860858023965
sI213
F-7.246487445557932
sI214
F-16.492077589141275
sI215
F-7.645638856682595
sI217
F10.156487126994762
sI218
F-11.690957330773017
sI220
F-2.2406245458081315
sI221
F7.7665593003119682
sI222
F-3.4197534310324329
sI223
F9.9408056968181597
sI224
F-20.011616797273689
sI225
F-3.9245376073050835
sI226
F10.869640595374392
sI227
F8.0860385965172554
sI228
F1.5452059486854637
sI229
F10.704724922353222
sI230
F6.0241563203250479
sI231
F2.5288873336024409
sI232
F1.145174787309557
sI233
F7.002289051604663
sI234
F-3.5143528633744836
sI235
F3.8781414942832271
sI236
F1.6176971769451285
sI238
F-6.0371405171986652
sI239
F7.0437001651551725
sI240
F8.7366975399876878
sI241
F4.8035204112775887
sI242
F10.443688056817905
sI243
F1.1773885291689083
sI244
F8.6934888378810058
sI245
F6.2166409105911953
sI246
F5.4002429700799297
s.