(dp1
I2111
I21
sI2112
I70
sI2114
I21
sI2115
I58
sI2116
I66
sI2117
I69
sI2118
I66
sI2119
I69
sI2121
I69
sI2123
I58
sI2125
I13
sI2126
I26
sI2127
I13
sI2128
I58
sI2129
I8
sI2132
I15
sI2133
I13
sI2134
I26
sI2136
I15
sI2137
I61
sI2138
I20
sI2139
I11
sI2141
I8
sI2143
I11
sI2144
I11
sI2145
I26
sI2146
I11
sI2147
I11
sI2149
I20
sI2153
I65
sI2156
I65
sI2158
I20
sI2160
I11
sI2163
I8
sI2172
I71
sI2174
I65
sI2184
I65
sI2185
I41
sI2188
I24
sI2193
I41
sI2195
I76
sI2196
I192
sI2198
I192
sI2199
I192
sI2203
I0
sI2204
I41
sI2208
I81
sI2211
I17
sI2213
I208
sI2215
I192
sI2216
I65
sI2217
I17
sI2220
I81
sI2222
I208
sI2223
I41
sI2226
I85
sI2229
I208
sI2232
I192
sI2233
I85
sI2238
I81
sI2239
I41
sI2242
I17
sI2247
I17
sI2249
I192
sI2258
I192
sI2263
I85
sI2274
I85
sI2278
I17
sI2280
I5
sI2288
I182
sI2289
I83
sI2293
I85
sI2306
I190
sI2308
I5
sI2313
I182
sI2314
I3
sI2316
I182
sI2317
I17
sI2320
I60
sI2321
I182
sI2322
I190
sI2323
I190
sI2324
I60
sI2331
I9
sI2341
I60
sI2343
I172
sI2352
I190
sI2355
I182
sI2360
I31
sI2361
I3
sI2363
I9
sI2367
I9
sI2371
I182
sI2372
I190
sI2373
I14
sI2375
I31
sI2378
I172
sI2379
I9
sI2380
I172
sI2381
I240
sI2383
I3
sI2385
I172
sI2390
I14
sI2393
I240
sI2394
I206
sI2395
I14
sI2402
I46
sI2408
I240
sI2410
I161
sI2411
I31
sI2416
I31
sI2418
I206
sI2419
I240
sI2422
I240
sI2429
I206
sI2431
I3
sI2433
I73
sI2434
I31
sI2435
I14
sI2442
I31
sI2443
I183
sI2444
I46
sI2446
I206
sI2454
I231
sI2458
I240
sI2459
I216
sI2460
I73
sI2462
I161
sI2464
I180
sI2466
I216
sI2467
I51
sI2468
I34
sI2471
I231
sI2473
I34
sI2478
I34
sI2482
I231
sI2484
I34
sI2492
I73
sI2493
I53
sI2494
I48
sI2495
I203
sI2498
I180
sI2499
I53
sI2501
I239
sI2502
I180
sI2503
I231
sI2504
I231
sI2506
I180
sI2508
I212
sI2510
I48
sI2513
I73
sI2514
I206
sI2516
I53
sI2517
I48
sI2518
I53
sI2521
I53
sI2526
I34
sI2528
I203
sI2529
I180
sI2530
I53
sI2531
I225
sI2533
I34
sI2534
I180
sI2535
I231
sI2539
I180
sI2550
I12
sI2551
I67
sI2552
I203
sI2555
I67
sI2556
I225
sI2557
I48
sI2562
I167
sI2566
I12
sI2569
I175
sI2570
I48
sI2571
I67
sI2574
I211
sI2575
I175
sI2576
I235
sI2580
I212
sI2581
I225
sI2582
I67
sI2585
I175
sI2586
I235
sI2588
I67
sI2591
I67
sI2597
I174
sI2600
I167
sI2604
I12
sI2608
I213
sI2611
I167
sI2615
I12
sI2617
I211
sI2618
I117
sI2619
I235
sI2620
I67
sI2621
I12
sI2622
I237
sI2623
I175
sI2624
I235
sI2625
I157
sI2630
I175
sI2632
I157
sI2633
I213
sI2634
I215
sI2635
I198
sI2636
I215
sI2641
I117
sI2651
I233
sI2655
I198
sI2656
I171
sI2657
I117
sI2658
I217
sI2661
I217
sI2663
I157
sI2664
I171
sI2669
I233
sI2679
I171
sI2683
I171
sI2685
I217
sI2687
I157
sI2688
I133
sI2689
I204
sI2693
I233
sI2696
I129
sI2705
I233
sI2706
I104
sI2710
I170
sI2713
I227
sI2717
I170
sI2718
I196
sI2721
I233
sI2723
I165
sI2726
I107
sI2727
I204
sI2732
I224
sI2743
I120
sI2745
I165
sI2757
I87
sI2758
I170
sI2759
I170
sI2761
I196
sI2762
I187
sI2763
I87
sI2767
I224
sI2772
I116
sI2773
I196
sI2774
I224
sI2775
I228
sI2780
I170
sI2784
I170
sI2787
I197
sI2792
I160
sI2796
I176
sI2797
I176
sI2799
I224
sI2802
I134
sI2805
I197
sI2807
I134
sI2808
I160
sI2809
I197
sI2814
I197
sI2816
I228
sI2818
I160
sI2828
I168
sI2829
I224
sI2830
I134
sI2831
I219
sI2832
I197
sI2835
I111
sI2836
I86
sI2846
I111
sI2850
I123
sI2851
I219
sI2855
I224
sI2861
I86
sI2868
I149
sI2870
I223
sI2871
I228
sI2874
I149
sI2875
I199
sI2877
I241
sI2882
I228
sI2890
I111
sI2895
I123
sI2896
I95
sI2902
I219
sI2903
I149
sI2919
I149
sI2922
I199
sI2929
I130
sI2932
I158
sI2942
I99
sI2943
I95
sI2946
I106
sI2960
I90
sI2961
I95
sI2963
I106
sI2965
I92
sI2967
I106
sI2968
I158
sI2973
I122
sI2978
I115
sI2979
I146
sI2984
I142
sI2990
I242
sI2992
I88
sI2993
I242
sI2994
I242
sI2996
I94
sI3003
I146
sI3006
I119
sI3009
I92
sI3011
I159
sI3016
I90
sI3020
I242
sI3022
I150
sI3031
I159
sI3032
I242
sI3035
I94
sI3039
I102
sI3042
I92
sI3043
I159
sI3045
I242
sI3047
I156
sI3051
I156
sI3054
I124
sI3057
I94
sI3064
I89
sI3067
I124
sI3073
I97
sI3076
I94
sI3080
I94
sI3089
I100
sI3090
I100
sI3094
I156
sI3095
I89
sI3102
I100
sI3103
I94
sI3110
I100
sI3111
I97
sI3114
I152
sI3124
I100
sI3129
I156
sI3131
I89
sI3140
I100
s.