(dp1
I0
F-31.759642763330049
sI7
F-21.12073457836901
sI8
F-22.337759340686929
sI10
F-36.499060712194932
sI12
F-26.362294126136206
sI15
F-36.937315892717237
sI22
F-23.963089737376364
sI23
F-21.178452769556202
sI25
F-19.900505416873585
sI27
F-51.803786313474561
sI28
F-28.113395914916126
sI34
F-29.45194009768889
sI44
F-23.082224346404843
sI50
F-40.598560988510158
sI51
F-19.490847213752943
sI53
F-25.457470353967807
sI54
F-18.811467434824493
sI57
F-30.675966210574046
sI60
F-18.82741055936674
sI63
F-21.439263942622489
sI68
F-21.710647777801455
sI70
F-28.282282652982488
sI71
F-33.302059211607826
sI76
F-15.752217782296654
sI77
F-21.833085632836301
sI79
F-32.823428796062998
sI80
F-20.577585792087405
sI88
F-20.906814250631044
sI90
F-25.597474880246253
sI91
F-12.578116476111234
sI92
F-21.003696881916326
sI97
F-15.018276696975079
sI102
F-16.924307754814691
sI103
F-20.977580058623829
sI107
F-28.71317653653567
sI108
F-45.32637989928827
sI109
F-24.540622920854616
sI111
F-20.597052987648766
sI125
F-36.196616409037176
sI130
F-31.552406415865718
sI131
F-11.887319009378871
sI133
F-20.102822194402847
sI134
F-25.164488450674895
sI139
F-34.613621147151136
sI143
F-29.79999888529467
sI147
F-18.21040610197042
sI150
F-21.242396578846709
sI151
F-30.452221761541523
sI154
F-19.824575090647571
sI155
F-26.725542400595089
sI166
F-21.053807647772146
sI167
F-21.764888580634135
sI172
F-34.307847523485748
sI176
F-30.22978559156924
sI177
F-45.651441537908141
sI181
F-25.563789530046478
sI183
F-20.147580466121227
sI185
F-35.773372315677435
sI189
F-33.150129651707772
sI190
F-21.725895645488848
sI191
F-18.326258582407547
sI192
F-6.4067507995516451
sI193
F-25.394637313238277
sI196
F-23.426599728738552
sI197
F-17.518186803261386
sI200
F-33.365252899660504
sI201
F-31.704772791042316
sI203
F-19.033523023854769
sI204
F-9.4005564092740883
sI206
F-27.572527959176227
sI208
F-35.886093624526865
sI209
F-18.615066369293302
sI213
F-16.699098619902728
sI214
F-23.569465841996362
sI215
F-33.638635820688279
sI219
F-41.193024677771433
sI220
F-31.4359589930026
s.