(dp1
I3
F-17.043966070355665
sI4
F-15.783382645833882
sI5
F-9.4315695219063969
sI8
F-19.519820080505525
sI9
F-30.295246321958146
sI10
F-18.934540213824931
sI11
F-20.884916810406466
sI13
F-19.491623268707201
sI15
F-24.316599631902889
sI17
F-25.436480994540744
sI19
F-18.500812287373748
sI24
F-8.8793786010482165
sI25
F-20.280763402479892
sI26
F-27.188359594030686
sI27
F-35.159527548330871
sI28
F-25.795030141560375
sI29
F-10.355439339467864
sI31
F-25.310564135182517
sI32
F-34.042443181942716
sI35
F-22.53272854965185
sI39
F2.0360414637112143
sI40
F-23.564150525479562
sI41
F-25.343038492575062
sI42
F-28.990390172473639
sI43
F-22.129437856053059
sI44
F-24.805950758762918
sI46
F-23.404609320327594
sI49
F-19.20185851839949
sI50
F-3.7065421374267373
sI52
F-17.199212021588664
sI56
F-33.504274840666639
sI57
F-3.6561831711382098
sI58
F-24.694852487541851
sI63
F-33.339447554822314
sI65
F-26.294812543623792
sI66
F-27.481610081597807
sI67
F-26.705959968315113
sI69
F-41.485256311277425
sI70
F-25.425442517797933
sI73
F-3.2312754466854585
sI78
F-20.051022231518331
sI81
F-24.099426792123282
sI82
F-37.524330124651328
sI83
F-20.275058284663544
sI84
F-2.7641302154124219
sI85
F-18.782439009767131
sI86
F7.036001323468426
sI89
F-19.285867200725733
sI91
F-21.441948115155469
sI92
F-22.175981087299846
sI93
F-18.533774504223061
sI94
F-38.232966597853661
sI95
F-30.759642763330049
sI97
F-32.127852953352559
sI99
F-15.709727309232647
sI100
F-17.19621007642894
sI101
F-8.398094332554237
sI104
F-25.139688589154105
sI105
F-32.716254597860896
sI108
F-22.87238810878759
sI112
F-15.599865478297048
sI113
F-33.673140445669986
sI118
F-9.9729877891730609
sI119
F-14.378245764312084
sI120
F5.7704603051724916
sI121
F-20.119422265728787
sI122
F-10.759041551138537
sI125
F-25.315863495294721
sI126
F-29.303039649619265
sI127
F-31.264110106984077
sI131
F-29.362942560866784
sI134
F-26.03980095882946
sI136
F-22.664381921321706
sI139
F-11.147638279369033
sI140
F-11.290117057116277
sI146
F-24.878946965047234
sI147
F-19.033523023854769
sI150
F-14.271999884568771
sI152
F-12.852746392067118
sI155
F7.3301804735425264
sI158
F-19.092160660754814
sI163
F-13.357845605726041
sI164
F-18.138297997456775
sI166
F-9.8640686807978284
sI167
F-27.676844087941603
sI168
F-22.249519937002674
sI170
F-23.64529701276193
sI172
F-9.635697581017908
sI174
F4.080461467132352
sI176
F-7.7882602035569732
sI178
F-16.58098540881123
sI181
F6.6974590739830973
sI183
F6.2639913789582664
sI185
F5.4146319269298999
sI187
F-32.192678938874934
sI194
F-23.239032583573106
sI195
F0.075692245185308593
sI196
F7.4898805353693376
sI197
F-21.663512213046516
sI201
F-14.795884342221598
sI202
F-22.625035891516589
sI204
F-25.127278746638467
sI205
F-6.752217782296654
sI208
F-28.593078376306096
sI209
F-12.957235586360483
sI214
F-24.902502719680058
sI215
F-19.42552863877917
sI217
F-24.815913565955896
sI225
F-29.714158906234033
sI226
F-23.603081863137163
sI228
F-34.127672742944341
sI235
F0.53186889444030783
sI236
F-18.595159692004756
sI238
F-36.124412362303957
sI242
F-14.025319749611953
sI243
F-19.058756401169177
sI250
F-30.342546639415957
sI253
F-10.44795955026423
sI255
F-22.174403676595716
sI257
F-24.351420417689781
sI263
F-25.113395914916126
sI265
F-23.043030549365525
sI266
F-37.55118119562961
sI267
F-19.27432881313743
sI268
F-25.293859153583242
sI270
F-18.797378416904735
sI271
F-28.73771185252771
sI273
F-13.388389109446919
sI276
F-19.165817421027185
sI277
F-13.928713811307858
sI279
F-21.432043240228836
sI282
F-30.879421310456067
s.