(lp1
I12
aI13
aI61
aI88
aI95
aI137
aI117
aI114
aI118
aI133
aI99
aI143
aI160
aI174
aI194
aI196
aI197
aI190
aI200
aI3
aI27
aI32
aI44
aI50
aI33
aI35
aI47
aI72
aI92
aI79
aI107
aI116
aI121
aI110
aI123
aI183
aI209
aI210
aI221
aI224
aI232
aI233
aI234
aI235
aI229
aI58
aI45
aI63
aI120
aI89
aI101
aI109
aI90
aI108
aI152
aI105
aI130
aI147
aI98
aI102
aI126
aI111
aI127
aI178
aI148
aI164
aI181
aI158
aI166
aI170
aI172
aI216
aI220
aI213
aI222
aI10
aI20
aI16
aI25
aI29
aI34
aI38
aI46
aI48
aI49
aI54
aI56
aI43
aI66
aI96
aI104
aI73
aI77
aI86
aI94
aI106
aI125
aI155
aI157
aI135
aI176
aI169
aI162
aI171
aI184
aI180
aI165
aI189
aI175
aI201
aI202
aI203
aI211
aI206
aI215
aI225
aI218
aI226
aI230
aI231
aI21
aI24
aI41
aI62
aI57
aI100
aI85
aI93
aI75
aI103
aI128
aI144
aI146
aI134
aI142
aI136
aI153
aI139
aI163
aI151
aI159
aI167
aI186
aI179
aI173
aI205
aI37
aI42
aI60
aI65
aI69
aI55
aI67
aI70
aI87
aI0
aI5
aI30
aI52
aI64
aI84
aI112
aI91
aI131
aI141
aI140
aI208
aI214
aI228
aI59
aI132
aI119
aI207
aI51
aI97
aI156
aI199
aI17
aI23
aI26
aI31
aI40
aI39
aI83
aI168
aI145
aI177
aI188
aI150
aI11
aI15
aI19
aI187
aI195
aI80
aI113
aI82
aI193
aI219
aI81
aI78
aI71
aI138
aI122
aI149
aI227
aI223
aI8
aI14
aI18
aI217
aI204
aI212
aI68
aI53
aI191
aI4
aI76
aI124
aI154
aI6
aI28
aI22
aI198
aI36
aI129
aI115
aI7
aI161
aI182
aI2
aI9
aI192
aI1
aI185
aI74
a.