(dp1
I0
F4.4051256586332102
sI1
F7.1553516979533356
sI2
F9.1905765080458082
sI3
F3.7616287504572199
sI4
F-5.1180694885401863
sI6
F2.5411165910995805
sI7
F-0.59663255497622458
sI8
F-2.9702641106367764
sI9
F4.4291244000063585
sI10
F-5.8238641937519446
sI13
F-11.237702592439547
sI14
F8.7709709874707329
sI15
F4.7798522987559551
sI16
F9.5528868269406217
sI17
F1.9234782650783018
sI19
F-1.4834498404817822
sI21
F9.9163732664622728
sI22
F2.1030631628710807
sI23
F10.859874105300747
sI25
F7.5748721339092242
sI26
F4.5668173639525946
sI27
F10.61704536032488
sI28
F7.0961935506179117
sI29
F10.797421325743386
sI31
F3.4349107442549069
sI33
F-0.71900808630999791
sI35
F8.3124183215541336
sI36
F3.4386189730246741
sI37
F10.355154098530036
sI38
F8.9463027279652607
sI39
F-4.9249718960708719
sI40
F1.6764024411023399
sI44
F-20.161315895128681
sI45
F3.0803934172820817
sI46
F-1.2000292612889325
sI47
F8.2698200497747507
sI48
F8.759106632365075
sI49
F-7.3694303574304172
sI50
F3.559309394550894
sI51
F10.153936069139476
sI52
F8.3108049146806593
sI53
F7.2274779602059027
sI54
F-20.995952433749139
sI56
F6.0214874504085003
sI57
F-15.687279061977563
sI58
F2.8160555748600871
sI59
F4.2265866327152253
sI60
F10.317439498456537
sI61
F-6.8736125045012386
sI62
F2.491397569276586
sI64
F5.0327252459586589
sI65
F6.7193586367891953
sI67
F8.5678529809069062
sI68
F8.2337339499870694
sI69
F10.7230481213345
sI72
F9.2816046936813166
sI73
F7.1227580223839198
sI74
F10.24610626862075
sI75
F9.9661705667677154
sI76
F-18.350577339571728
sI77
F7.3952765821231026
sI78
F7.2394602114061684
sI79
F8.2945121829454393
sI80
F6.5536757234791878
sI82
F7.3859862340289339
sI83
F7.013898181572813
sI85
F5.7174662545411081
sI86
F-14.730770812511508
sI87
F-8.7264444865624995
sI88
F9.045695811120595
sI91
F10.05345189274567
sI92
F-5.184971597119997
sI94
F9.6417721892708812
sI95
F10.766172906024394
sI96
F7.1660760574663271
sI97
F7.2753593623585857
sI98
F9.0790435758358115
sI99
F10.67845505081327
sI102
F-1.2930767909958547
sI104
F3.3616307404463441
sI105
F-13.430976753923929
sI106
F7.5223536476632802
sI107
F6.4228051381634259
sI108
F9.3744198085285007
sI109
F6.1334801220672688
sI110
F4.6131322900372993
sI111
F9.5457813810649697
sI112
F5.4557421716124281
sI113
F10.908555075292753
sI116
F6.9207549953789993
sI117
F5.6484740912369205
sI119
F5.9769914192955014
sI120
F8.5381887586629261
sI121
F6.8731637870725848
sI122
F7.2630981735962337
sI123
F7.6409546776493471
sI124
F9.6676832573210163
sI125
F7.8992357302287104
sI126
F-1.6361201999235391
sI128
F6.1100786942882621
sI131
F-2.0287232261161989
sI132
F8.3782118637393808
sI133
F10.306871148387657
sI134
F5.2824161166799399
sI135
F10.59679248689622
sI136
F6.9593350875673821
sI137
F10.398868594165151
sI138
F4.3637937600531558
sI139
F8.7508887543667697
sI140
F5.9992572819095358
sI141
F7.8126428239252022
sI143
F-21.535016440152589
sI144
F4.3761265364651791
sI145
F1.3527351639430236
sI146
F7.0511961905138918
sI149
F-1.2626828205273597
sI151
F3.3433772828913249
sI152
F9.8416834508100806
sI153
F2.0463156546475858
sI154
F4.2107672601104582
sI155
F10.702785577211756
sI156
F7.6434560260729967
sI157
F4.8421597733370163
sI158
F1.6129784191900711
sI160
F7.356342762467321
sI161
F9.9727792111390272
sI163
F9.9316685417659585
sI164
F10.544127208537063
sI165
F6.8498081220960501
sI166
F10.592719317633652
sI167
F9.8070452201480975
sI168
F10.890349963419126
sI169
F4.4826806470964584
sI171
F10.43476466519121
sI172
F7.560072302248841
sI173
F7.9576520620506415
sI175
F6.6960870842541453
sI176
F9.8408686380430055
sI177
F10.84944182657398
sI183
F0.5535932918585047
sI185
F7.6546362645523516
sI186
F4.0714781540445699
sI187
F10.510818376681925
sI188
F10.605342692159454
sI189
F10.217283542334613
sI190
F7.966731556102161
sI191
F7.343079348478426
sI192
F10.272669039410246
sI193
F10.595050402876666
sI194
F7.6223198701585204
sI195
F2.4226958844738959
sI197
F7.0019698252377225
sI198
F10.36242006657497
sI199
F10.600185503825259
sI202
F0.18727184954093445
sI203
F0.10156564079903774
sI205
F10.641337904651053
sI206
F7.5701615426957574
sI208
F6.3298689474423924
sI210
F7.9481985219286173
sI211
F0.40139668350430213
sI213
F10.682015147625108
sI214
F10.039542584962504
sI215
F-4.1323147280902646
sI216
F8.586730455880712
sI218
F9.3968976678032163
sI219
F2.4720624782880236
sI220
F2.7921484263347196
sI221
F9.9683699807611958
sI222
F8.2610619048585363
sI224
F3.776038757432616
sI225
F2.3754706609423835
sI226
F5.3611278390485211
sI227
F10.979660477434777
sI228
F10.56963692740544
sI229
F8.6636113365259462
sI230
F10.514338092849428
sI231
F9.2007003523327171
sI232
F8.4736259148687481
sI233
F10.38645490115195
sI235
F5.9466497277429653
s.