(dp1
I1536
I164
sI1537
I166
sI1540
I189
sI1541
I163
sI1543
I186
sI1544
I189
sI1545
I186
sI1551
I183
sI1552
I186
sI1553
I184
sI1555
I197
sI1556
I197
sI1562
I206
sI1564
I214
sI1566
I214
sI1567
I197
sI1568
I198
sI1569
I198
sI1570
I201
sI1574
I207
sI1576
I207
sI1578
I198
sI1579
I216
sI1580
I216
sI1581
I214
sI1582
I198
sI1583
I214
sI1584
I206
sI1585
I207
sI1586
I214
sI1588
I198
sI1590
I209
sI1591
I198
sI1593
I215
sI1594
I214
sI1596
I220
sI1597
I221
sI1598
I207
sI1599
I207
sI1600
I226
sI1602
I227
sI1603
I232
sI1605
I229
sI1606
I228
sI1607
I232
sI1608
I228
sI1610
I232
sI1317
I2
sI1318
I2
sI1319
I5
sI1320
I1
sI1321
I2
sI1322
I1
sI1323
I13
sI1327
I10
sI1328
I14
sI1329
I13
sI1330
I24
sI1331
I17
sI1332
I13
sI1333
I14
sI1334
I16
sI1335
I21
sI1336
I23
sI1337
I26
sI1338
I24
sI1340
I23
sI1342
I32
sI1343
I26
sI1344
I31
sI1345
I43
sI1346
I29
sI1348
I29
sI1349
I45
sI1350
I24
sI1351
I32
sI1352
I49
sI1353
I30
sI1354
I49
sI1355
I45
sI1356
I43
sI1357
I43
sI1358
I51
sI1359
I48
sI1360
I49
sI1361
I49
sI1362
I45
sI1363
I51
sI1365
I51
sI1366
I53
sI1367
I53
sI1368
I54
sI1370
I67
sI1371
I67
sI1372
I48
sI1373
I55
sI1374
I70
sI1375
I66
sI1376
I48
sI1377
I73
sI1378
I70
sI1379
I74
sI1380
I61
sI1381
I69
sI1383
I80
sI1384
I73
sI1385
I67
sI1386
I75
sI1387
I73
sI1388
I53
sI1389
I69
sI1390
I70
sI1392
I67
sI1393
I84
sI1394
I69
sI1396
I69
sI1397
I70
sI1398
I75
sI1401
I74
sI1402
I70
sI1403
I69
sI1405
I78
sI1406
I69
sI1407
I73
sI1408
I84
sI1409
I75
sI1410
I69
sI1411
I80
sI1412
I83
sI1414
I86
sI1415
I79
sI1416
I83
sI1417
I69
sI1418
I91
sI1419
I69
sI1421
I88
sI1422
I111
sI1424
I103
sI1425
I91
sI1426
I89
sI1427
I97
sI1428
I100
sI1429
I96
sI1430
I91
sI1431
I103
sI1432
I91
sI1433
I111
sI1434
I91
sI1436
I100
sI1437
I102
sI1438
I111
sI1439
I107
sI1440
I97
sI1443
I89
sI1444
I111
sI1447
I115
sI1449
I116
sI1450
I125
sI1451
I128
sI1453
I110
sI1454
I125
sI1456
I120
sI1457
I125
sI1460
I116
sI1461
I122
sI1463
I128
sI1466
I128
sI1467
I125
sI1471
I122
sI1472
I130
sI1473
I134
sI1474
I134
sI1478
I134
sI1479
I136
sI1480
I138
sI1481
I145
sI1484
I145
sI1485
I149
sI1488
I141
sI1489
I150
sI1493
I145
sI1494
I148
sI1495
I150
sI1496
I149
sI1499
I153
sI1500
I149
sI1501
I162
sI1504
I157
sI1507
I164
sI1510
I160
sI1511
I162
sI1515
I164
sI1516
I169
sI1518
I162
sI1520
I166
sI1521
I164
sI1522
I166
sI1523
I169
sI1524
I183
sI1525
I189
sI1526
I163
sI1529
I189
sI1531
I166
sI1533
I164
sI1535
I186
s.