(dp1
I2053
I0
sI2059
I6
sI2061
I1
sI2073
I2
sI2079
I4
sI2599
I135
sI2653
I165
sI2825
I221
sI2617
I139
sI2618
I149
sI2826
I218
sI2624
I140
sI2625
I151
sI2115
I10
sI2630
I143
sI2634
I144
sI2639
I146
sI2139
I9
sI2141
I13
sI2657
I152
sI2660
I166
sI2663
I154
sI2152
I8
sI2666
I155
sI2156
I16
sI2160
I14
sI2673
I157
sI2674
I156
sI2163
I17
sI2164
I15
sI2851
I225
sI2172
I19
sI2686
I161
sI2176
I27
sI2689
I172
sI2184
I21
sI2697
I171
sI2186
I28
sI2700
I163
sI2190
I23
sI2191
I29
sI2704
I168
sI2708
I175
sI2709
I173
sI2711
I164
sI2717
I190
sI2719
I186
sI2722
I177
sI2724
I176
sI2214
I22
sI2738
I189
sI2744
I191
sI2234
I26
sI2750
I187
sI2240
I25
sI2243
I31
sI2758
I192
sI2251
I38
sI2764
I185
sI2254
I40
sI2257
I39
sI2771
I197
sI2262
I36
sI2265
I35
sI2752
I188
sI2782
I211
sI2271
I37
sI2274
I50
sI2787
I198
sI2278
I45
sI2769
I195
sI2792
I222
sI2281
I46
sI2282
I44
sI2565
I136
sI2287
I60
sI2801
I205
sI2295
I48
sI2296
I49
sI2809
I214
sI2298
I56
sI2299
I47
sI2858
I216
sI2302
I51
sI2307
I54
sI2308
I62
sI2309
I52
sI2310
I68
sI2823
I220
sI2313
I57
sI2314
I59
sI2318
I61
sI2834
I226
sI2323
I67
sI2324
I69
sI2838
I224
sI2328
I78
sI2843
I227
sI2703
I167
sI2846
I231
sI2847
I230
sI2848
I219
sI2339
I58
sI2340
I79
sI2853
I229
sI2342
I73
sI2856
I215
sI2346
I75
sI2860
I228
sI2352
I72
sI2357
I76
sI2360
I80
sI2873
I233
sI2363
I83
sI2876
I232
sI2365
I99
sI2369
I82
sI2370
I77
sI2371
I85
sI2884
I235
sI2373
I86
sI2375
I65
sI2378
I74
sI2379
I87
sI2786
I208
sI2384
I104
sI2388
I88
sI2390
I96
sI2395
I107
sI2400
I92
sI2401
I95
sI2402
I97
sI2405
I98
sI2409
I109
sI2415
I94
sI2774
I199
sI2419
I113
sI2420
I102
sI2422
I110
sI2428
I111
sI2794
I202
sI2430
I112
sI2432
I116
sI2437
I108
sI2439
I128
sI2440
I117
sI2796
I206
sI2445
I122
sI2447
I119
sI2450
I124
sI2627
I141
sI2453
I120
sI2455
I121
sI2460
I123
sI2461
I125
sI2571
I138
sI2468
I126
sI2471
I132
sI2475
I131
sI2807
I210
sI2808
I213
sI2539
I133
s.