(dp1
I0
F-21.493254041102688
sI1
F-20.400807280930096
sI2
F-23.705700291084526
sI3
F-26.244404045553949
sI4
F-18.412455610181752
sI5
F-27.891373323687247
sI6
F-23.883073724521793
sI7
F-22.402307517954767
sI8
F-25.486207618773079
sI9
F-21.232575301257839
sI10
F-21.967100992686937
sI11
F-26.7807977791269
sI12
F-21.807930201581925
sI13
F-13.673603829245593
sI14
F-23.085778146139319
sI15
F-2.1598688869379288
sI16
F-17.070896122427342
sI17
F-24.942174716260354
sI18
F-19.081009927282537
sI19
F-20.410659774288632
sI20
F-26.0400934612924
sI21
F-19.620856664433319
sI23
F-19.986541675149113
sI24
F9.3181010408875977
sI27
F-21.968324249361373
sI29
F-19.405705100157988
sI30
F-21.418117708393126
sI31
F-23.183762805654467
sI33
F-26.234424877172671
sI34
F-20.390160815400321
sI35
F-22.086748975256825
sI36
F-31.738440757532203
sI38
F-10.585468916259771
sI39
F-21.205318146291859
sI40
F-19.861112167692795
sI42
F-7.4589794335249593
sI43
F6.1767574346026777
sI45
F-9.9038494133148589
sI46
F6.9573510996250008
sI47
F-21.338124013913301
sI48
F-36.865578154492141
sI49
F-21.914351253034013
sI51
F-24.550675943683999
sI52
F-21.549145293521008
sI53
F-23.146969476794084
sI55
F-20.828602144779239
sI57
F6.8292476208605848
sI58
F-23.323117917129707
sI59
F-24.291661672819544
sI60
F-10.183740638915964
sI61
F-21.587121725515786
sI62
F-28.500089243713674
sI63
F-23.770861347867637
sI64
F-24.489345834816504
sI65
F-33.336515671315055
sI66
F-27.235789120552241
sI67
F-23.011937461015833
sI68
F-28.610515860795715
sI69
F-21.174238371198157
sI71
F-18.574690807231846
sI72
F-31.200459153211469
sI73
F-29.962230379751333
sI74
F-16.826238738759287
sI78
F-25.346435513785067
sI79
F-18.885006560439791
sI80
F-22.236535031752879
sI81
F-17.197633503573655
sI82
F-27.811719036068283
sI83
F-28.230514761595629
sI84
F-28.326822071407861
sI86
F-23.289012727143728
sI87
F-19.012238315450361
sI88
F-10.60371541932264
sI89
F-17.507401831658456
sI90
F-21.424307502483259
sI92
F-21.061043647650109
sI93
F7.6542634499740814
sI94
F-28.986244522982275
sI95
F-28.0254649133811
sI96
F-13.708216496275412
sI97
F-20.766570826209389
sI98
F-24.597157463898213
sI99
F-22.486912499307522
sI100
F-24.830182745010191
sI101
F-21.580292749315731
sI102
F-19.33018437734286
sI103
F-15.850867175376479
sI104
F-19.036479484947762
sI105
F-24.571401108404501
sI106
F-19.590675958079402
sI107
F-20.202296109732856
sI108
F9.0359791345925089
sI109
F-28.16629999185966
sI110
F-21.217259171433071
sI111
F-29.310401880432224
sI112
F-22.916380077590347
sI113
F-18.919026384835604
sI114
F-21.473850570406682
sI116
F-33.378537709063508
sI117
F-34.447708542684126
sI118
F-13.164251475814595
sI119
F-14.871753018874273
sI120
F-19.094248946697107
sI122
F-18.936896429906298
sI123
F-22.251085150968564
sI124
F-19.93006686463481
sI125
F-26.353094301992741
sI126
F-23.944073188196427
sI128
F-29.980389314454996
sI129
F-23.97083164458715
sI130
F-26.249940589377275
sI131
F-31.360343497883974
sI132
F-20.791443505020013
sI133
F-29.462177627726021
sI134
F-16.441163279897694
sI135
F-3.5760780067219002
sI136
F-35.849176574581847
sI137
F-19.920932059053342
sI138
F-13.726418997132129
sI140
F-22.129136943487055
sI141
F-11.67133660449187
sI142
F-31.321235595922985
sI143
F-22.333099593131152
sI144
F-18.110435891705094
sI145
F-13.636604969806811
sI147
F-7.7719213987674038
sI148
F-16.543178878917587
sI149
F-24.50130756433083
sI150
F-11.787129322056416
sI151
F-13.210214365048671
sI153
F-17.835443828435174
sI154
F-23.087085011261635
sI155
F-19.478448113941482
sI157
F-18.211704506224336
sI158
F-29.449550558510566
sI159
F-22.573044875386046
sI160
F-8.3216686249616174
sI161
F-16.700423592310884
sI162
F-25.778038381423869
sI163
F-21.053927921905341
sI164
F-7.2139123526663695
sI165
F-21.228887208655493
sI166
F-15.865063825501892
sI167
F-24.793371232394776
sI168
F7.5952827833549037
sI169
F-18.684887929776437
sI170
F-18.72470754328566
sI171
F-20.589426275419271
sI172
F-10.794655908461309
sI173
F-7.0450472531683772
sI174
F-34.077799171040141
sI175
F-20.062404141384647
sI176
F-25.798358351270906
sI177
F-19.154175813632293
sI178
F-27.202720032013218
sI179
F-19.696367451330531
sI180
F-20.567857114934938
sI181
F-26.282920329188713
sI183
F-43.24485242188257
sI184
F-27.999671886124858
sI185
F-25.700004009587531
sI186
F-29.638024792113967
sI187
F-24.114170432168905
sI188
F-19.8489841014446
sI189
F-21.564168402256286
sI190
F-29.896432097724187
sI191
F-25.759518715884695
sI193
F-20.296821585723052
sI194
F-14.978963935603531
sI195
F-31.783366452596397
sI196
F-18.886471797336043
sI197
F-19.601112955250471
sI198
F-18.985362382625453
sI199
F-20.292283881260488
sI200
F-22.709463949945103
sI201
F-18.736663378160586
sI202
F-25.807854733741422
sI203
F-20.163363575161355
sI204
F-32.779482666681986
sI205
F-19.588697209692299
sI206
F-19.605934885262855
sI208
F-19.455385912148358
sI209
F-23.839979959116249
sI210
F-20.381639989097465
sI212
F-21.566451836907106
sI213
F-32.540167647185541
sI214
F-15.345958983240152
sI215
F-15.081840921943353
sI216
F-21.24697639405403
sI217
F-32.387035855871702
sI218
F-20.728386184147141
sI219
F-21.18704544474123
sI220
F-20.673697109234297
sI221
F-25.243852356983595
sI222
F-35.16204344416802
sI223
F-25.792535711017067
sI224
F-22.659444136917443
sI225
F-39.295020737764133
sI226
F-32.912333656865982
sI227
F-21.855315186945944
sI228
F-22.192112382311038
sI229
F-22.73375487127484
sI230
F-21.727236633836426
sI231
F-37.686885429855209
sI232
F-24.390548924518868
sI234
F-19.581528897182466
sI235
F-21.471322961132103
sI236
F-32.426586343836675
sI237
F-19.928504004835148
sI238
F-20.127856955084837
sI239
F-34.832223483548916
sI240
F-14.154037808403274
sI241
F-21.543607981488918
sI242
F-21.820225491884059
sI246
F-34.950037887994071
sI247
F-31.078430850322988
sI248
F-13.396260528993722
sI249
F-34.875201713585838
sI251
F-22.493269486863795
sI252
F-28.17203756915498
sI254
F-16.765679477362255
sI258
F-39.390015763834256
sI259
F-34.623406570698606
sI260
F-16.018426976395062
sI261
F-18.64612294792731
sI263
F-27.315182540475774
sI264
F-23.803486514860637
sI265
F-13.427659651903753
sI266
F-20.281688477514194
sI267
F-24.301334779589737
sI269
F-24.974390354554259
sI270
F4.2898337156825193
sI272
F-41.229467935432226
sI274
F-23.56069879750639
sI275
F-23.069115489214539
sI276
F-22.315973918100667
sI278
F-10.421419130407145
sI279
F-40.275658609891025
sI280
F-24.785004228032747
sI281
F-35.156776073153296
sI282
F-29.959118897261703
sI284
F-29.96833804507267
sI285
F-18.866524303060089
sI286
F-18.330620101943381
sI287
F-16.899155751210117
sI289
F7.3073976812698049
sI290
F-19.355646660731054
sI291
F-25.539147740734606
sI294
F-11.772446284849366
sI295
F-18.580576828818167
sI296
F-23.651757262834394
sI297
F-26.677591234765401
sI300
F-23.403930074999963
sI301
F-21.319237312267376
sI302
F-34.189620926676696
sI305
F-22.29170370875265
sI306
F-20.153488035766884
sI307
F-31.012585307170795
sI309
F-23.796203509261261
sI313
F-29.385198429566216
sI314
F-28.896248241436723
sI315
F-32.159465418152863
sI316
F-20.197862378130196
sI317
F-31.291443599010023
sI318
F-24.25591237775221
sI320
F-22.563071842442454
sI321
F-24.997758916511231
sI322
F-20.658184994452029
sI323
F-19.404632628737943
sI324
F-23.753123623370826
sI325
F-19.196132839113858
sI327
F-23.556571401667981
sI328
F-16.457010424116902
sI329
F-28.224729752520929
sI330
F-22.107892770643815
sI331
F-36.564745696328401
sI332
F-21.089322880447199
sI333
F-25.508153923895321
sI335
F-21.778579699399941
s.