(dp1
I1280
(lp2
(cnumpy.core.multiarray
scalar
p3
(cnumpy
dtype
p4
(S'f8'
I0
I1
tRp5
(I3
S'<'
NNNI-1
I-1
I0
tbS'\x13\xf2A\xcff\xdd2@'
tRp6
g3
(g5
S'&\x199\x0b{TT@'
tRp7
tp8
ag3
(g5
S'\x85\xebQ\xb8\x1e\x85/@'
tRp9
a(dp10
I21
(lp11
F-57.279616517349751
aF-21.720383482650249
asI23
(lp12
F-49.985785000542364
aF-29.014214999457636
asasI1281
(lp13
(g3
(g5
S'\xbd:\xc7\x80\xec\xdd2@'
tRp14
g3
(g5
S'du\xab\xe7\xa4[T@'
tRp15
tp16
ag3
(g5
S'\xa8\xc6K7\x89A8@'
tRp17
a(dp18
I24
(lp19
F-59.310243135808648
aF-16.689756864191352
asI22
(lp20
F-54.25753157756111
aF-21.74246842243889
asasI1282
(lp21
(g3
(g5
S'\x02eS\xae\xf0\xde2@'
tRp22
g3
(g5
S'l\xec\x12\xd5[QT@'
tRp23
tp24
ag3
(g5
S'\xc3\xf5(\\\x8f\xc2%@'
tRp25
a(dp26
I23
(lp27
F-58.82595077538528
aF-20.17404922461472
asasI1285
(lp28
(g3
(g5
S's\xa2]\x85\x94\xdf2@'
tRp29
g3
(g5
S'\x9e$]3\xf9VT@'
tRp30
tp31
ag3
(g5
S'\x00\x00\x00\x00\x00\x000@'
tRp32
a(dp33
I24
(lp34
F-60.248916699163942
aF-18.751083300836058
asI26
(lp35
F-54.926301347616231
aF-24.073698652383769
asI20
(lp36
F-59.379476566152817
aF-19.620523433847183
asasI1286
(lp37
(g3
(g5
S'\x80e\xa5I)\xe02@'
tRp38
g3
(g5
S'AH\x160\x81[T@'
tRp39
tp40
ag3
(g5
S'R\xb8\x1e\x85\xebQ0@'
tRp41
a(dp42
I24
(lp43
F-57.680932290547617
aF-21.319067709452383
asI25
(lp44
F-52.482534485027799
aF-26.517465514972201
asasI1287
(lp45
(g3
(g5
S')\xcb\x10\xc7\xba\xe02@'
tRp46
g3
(g5
S'\x15\xa90\xb6\x10ZT@'
tRp47
tp48
ag3
(g5
S"\xdfO\x8d\x97n\x12'@"
tRp49
a(dp50
I24
(lp51
F-50.86040291805547
aF-28.13959708194453
asI22
(lp52
F-59.171142267705008
aF-19.828857732294992
asasI1288
(lp53
(g3
(g5
S'\xd3\xc1\xfa?\x87\xe12@'
tRp54
g3
(g5
S'i\x00o\x81\x04ST@'
tRp55
tp56
ag3
(g5
S'b\x10X9\xb4\xc8\x1e@'
tRp57
a(dp58
I21
(lp59
F-60.705845817206296
aF-19.294154182793704
asI23
(lp60
F-50.517329216435044
aF-29.482670783564956
asasI1289
(lp61
(g3
(g5
S'\xa8\x00\x18\xcf\xa0\xe12@'
tRp62
g3
(g5
S'?\x1d\x8f\x19\xa8TT@'
tRp63
tp64
ag3
(g5
S'\x00\x00\x00\x00\x00\x000@'
tRp65
a(dp66
I26
(lp67
F-56.662996724229799
aF-22.337003275770201
asI23
(lp68
F-51.128751847811202
aF-27.871248152188798
asasI1290
(lp69
(g3
(g5
S'i\xe3\x88\xb5\xf8\xe42@'
tRp70
g3
(g5
S'\x19s\xd7\x12\xf2YT@'
tRp71
tp72
ag3
(g5
S'7\x89A`\xe5\xd0J@'
tRp73
a(dp74
I24
(lp75
F-43.442661132391876
aF-23.557338867608124
asI27
(lp76
F-57.771867520506646
aF-9.2281324794933539
asasI1292
(lp77
(g3
(g5
S'=\x9bU\x9f\xab\xe52@'
tRp78
g3
(g5
S'\x0e\x84d\x01\x13^T@'
tRp79
tp80
ag3
(g5
S'\xe9&1\x08\xac\x1cF@'
tRp81
a(dp82
I25
(lp83
F-58.545101775292537
aF-11.454898224707463
asasI1294
(lp84
(g3
(g5
S'\x82\xc5\xe1\xcc\xaf\xe62@'
tRp85
g3
(g5
S'\x17HP\xfc\x18WT@'
tRp86
tp87
ag3
(g5
S'\x00\x00\x00\x00\x00\x000@'
tRp88
a(dp89
I24
(lp90
F-59.375233585788067
aF-19.624766414211933
asI26
(lp91
F-49.848138572788883
aF-29.151861427211117
asI27
(lp92
F-53.885214110896811
aF-25.114785889103189
asasI1295
(lp93
(g3
(g5
S'Ih\xcb\xb9\x14\xe72@'
tRp94
g3
(g5
S'\xc6\x16\x82\x1c\x94XT@'
tRp95
tp96
ag3
(g5
S'#\xdb\xf9~j\xbc\x14@'
tRp97
a(dp98
I24
(lp99
F-53.4010970258974
aF-26.5989029741026
asI27
(lp100
F-49.395953249855367
aF-30.604046750144633
asasI1296
(lp101
(g3
(g5
S'\x01\x13\xb8u7\xe72@'
tRp102
g3
(g5
S'\x8a\x93\xfb\x1d\x8aTT@'
tRp103
tp104
ag3
(g5
S'#\xdb\xf9~j\xbc\x1c@'
tRp105
a(dp106
I26
(lp107
F-56.606390711493319
aF-23.393609288506681
asasI1297
(lp108
(g3
(g5
S'\x00\xc63h\xe8\xe72@'
tRp109
g3
(g5
S'\x0f\x9c3\xa2\xb4YT@'
tRp110
tp111
ag3
(g5
S'J\x0c\x02+\x87\x169@'
tRp112
a(dp113
I24
(lp114
F-51.306200012500796
aF-22.693799987499204
asI25
(lp115
F-57.879736388086826
aF-16.120263611913174
asI27
(lp116
F-55.066824653150718
aF-18.933175346849282
asasI1301
(lp117
(g3
(g5
S'\xf9\x83\x81\xe7\xde\xeb2@'
tRp118
g3
(g5
S'K\xc8\x07=\x9bUT@'
tRp119
tp120
ag3
(g5
S'R\xb8\x1e\x85\xebQB@'
tRp121
a(dp122
I26
(lp123
F-56.875438013541569
aF-13.124561986458431
asasI1302
(lp124
(g3
(g5
S'\x96C\x8bl\xe7\xeb2@'
tRp125
g3
(g5
S'\x90\x88)\x91D[T@'
tRp126
tp127
ag3
(g5
S'\xe7\xfb\xa9\xf1\xd2MA@'
tRp128
a(dp129
I24
(lp130
F-59.535478190908094
aF-10.464521809091906
asI25
(lp131
F-57.024730768208826
aF-12.975269231791174
asasI1304
(lp132
(g3
(g5
S'\xf8\x8d\xaf=\xb3\xec2@'
tRp133
g3
(g5
S'\x18!<\xda8XT@'
tRp134
tp135
ag3
(g5
S'\x8d\x97n\x12\x83\xc0<@'
tRp136
a(dp137
I24
(lp138
F-59.605976841408534
aF-14.394023158591466
asI26
(lp139
F-59.871306026814707
aF-14.128693973185293
asI27
(lp140
F-48.510822878220054
aF-25.489177121779946
asasI1308
(lp141
(g3
(g5
S'n\xfa\xb3\x1f)\xf22@'
tRp142
g3
(g5
S'\xdf\x89Y/\x86XT@'
tRp143
tp144
ag3
(g5
S'w\xbe\x9f\x1a/\xdd<@'
tRp145
a(dp146
I27
(lp147
F-57.938805269077534
aF-16.061194730922466
asasI1317
(lp148
(g3
(g5
S'\xcf\xdam\x17\x9a\xfb2@'
tRp149
g3
(g5
S'\xb7\x974F\xebXT@'
tRp150
tp151
ag3
(g5
S'V\x0e-\xb2\x9d\xefG@'
tRp152
a(dp153
I28
(lp154
F-52.757268500658498
aF-17.242731499341502
asasI1190
(lp155
(g3
(g5
S'\x13f\xda\xfe\x95\x8d2@'
tRp156
g3
(g5
S'\xe1\xee\xac\xddvUT@'
tRp157
tp158
ag3
(g5
S'\xd3Mb\x10X9\x14@'
tRp159
a(dp160
I0
(lp161
F-50.45220115687323
aF-29.54779884312677
asasI1319
(lp162
(g3
(g5
S'\x11p\x08Uj\xfe2@'
tRp163
g3
(g5
S'\xc6PN\xb4\xabZT@'
tRp164
tp165
ag3
(g5
S'9\xb4\xc8v\xbe\x9f.@'
tRp166
a(dp167
I28
(lp168
F-54.431254451266625
aF-24.568745548733375
asasI1192
(lp169
(g3
(g5
S'X\x1c\xce\xfcj\x8e2@'
tRp170
g3
(g5
S'\xd4\x82\x17}\x05WT@'
tRp171
tp172
ag3
(g5
S'P\x8d\x97n\x12\x83 @'
tRp173
a(dp174
I0
(lp175
F-47.179115820263561
aF-31.820884179736439
asasI1322
(lp176
(g3
(g5
S'\x19\xad\xa3\xaa\t\x023@'
tRp177
g3
(g5
S'\x9c\x8aT\x18[PT@'
tRp178
tp179
ag3
(g5
S'?5^\xbaI\x0c&@'
tRp180
a(dp181
I29
(lp182
F-43.293793385656457
aF-35.706206614343543
asI30
(lp183
F-43.834944990545736
aF-35.165055009454264
asasI1201
(lp184
(g3
(g5
S'XV\x9a\x94\x82\x962@'
tRp185
g3
(g5
S'M\xf3\x8eStVT@'
tRp186
tp187
ag3
(g5
S'}?5^\xbaI<@'
tRp188
a(dp189
I0
(lp190
F-58.091776826021402
aF-15.908223173978598
asasI1203
(lp191
(g3
(g5
S'\xa7\x05/\xfa\n\x9a2@'
tRp192
g3
(g5
S'\x8c-\x049(IT@'
tRp193
tp194
ag3
(g5
S'\x00\x00\x00\x00\x00\x000@'
tRp195
a(dp196
I5
(lp197
F-58.062902909374912
aF-20.937097090625088
asasI1205
(lp198
(g3
(g5
S'\xdeY\xbb\xedB\x9b2@'
tRp199
g3
(g5
S'\x8c\x10\x1em\x1cKT@'
tRp200
tp201
ag3
(g5
S'\xfe\xd4x\xe9&1\x10@'
tRp202
a(dp203
I5
(lp204
F-55.205645261377995
aF-24.794354738622005
asasI1210
(lp205
(g3
(g5
S'\x00o\x81\x04\xc5\x9f2@'
tRp206
g3
(g5
S'j\xc1\x8b\xbe\x82XT@'
tRp207
tp208
ag3
(g5
S'\xc7K7\x89A`?@'
tRp209
a(dp210
I1
(lp211
F-49.808718455920825
aF-24.191281544079175
asasI1211
(lp212
(g3
(g5
S'd#\x10\xaf\xeb\x9f2@'
tRp213
g3
(g5
S'_\xef\xfex\xafRT@'
tRp214
tp215
ag3
(g5
S'=\n\xd7\xa3p=\x1a@'
tRp216
a(dp217
I4
(lp218
F-58.711303270900089
aF-21.288696729099911
asasI1212
(lp219
(g3
(g5
S'\xe2\x1eK\x1f\xba\xa02@'
tRp220
g3
(g5
S'\xdd\xefP\x14\xe8UT@'
tRp221
tp222
ag3
(g5
S'}?5^\xbaI @'
tRp223
a(dp224
I2
(lp225
F-38.979664790726801
aF-41.020335209273199
asI3
(lp226
F-38.94824369269601
aF-41.05175630730399
asasI1213
(lp227
(g3
(g5
S'}\x91\xd0\x96s\xa12@'
tRp228
g3
(g5
S'\xfcR?o*TT@'
tRp229
tp230
ag3
(g5
S'\x9c\xc4 \xb0rh-@'
tRp231
a(dp232
I2
(lp233
F-54.872388098884443
aF-24.127611901115557
asI3
(lp234
F-54.877998624871481
aF-24.122001375128519
asasI1214
(lp235
(g3
(g5
S'\x96C\x8bl\xe7\xa32@'
tRp236
g3
(g5
S'b\x15od\x1eYT@'
tRp237
tp238
ag3
(g5
S'\x9e\xef\xa7\xc6K7\x19@'
tRp239
a(dp240
I1
(lp241
F-54.849383484181615
aF-25.150616515818385
asI6
(lp242
F-47.579353658288241
aF-32.420646341711759
asasI1217
(lp243
(g3
(g5
S'g\xd5\xe7j+\xa62@'
tRp244
g3
(g5
S'\xc5\x03\xca\xa6\\QT@'
tRp245
tp246
ag3
(g5
S'\xb0rh\x91\xed|=@'
tRp247
a(dp248
I4
(lp249
F-56.064010980032251
aF-17.935989019967749
asasI1222
(lp250
(g3
(g5
S')"\xc3*\xde\xb02@'
tRp251
g3
(g5
S'\xc6\xe1\xcc\xaf\xe6RT@'
tRp252
tp253
ag3
(g5
S'%\x06\x81\x95C\x8b\x14@'
tRp254
a(dp255
I7
(lp256
F-60.634568491101845
aF-19.365431508898155
asasI1228
(lp257
(g3
(g5
S'YiR\n\xba\xb52@'
tRp258
g3
(g5
S'\xbc\x96\x90\x0fzXT@'
tRp259
tp260
ag3
(g5
S'T\xe3\xa5\x9b\xc4 ,@'
tRp261
a(dp262
I9
(lp263
F-57.232625563216942
aF-21.767374436783058
asI10
(lp264
F-57.30876594177937
aF-21.69123405822063
asasI1230
(lp265
(g3
(g5
S'\xb9S:X\xff\xb72@'
tRp266
g3
(g5
S'\xedG\x8a\xc8\xb0jT@'
tRp267
tp268
ag3
(g5
S'\xb6\xf3\xfd\xd4x\xe9:@'
tRp269
a(dp270
I8
(lp271
F-39.366162439645692
aF-34.633837560354308
asasI1233
(lp272
(g3
(g5
S"'\x88\xba\x0f@\xba2@"
tRp273
g3
(g5
S'u\xcd\xe4\x9bmRT@'
tRp274
tp275
ag3
(g5
S'\x85\xebQ\xb8\x1e\x85\x1b@'
tRp276
a(dp277
I7
(lp278
F-58.845289817932397
aF-21.154710182067603
asasI1235
(lp279
(g3
(g5
S'\xcd\x1eh\x05\x86\xbc2@'
tRp280
g3
(g5
S'Z\xbb\xedBsQT@'
tRp281
tp282
ag3
(g5
S'\xac\x1cZd;\xdf+@'
tRp283
a(dp284
I14
(lp285
F-58.719218681689824
aF-20.280781318310176
asasI1236
(lp286
(g3
(g5
S'x\x7f\xbcW\xad\xbc2@'
tRp287
g3
(g5
S'\x8f\xc2\xf5(\\YT@'
tRp288
tp289
ag3
(g5
S'ffffff@@'
tRp290
a(dp291
I9
(lp292
F-48.037030454701949
aF-21.962969545298051
asI10
(lp293
F-48.259784562335923
aF-21.740215437664077
asasI1237
(lp294
(g3
(g5
S'\x86 \x07%\xcc\xbc2@'
tRp295
g3
(g5
S'\x16\x13\x9b\x8fk[T@'
tRp296
tp297
ag3
(g5
S'\x00\x00\x00\x00\x00\x000@'
tRp298
a(dp299
I9
(lp300
F-54.843138581564006
aF-24.156861418435994
asI10
(lp301
F-54.713491326618893
aF-24.286508673381107
asasI1239
(lp302
(g3
(g5
S'\xaa+\x9f\xe5y\xc02@'
tRp303
g3
(g5
S'\\\x03[%XRT@'
tRp304
tp305
ag3
(g5
S'B`\xe5\xd0"\xdb;@'
tRp306
a(dp307
I14
(lp308
F-54.71388011485665
aF-19.28611988514335
asasI1240
(lp309
(g3
(g5
S'\xe2;1\xeb\xc5\xc02@'
tRp310
g3
(g5
S'\xeb\xa8j\x82\xa8iT@'
tRp311
tp312
ag3
(g5
S'D\x8bl\xe7\xfb\xa9E@'
tRp313
a(dp314
I12
(lp315
F-47.395301738309982
aF-22.604698261690018
asasI1244
(lp316
(g3
(g5
S'\xd2\x00\xde\x02\t\xc22@'
tRp317
g3
(g5
S'\xb2.n\xa3\x01XT@'
tRp318
tp319
ag3
(g5
S'\xac\x1cZd;\xdf@@'
tRp320
a(dp321
I13
(lp322
F-38.637524615698723
aF-31.362475384301277
asasI1338
(lp323
(g3
(g5
S'\xd9=yX\xa8U3@'
tRp324
g3
(g5
S'\xb1mQf\x83\x84T@'
tRp325
tp326
ag3
(g5
S'\x00\x00\x00\x00\x00\x000@'
tRp327
a(dp328
I31
(lp329
F-56.338683762620235
aF-22.661316237379765
asasI1250
(lp330
(g3
(g5
S'.\xe7R\\U\xc62@'
tRp331
g3
(g5
S'\x01\x13\xb8u7QT@'
tRp332
tp333
ag3
(g5
S'\x9a\x99\x99\x99\x99\x99\t@'
tRp334
a(dp335
I14
(lp336
F-44.734211092087122
aF-35.265788907912878
asasI1339
(lp337
(g3
(g5
S'R\x9b8\xb9\xdfY3@'
tRp338
g3
(g5
S'\x1e\xfe\x9a\xacQ\x83T@'
tRp339
tp340
ag3
(g5
S'\xdb\xf9~j\xbct#@'
tRp341
a(dp342
I31
(lp343
F-41.545444443606058
aF-37.454555556393942
asasI1253
(lp344
(g3
(g5
S'\x9c\x16\xbc\xe8+\xc82@'
tRp345
g3
(g5
S',\xb7\xb4\x1a\x12ST@'
tRp346
tp347
ag3
(g5
S'%\x06\x81\x95C\x8b@@'
tRp348
a(dp349
I14
(lp350
F-54.872615197111685
aF-15.127384802888315
asasI1255
(lp351
(g3
(g5
S'~\x8c\xb9k\t\xc92@'
tRp352
g3
(g5
S'O\x1e\x16jMkT@'
tRp353
tp354
ag3
(g5
S'\x7fj\xbct\x93\x18H@'
tRp355
a(dp356
I12
(lp357
F-59.281507311261905
aF-10.718492688738095
asI15
(lp358
F-34.797298177871355
aF-35.202701822128645
asasI1256
(lp359
(g3
(g5
S'\xb6\xd6\x17\tm\xc92@'
tRp360
g3
(g5
S'(\xb8XQ\x83YT@'
tRp361
tp362
ag3
(g5
S'\xb8\x1e\x85\xebQ\xb8\x1e@'
tRp363
a(dp364
I13
(lp365
F-57.997350607713344
aF-22.002649392286656
asasI1260
(lp366
(g3
(g5
S'<\x83\x86\xfe\t\xce2@'
tRp367
g3
(g5
S'\xbd\x00\xfb\xe8\xd4gT@'
tRp368
tp369
ag3
(g5
S'\xd3Mb\x10X9B@'
tRp370
a(dp371
I16
(lp372
F-51.78424260126252
aF-18.21575739873748
asI17
(lp373
F-49.758845486740057
aF-20.241154513259943
asasI1262
(lp374
(g3
(g5
S'.\xad\x86\xc4=\xce2@'
tRp375
g3
(g5
S'_\x0c\xe5D\xbbhT@'
tRp376
tp377
ag3
(g5
S';\xdfO\x8d\x97n"@'
tRp378
a(dp379
I16
(lp380
F-56.98885765315751
aF-22.01114234684249
asI17
(lp381
F-31.556150788783
aF-47.443849211217
asasI1264
(lp382
(g3
(g5
S'W\x04\xff[\xc9\xce2@'
tRp383
g3
(g5
S'\x1f\x85\xebQ\xb8fT@'
tRp384
tp385
ag3
(g5
S'\x9c\xc4 \xb0rh1@'
tRp386
a(dp387
I16
(lp388
F-44.121305593462139
aF-31.878694406537861
asI17
(lp389
F-57.009402570445303
aF-18.990597429554697
asasI1268
(lp390
(g3
(g5
S'\xa2\x97Q,\xb7\xd42@'
tRp391
g3
(g5
S'I\x85\xb1\x85 [T@'
tRp392
tp393
ag3
(g5
S'\xe1z\x14\xaeG\xe1\xfa?'
tRp394
a(dp395
I22
(lp396
F-51.391737880225605
aF-28.608262119774395
asasI1271
(lp397
(g3
(g5
S'\xb9\xc2\xbb\\\xc4\xd72@'
tRp398
g3
(g5
S'\xa7y\xc7):TT@'
tRp399
tp400
ag3
(g5
S'\xe7\xfb\xa9\xf1\xd2M"@'
tRp401
a(dp402
I21
(lp403
F-47.755459405675538
aF-31.244540594324462
asasI1273
(lp404
(g3
(g5
S'\xf1K\xfd\xbc\xa9\xd82@'
tRp405
g3
(g5
S'\xf8\x88\x98\x12IVT@'
tRp406
tp407
ag3
(g5
S'\x8bl\xe7\xfb\xa9\xf14@'
tRp408
a(dp409
I21
(lp410
F-59.644138140450949
aF-16.355861859549051
asasI1274
(lp411
(g3
(g5
S'\xc6\xe1\xcc\xaf\xe6\xd82@'
tRp412
g3
(g5
S'\xaa\xf1\xd2Mb\\T@'
tRp413
tp414
ag3
(g5
S'{\x14\xaeG\xe1z\x14@'
tRp415
a(dp416
I22
(lp417
F-50.894072948352573
aF-29.105927051647427
asasI1276
(lp418
(g3
(g5
S'\xa8\xa9ek}\xd92@'
tRp419
g3
(g5
S'\xf6]\x11\xfcoQT@'
tRp420
tp421
ag3
(g5
S'm\xe7\xfb\xa9\xf1\xd2!@'
tRp422
a(dp423
I21
(lp424
F-58.592720230210546
aF-20.407279769789454
asasI1277
(lp425
(g3
(g5
S'\x17e6\xc8$\xdb2@'
tRp426
g3
(g5
S'\xfa\x9bP\x88\x80YT@'
tRp427
tp428
ag3
(g5
S'\x98n\x12\x83\xc0\xca\x01@'
tRp429
a(dp430
I24
(lp431
F-58.449271693054413
aF-21.550728306945587
asasI1278
(lp432
(g3
(g5
S'\x95\x82n/i\xdc2@'
tRp433
g3
(g5
S'p\x99\xd3e1]T@'
tRp434
tp435
ag3
(g5
S'q=\n\xd7\xa3p-@'
tRp436
a(dp437
I25
(lp438
F-59.366180318529388
aF-19.633819681470612
asI22
(lp439
F-57.325216755914937
aF-21.674783244085063
asasI1279
(lp440
(g3
(g5
S'0G\x8f\xdf\xdb\xdc2@'
tRp441
g3
(g5
S'\xc9Y\xd8\xd3\x0eST@'
tRp442
tp443
ag3
(g5
S'\xdb\xf9~j\xbct#@'
tRp444
a(dp445
I21
(lp446
F-56.3513551613662
aF-22.6486448386338
asI23
(lp447
F-51.333852957257577
aF-27.666147042742423
asas.