(lp1
I50
aI86
aI111
aI20
aI27
aI84
aI51
aI83
aI123
aI85
aI234
aI227
aI228
aI208
aI224
aI196
aI182
aI198
aI168
aI162
aI133
aI149
aI146
aI148
aI150
aI116
aI98
aI65
aI77
aI126
aI122
aI79
aI87
aI103
aI201
aI209
aI210
aI226
aI195
aI172
aI204
aI222
aI176
aI179
aI205
aI185
aI218
aI189
aI206
aI199
aI93
aI62
aI76
aI108
aI105
aI114
aI230
aI137
aI82
aI56
aI58
aI100
aI101
aI131
aI132
aI129
aI69
aI81
aI110
aI121
aI95
aI136
aI141
aI167
aI211
aI130
aI40
aI88
aI144
aI163
aI157
aI145
aI156
aI212
aI134
aI135
aI191
aI225
aI202
aI187
aI213
aI138
aI1
aI153
aI161
aI233
aI231
aI54
aI102
aI2
aI12
aI13
aI48
aI200
aI186
aI194
aI181
aI223
aI169
aI147
aI165
aI158
aI174
aI143
aI139
aI166
aI61
aI75
aI28
aI117
aI184
aI203
aI197
aI183
aI190
aI170
aI155
aI140
aI173
aI92
aI59
aI115
aI72
aI91
aI0
aI26
aI34
aI42
aI44
aI43
aI80
aI120
aI128
aI118
aI16
aI21
aI24
aI30
aI32
aI33
aI37
aI14
aI41
aI70
aI74
aI219
aI177
aI229
aI175
aI207
aI96
aI104
aI57
aI216
aI220
aI215
aI232
aI52
aI124
aI89
aI66
aI94
aI107
aI125
aI214
aI217
aI180
aI60
aI3
aI49
aI192
aI152
aI171
aI151
aI159
aI22
aI8
aI23
aI36
aI35
aI221
aI38
aI6
aI10
aI11
aI18
aI19
aI39
aI64
aI113
aI160
aI193
aI178
aI188
aI142
aI53
aI73
aI109
aI63
aI71
aI15
aI67
aI127
aI99
aI154
aI164
aI29
aI55
aI25
aI78
aI106
aI47
aI31
aI7
aI45
aI112
aI119
aI97
aI90
aI68
aI4
aI5
a.