(dp1
I2048
I76
sI2050
I62
sI2051
I62
sI2054
I76
sI2055
I81
sI2058
I87
sI2060
I81
sI2064
I81
sI2065
I106
sI2067
I83
sI2071
I106
sI2072
I102
sI2074
I81
sI2076
I106
sI2079
I62
sI2080
I83
sI2081
I88
sI2082
I88
sI2083
I106
sI2086
I83
sI2087
I88
sI2088
I81
sI2089
I106
sI2090
I62
sI2091
I103
sI2092
I102
sI2093
I88
sI2094
I88
sI2095
I83
sI2098
I62
sI2099
I83
sI2100
I62
sI2102
I83
sI2104
I62
sI2110
I75
sI2116
I106
sI2117
I75
sI2119
I83
sI2120
I155
sI2124
I103
sI2125
I83
sI2129
I47
sI2131
I103
sI2132
I47
sI2134
I75
sI2138
I155
sI2144
I139
sI2145
I47
sI2147
I68
sI2148
I85
sI2151
I139
sI2154
I155
sI2155
I75
sI2159
I47
sI2165
I84
sI2166
I155
sI2168
I85
sI2172
I139
sI2173
I139
sI2174
I139
sI2176
I68
sI2179
I84
sI2180
I155
sI2181
I75
sI2182
I68
sI2187
I139
sI2194
I139
sI2196
I85
sI2197
I85
sI2199
I155
sI2207
I85
sI2210
I85
sI2226
I173
sI2227
I142
sI2246
I142
sI2247
I142
sI2257
I146
sI2259
I142
sI2267
I146
sI2276
I161
sI2277
I146
sI2279
I146
sI2282
I161
sI2285
I146
sI2287
I159
sI2288
I161
sI2291
I165
sI2293
I159
sI2298
I161
sI2299
I161
sI2301
I161
sI2304
I172
sI2307
I159
sI2310
I159
sI2311
I161
sI2317
I172
sI2319
I172
sI2320
I169
sI2323
I172
sI2330
I169
sI2331
I172
sI2334
I169
sI2335
I172
sI2337
I137
sI2340
I143
sI2343
I169
sI2345
I137
sI2346
I169
sI2347
I143
sI2349
I143
sI2350
I137
sI2351
I143
sI2359
I169
sI2360
I143
sI2361
I137
sI2362
I137
sI2365
I143
sI2367
I151
sI2370
I151
sI2373
I137
sI2374
I137
sI2375
I158
sI2376
I151
sI2380
I137
sI2386
I7
sI2394
I158
sI2396
I7
sI2398
I158
sI2399
I158
sI2400
I158
sI2404
I7
sI2408
I158
sI2411
I158
sI2412
I7
sI2413
I158
sI2415
I5
sI2417
I7
sI2420
I7
sI2428
I7
sI2431
I5
sI2439
I5
sI2446
I5
sI2447
I27
sI2451
I10
sI2452
I5
sI2454
I21
sI2456
I21
sI2464
I10
sI2466
I10
sI2468
I21
sI2469
I29
sI2470
I27
sI2472
I2
sI2476
I18
sI2479
I19
sI2480
I26
sI2483
I27
sI2484
I19
sI2487
I2
sI2491
I18
sI2492
I2
sI2493
I18
sI2494
I18
sI2496
I27
sI2497
I18
sI2504
I19
sI2505
I18
sI2507
I27
sI2508
I2
sI2509
I19
sI2511
I19
sI2512
I20
sI2513
I26
sI2515
I27
sI2521
I29
sI2522
I2
sI2523
I2
sI2526
I26
sI2527
I29
sI2531
I19
sI2534
I20
sI2536
I29
sI2537
I182
sI2538
I182
sI2541
I182
sI2542
I19
sI2547
I26
sI2553
I20
sI2555
I2
sI2556
I26
sI2557
I182
sI2558
I182
sI2561
I209
sI2562
I20
sI2563
I20
sI2565
I209
sI2566
I2
sI2568
I209
sI2569
I182
sI2573
I20
sI2575
I182
sI2578
I209
sI2579
I20
sI2582
I182
sI2585
I209
sI2586
I182
sI2588
I209
sI2592
I12
sI2594
I1
sI2595
I12
sI2597
I1
sI2598
I209
sI2600
I222
sI2602
I222
sI2603
I202
sI2604
I222
sI2605
I209
sI2606
I209
sI2607
I205
sI2610
I222
sI2611
I12
sI2612
I1
sI2618
I192
sI2619
I12
sI2621
I209
sI2622
I1
sI2623
I220
sI2624
I220
sI2626
I192
sI2627
I12
sI2629
I202
sI2630
I205
sI2631
I25
sI2632
I202
sI2633
I224
sI2639
I192
sI2640
I12
sI2641
I192
sI2642
I202
sI2645
I25
sI2646
I209
sI2648
I224
sI2649
I118
sI2653
I224
sI2655
I192
sI2656
I118
sI2658
I202
sI2659
I203
sI2661
I205
sI2662
I224
sI2663
I224
sI2665
I192
sI2666
I203
sI2668
I203
sI2671
I188
sI2673
I125
sI2676
I202
sI2680
I118
sI2682
I187
sI2683
I117
sI2684
I181
sI2685
I203
sI2686
I224
sI2687
I117
sI2688
I117
sI2690
I203
sI2692
I188
sI2694
I187
sI2698
I188
sI2699
I181
sI2700
I120
sI2701
I117
sI2704
I203
sI2707
I117
sI2708
I125
sI2709
I188
sI2711
I187
sI2715
I187
sI2717
I184
sI2719
I120
sI2721
I117
sI2724
I184
sI2726
I187
sI2732
I208
sI2733
I120
sI2734
I221
sI2737
I184
sI2738
I124
sI2739
I187
sI2740
I208
sI2745
I187
sI2749
I123
sI2750
I124
sI2752
I221
sI2756
I184
sI2758
I187
sI2761
I214
sI2762
I123
sI2763
I214
sI2765
I221
sI2766
I123
sI2767
I214
sI2769
I124
sI2772
I210
sI2775
I110
sI2776
I128
sI2777
I123
sI2780
I214
sI2781
I210
sI2782
I221
sI2783
I124
sI2784
I214
sI2785
I214
sI2786
I210
sI2787
I214
sI2788
I221
sI2789
I221
sI2790
I124
sI2793
I189
sI2794
I115
sI2796
I115
sI2798
I114
sI2799
I189
sI2803
I214
sI2804
I221
sI2805
I110
sI2810
I189
sI2811
I114
sI2812
I223
sI2813
I110
sI2814
I189
sI2815
I221
sI2820
I110
sI2821
I214
sI2823
I189
sI2824
I189
sI2829
I115
sI2830
I189
sI2832
I114
sI2834
I114
sI2838
I223
sI2845
I189
sI2847
I223
sI2848
I111
sI2851
I189
sI2855
I114
sI2856
I111
sI2858
I111
sI2863
I223
sI2867
I111
sI2868
I111
sI2871
I223
sI2873
I111
sI1597
I241
sI1606
I241
sI1614
I228
sI1621
I241
sI1628
I228
sI1643
I231
sI1645
I228
sI1646
I228
sI1655
I228
sI1659
I46
sI1662
I228
sI1669
I231
sI1671
I231
sI1681
I46
sI1692
I231
sI1694
I46
sI1706
I233
sI1713
I231
sI1720
I98
sI1736
I98
sI1740
I238
sI1744
I98
sI1745
I98
sI1747
I98
sI1752
I238
sI1753
I233
sI1771
I238
sI1777
I233
sI1786
I236
sI1789
I37
sI1793
I37
sI1796
I236
sI1800
I236
sI1802
I37
sI1804
I236
sI1812
I236
sI1813
I37
sI1816
I236
sI1822
I236
sI1824
I227
sI1827
I236
sI1829
I232
sI1833
I236
sI1836
I232
sI1839
I232
sI1842
I229
sI1849
I236
sI1852
I36
sI1854
I232
sI1855
I227
sI1856
I236
sI1857
I227
sI1860
I36
sI1867
I232
sI1870
I97
sI1872
I227
sI1876
I36
sI1877
I36
sI1878
I36
sI1887
I97
sI1893
I97
sI1902
I229
sI1905
I97
sI1907
I94
sI1908
I94
sI1912
I107
sI1914
I80
sI1918
I80
sI1919
I80
sI1920
I97
sI1923
I54
sI1924
I80
sI1927
I80
sI1928
I97
sI1930
I101
sI1934
I101
sI1937
I80
sI1938
I99
sI1943
I101
sI1952
I99
sI1960
I70
sI1961
I99
sI1964
I107
sI1965
I70
sI1970
I51
sI1972
I51
sI1973
I99
sI1975
I107
sI1978
I99
sI1979
I52
sI1983
I101
sI1984
I101
sI1985
I51
sI1987
I52
sI1989
I70
sI1992
I107
sI1993
I99
sI1994
I99
sI1995
I51
sI1998
I70
sI1999
I52
sI2002
I76
sI2004
I70
sI2005
I51
sI2006
I70
sI2012
I76
sI2014
I87
sI2015
I70
sI2016
I87
sI2017
I87
sI2019
I87
sI2020
I52
sI2022
I87
sI2023
I87
sI2024
I51
sI2025
I76
sI2026
I87
sI2031
I106
sI2033
I87
sI2035
I76
sI2042
I87
sI2046
I76
sI2047
I81
s.