(dp1
I0
(lp2
F-37.065100105428343
aF-25.500549408967387
aF-29.003500501946192
aF-9.3863288707809147
aF-10.180825706994568
aF-18.645723155465589
aF-14.667299228426913
aF-21.246594099345927
aF-11.866558503766186
aF-16.062243883335725
aF-19.136256336336658
asI1
(lp3
F-6.2751642828306444
aF-29.306770040885198
aF-28.886486572032311
aF-35.285358644459819
aF-10.958108186483358
aF-13.084075553478684
aF-20.612945594951839
aF-16.743588307116426
aF-22.926228246454016
aF-12.601274949962445
aF-17.898040391424061
aF-20.61736117434431
asI2
(lp4
F-22.487303775200488
aF-19.214462772355375
aF0.53233030259804082
aF-27.775636170569157
aF-11.017414571538367
aF-30.856293554824148
aF-19.514274778124815
aF-19.774353081527323
aF-9.0842922148907093
aF-17.913661237622847
aF-22.61292503515898
aF-10.112702400310312
aF-19.014354843254665
asI3
(lp5
F-19.066528264423113
aF-9.7554441029432439
aF-12.926691110681389
aF-24.074551832140102
aF-13.43636630421976
aF-21.265685654819549
aF-15.854949448430943
aF-22.880137993714698
aF-12.503026288286549
aF-19.51763622726483
asI4
(lp6
F-6.3270729036745195
aF-19.489263298072302
aF-27.009348205228918
aF-23.333210244699004
aF5.5932628170129135
aF-20.995697563894197
aF-19.590856131241281
aF-25.272293691041966
aF-16.703358317858061
aF-27.142047246999084
aF-16.277795211674913
aF-21.528017983028832
aF-9.7013035944204091
aF-22.273403683082449
aF-20.735598705713443
aF-21.269287268204636
asI5
(lp7
F-10.631457186007594
aF-20.251381156485166
aF-10.076710462249508
aF-23.436247822658004
aF-23.355100367567047
aF-30.104445741968362
aF-10.326890909382257
aF-13.940156658027917
aF-39.672607912051674
aF-18.00184770380713
aF-32.543357290048831
aF-18.658490873115639
aF-21.297103851660012
aF-26.363769520673827
asI6
(lp8
F-19.503756922961117
aF-7.6635622210681476
aF-19.098098285018438
aF-1.0562613804150658
aF-18.169911219655461
aF-8.8553509387813847
aF-35.65129295343236
aF-18.34445245994678
aF-30.226416380040376
aF-13.265700220590873
aF-17.952289083378218
aF-30.481108421487278
aF-14.481958724506555
aF-23.242939751849292
asI7
(lp9
F-12.096679754539053
aF-21.998182012684836
aF-10.269365284688092
aF-22.295682973854937
aF-20.928021802564587
aF-25.968460661875383
aF-10.911442717796547
aF-30.600941629222177
aF-16.000120075962784
aF-32.874148481318116
aF-25.428538603647922
aF-19.735574335586051
aF-26.515654533439829
asI8
(lp10
F-24.023342775849827
aF-20.808887033776458
aF-6.7909414180942633
aF1.6573550442918759
aF-9.8626941727831365
aF-21.071327663051903
aF-19.803994258921406
aF-21.848256638044774
aF-23.651863772184129
aF-17.133066257016893
aF-16.02711489346143
aF-21.69747760347957
aF-21.815820696298402
asI9
(lp11
F-8.7701363795801797
aF-12.819085655400201
aF-7.2452575875631311
aF-20.33037510687052
aF-13.441636787353588
aF-21.490488080111191
aF-21.066107872658847
aF6.6973658809752123
aF-15.682576167026127
aF-15.02517489211948
aF-24.204881314700458
aF-16.621723773350766
aF-28.311676203106416
aF-16.677330898875994
aF-6.4806888778949769
aF-22.762722241589131
aF-10.317231957719642
aF-29.948680416213449
aF-22.501662136007667
aF-24.27714246967065
aF-9.9888645827924449
aF-20.704917875642792
asI10
(lp12
F-22.524885966316873
aF-9.6130500189500339
aF-18.722857279230766
aF-19.803485440181106
aF0.776600430594101
aF-13.513555661211058
aF-6.601277640283584
aF-26.445356360195802
aF-15.652186756526632
aF-29.598606424130296
aF-16.834213718904479
aF-16.330281630276431
aF-37.920931766319015
aF-19.886742751451052
aF-26.866726686142584
asI11
(lp13
F-15.156463886734187
aF-22.22899868655557
aF-14.548886660821012
aF-19.392929992700005
aF-1.5244146817462365
aF-15.162186487602256
aF-14.148206894844293
aF-19.007936467338808
aF-20.606791229669383
aF-22.939823244479783
aF-10.726630473770754
aF-13.065410089053131
aF-18.91574968785801
aF-21.836909113427623
aF-19.69252252069785
aF-31.645691849803569
aF-15.669536535141063
aF-27.28065248333067
aF-40.899595193630574
asI12
(lp14
F-26.077527683566274
aF-20.685250611774819
aF-22.87680250205895
aF-20.023412196607552
aF-30.751691283604501
aF-30.263384733284326
aF-27.885075913144362
aF-24.197403136793241
aF-22.612583157190713
asI13
(lp15
F-7.0688287038463216
aF-19.170075933038689
aF-13.484654199076857
aF-11.976760200931494
aF-23.949185117037601
aF-13.84182058344328
aF-20.540632247058113
aF-15.045647132401413
aF-18.71764506149492
aF6.5184565693480465
aF-12.676074764904058
aF-8.8956837388080601
aF-23.282117453768549
aF-18.724313537819668
aF-18.164260685616128
aF-8.1264473371140156
aF-19.114273526730699
aF-21.261565173319568
aF-26.063569189734181
aF-20.784451250833257
aF-13.328220089297716
aF-26.104624903498049
asI14
(lp16
F-21.334382206781569
aF-25.324757875098669
aF-27.226430836981905
aF-25.078352535679187
aF-23.414754497973064
aF-23.025622519195736
aF-6.6760284249999984
aF-21.91771379622557
aF-9.7407116616180645
aF-21.418019564794889
aF-33.33256743773309
aF-32.318565417578967
asI15
(lp17
F-28.777284945137708
aF-29.966838949610064
aF-14.733973053293582
aF-18.723002695123768
aF-5.4730275700393491
aF-17.338766474834216
aF-14.935029636982534
aF-19.9096694022017
aF-0.62412915335514185
aF-8.017889988527898
aF-18.59551709101116
aF-14.677227312405734
aF-26.497588706181944
aF-17.071567408228418
aF-19.562354780503568
aF-28.720882271887191
asI16
(lp18
F-34.955191379031774
aF-23.0356439344541
aF-12.083216066971943
aF-18.767646521964167
aF-18.843683842039582
aF-23.906714163748418
aF-19.388163634675948
aF-18.462201244601133
aF6.4382598209228803
aF-19.377613281091385
aF-17.206992668010912
aF-11.920989684779656
aF-23.93777679694584
aF-23.375908161854909
aF-15.845336166344282
aF-22.088559600339678
aF-27.286850367475282
asI17
(lp19
F-46.593473736176932
aF-25.849479051705828
aF-9.9488959794532548
aF-20.284777970784091
aF-22.86596418305416
aF-19.948231216276113
aF-18.82063776585133
aF7.0175028248613955
aF-15.895881904564447
aF-11.304082538891976
aF-21.94190787555425
aF-19.044604207061582
aF-17.516992234910987
aF-24.629537067764147
aF-23.977394852534033
asI18
(lp20
F-27.564819338101231
aF-20.522984799268002
aF-15.510069584017231
aF-20.719207938429975
aF-24.845345904740313
aF-18.627050024455372
aF-19.076597805348413
aF6.349923369484884
aF-9.3213981356779243
aF-20.389753799851945
aF-18.083212685633129
aF-11.211009629581781
aF-26.003710690702462
aF-23.352153033156384
aF-19.726412299051518
aF-34.250936691850853
asI19
(lp21
F-23.283985276673832
aF-24.092783448784104
aF-33.698901035758198
aF-25.519767594836964
aF-25.636966402772771
aF-19.647965759110605
aF-18.340364183685452
aF-20.560449441594727
aF-6.9936606361866609
aF-19.887721189499928
aF-10.764636773020939
aF-19.300976193307861
aF-27.551707512179007
aF-38.532564947329504
asI20
(lp22
F-25.540082150882711
aF-19.956110675489981
aF-20.746239674846564
aF-22.21559794713697
aF-28.541594510843737
aF-13.426517431108749
aF-19.646300177253451
aF-21.066713923849449
aF-19.073071396796763
aF-18.897761819099628
aF-15.802118230912114
aF-8.6621419546803367
aF-23.233685155964722
aF-17.45535743953981
aF-18.87465136662496
aF-30.394458288633331
asI21
(lp23
F-11.589891854962559
aF-20.796588952247674
aF-29.718001865761508
aF-8.9653816168949447
aF-27.819973166629126
aF-3.56403611820582
aF-21.256074504544614
aF-22.364501202574957
aF-20.349559093020218
aF-22.216288804143119
aF-6.8137841026276078
aF-7.005736937782487
aF-13.706896414098082
aF-15.220643631343137
aF-20.426807771691443
aF-9.5263180982804272
aF-19.980947346925021
aF-23.202523333712122
aF-19.802076207309753
asI22
(lp24
F-32.017598416696643
aF-31.747115377244583
asI23
(lp25
F-12.918397144707669
aF-26.071942316099623
aF-15.912586158765293
aF-20.287919324919315
aF-17.62338837791259
aF-26.041922485316675
aF-19.277315983677028
aF-7.1657046702252387
aF-21.796350840152996
aF-7.674332445174926
aF-13.780700120816903
aF-19.395516509794234
aF-10.164481658454307
aF-15.802751563021545
aF-21.12178130850711
asI24
(lp26
F-8.1257734507111365
aF-18.800119294523171
aF-17.877560659797652
aF-9.7689516067108855
aF-30.757263923035055
aF-2.9260691140212316
aF-21.600791646031965
aF-20.768600883529288
aF-31.324372235080887
aF-24.39354566935144
aF-28.164801232014355
aF-10.134349216063185
aF-19.631631130027387
aF-16.161968043542856
aF-19.296947472118902
aF-19.332721712060533
asI25
(lp27
F-10.751933161047816
aF-22.16728498053854
aF-18.36126426035915
aF-23.250513045339943
aF-8.6842404222929588
aF-42.191081648616716
aF-25.586422625391108
aF-20.092203938975501
aF-25.117175083417251
aF-8.1423658387861337
aF-20.534982146375853
aF-9.8241041347276905
aF-13.715127866003172
aF-18.470300278331393
aF-15.962145690809635
aF-20.385234066776206
asI26
(lp28
F-24.251441289114638
aF-19.341815197861834
aF-25.995394907608215
aF-24.197512761094359
aF1.6955802141806942
aF-18.533358606994909
aF5.5952777616626292
aF-18.524009317551815
aF-18.353808389082673
aF-17.721493257476624
aF-18.887045746394605
asI27
(lp29
F-14.394680279001435
aF-9.245141543664829
aF-27.243214999643641
aF-2.0061712094771877
aF-19.628042060815915
aF-21.171411082701269
aF-26.314039251568943
aF-27.054719747069498
aF-34.112680644505261
aF-4.4889465388875607
aF-12.590136026038863
aF-21.554417638629474
aF-18.946225471345187
aF-18.535089968051707
asI28
(lp30
F-8.1501158406236556
aF-20.702156489578542
aF-13.324295324917017
aF-8.4387947391980163
aF-23.983125658400041
aF-19.404853222354831
aF-25.191075170463535
aF-18.121221400909207
aF-23.241146358059638
aF-12.119757871947485
aF-16.691144901427919
aF-18.808525272338528
asI29
(lp31
F-10.418274184917266
aF-11.888014812039131
aF-24.389074509027623
aF-14.257345750993551
aF-26.367733781912889
aF-17.379304140358272
aF-18.808521492119411
aF-40.955724096123078
aF-24.292513105055718
aF-19.218921813457115
aF-9.3414883016522481
aF-25.944870917605485
aF-20.904887001620224
aF-19.855510321368342
asI30
(lp32
F-8.6447552391564813
aF-20.175467815588775
aF-24.680571927134224
aF-14.296888940619411
aF-20.103627162297897
aF-28.074804032872819
aF-21.493056952055554
aF-21.041933070125566
aF-8.5552788936460331
aF-33.621878788602885
aF-24.36833279205571
aF6.9256510150929671
aF-21.309233937664715
asI31
(lp33
F-18.905002467205534
aF-5.0473095169671183
aF-16.078157816975448
aF-19.677628710651746
aF-9.1701123990927726
aF-33.554501643936888
aF-8.9765064882939782
aF-23.064196227780116
aF-10.062784902168318
aF-22.092379927515026
aF-20.25591197776302
aF-15.999830901724522
aF-19.498278060743743
aF-19.028762769476984
asI32
(lp34
F-9.8012124514377206
aF-20.145098276738281
aF-0.76708105670250859
aF-17.965710310766866
aF-23.249480898580799
aF-28.698121253081354
aF-5.6699534229732933
aF-28.96936999716759
aF-22.709284676551277
aF-15.464159041446948
aF-21.777005733990336
aF-19.542698874212164
aF-17.522019463189707
aF-18.600742197866481
aF-20.290782729082395
aF-18.626642206441829
asI33
(lp35
F-21.288210936929289
aF-25.231674281319741
aF-18.758751686243599
aF-28.430015362855713
aF-21.230450164676
aF-20.100613908856573
aF-23.551307185577684
aF-0.58116474053849743
aF-21.438218535066255
aF-11.166396822092665
aF-19.230344560066271
asI34
(lp36
F-18.701542775903846
aF7.9447626683551675
aF-18.370733424383545
aF-18.433475501772691
aF-14.416424801754843
aF-22.01753904415898
aF7.2400185856119776
aF-21.904899823102625
aF-10.747873097161616
asI35
(lp37
F-1.5413411097414667
aF-14.225562053287547
aF-19.982693408107195
aF-6.6897503412994013
aF-25.726942250062081
aF-10.97263090297821
aF-31.386786457842121
aF-27.669205450810409
aF-22.860114202750566
aF-20.104314238316434
aF-23.491087706664558
aF-13.474964562583068
aF-19.464063946853116
aF-21.852530115973224
aF-18.393881238571439
aF-16.689281555617697
aF7.3799901680071969
aF-18.383291586789142
asI36
(lp38
F-22.841679662294737
aF-24.546741684356562
aF5.2031574106536311
aF-30.670528246380456
aF-3.4115286633276298
aF-19.867158934415599
aF-13.43465365171312
aF-19.33930165443563
aF-9.5117405028387338
aF-0.74944084409889911
asI37
(lp39
F-18.654089690655624
aF-21.299032495364855
aF-22.111275894209712
aF1.3066813485744433
aF-30.849161559775538
aF1.5699291512190143
aF-18.530762942469138
aF-12.47538011770915
aF-10.93292410516483
aF-0.79380851798893559
asI38
(lp40
F-14.082878546875591
aF-19.765423133167417
aF-22.175163307730031
aF-3.2183932404817881
aF-16.099030264668613
aF-21.094594102141926
aF-16.532141272171131
aF-22.444632503253473
aF-22.081833975875838
aF-18.883609918480403
aF-18.582674606663261
aF-22.166402471378149
aF-21.599354012471181
aF-24.850319166380501
aF-18.845161040805905
aF-21.166797364042509
aF-21.659949014707948
aF6.0977492581090758
asI39
(lp41
F-1.355085890284812
aF-25.944049679117967
aF-21.268561106405144
aF-25.552073386526061
aF-24.566599353355826
aF-26.893440324446416
aF-16.532690491428653
aF-21.913687309920164
aF-19.01036501895392
aF-23.675355236685476
aF5.9348687343450024
aF-17.597656413732651
aF-18.359754383712101
aF-18.695273741916836
aF-18.523132387041301
asI40
(lp42
F-19.251775710059064
aF-18.553661969774979
aF-20.710653195524742
aF-22.772561948772335
aF-24.484029001571884
aF-21.55767294615012
aF-0.8004908969569442
aF-30.354502626376728
aF-13.127872634964859
aF-20.737526649078305
aF-24.413256602377089
aF-0.30353021749722586
aF-14.696892733224473
aF-14.417180594262476
aF-18.843552777295841
asI41
(lp43
F-2.6657688377796944
aF-21.643727256831141
aF7.5959808734211407
aF-27.085201375263978
aF-10.014394627128638
aF-15.197687186676632
aF-0.89054291268477925
aF-21.192529485976678
aF-19.884784492876321
aF-20.282667810860346
asI42
(lp44
F-19.329667029069185
aF-7.6125692820682502
aF-24.25828688858067
aF-33.370446720955684
aF6.0104758054237948
aF-30.670608352051005
aF-15.836535257714019
aF-22.377213518849913
aF-9.4011301091388759
aF-26.895979939574019
aF-22.711667186781824
aF-20.274997754786312
aF-16.315886872843691
aF-19.059068432759858
asI43
(lp45
F-20.127401255180786
aF-19.544211818355166
aF-18.507530427024108
aF-0.76634866408605262
aF-21.622051072813861
aF-6.6784371812498904
aF-20.859832294561471
aF-12.341211577162426
aF-34.635868929265825
aF-33.171247083249554
aF-21.980541570138044
aF-31.520254458139561
aF-17.164226085165183
aF-19.948740916755071
aF-32.477534569428258
aF6.9352658288543125
aF-19.953012621048615
aF-23.298867557095974
aF4.1823105044369413
aF-23.285612033595697
aF-21.505822757543399
asI44
(lp46
F-19.511451717712788
aF-18.666426140328497
aF-18.904200025508473
aF6.1251454680982818
aF-29.758973368363542
aF-2.0236831245333633
aF-20.110876689876292
aF-23.438995948940672
aF-22.176860961865785
aF-13.177838493765421
aF-6.4022971436782683
aF-22.061557234093272
aF-17.037614721095878
aF-18.614676617589538
aF-21.014259222555467
asI45
(lp47
F-20.267313701223145
aF-21.496290295849178
aF-0.68852394756549984
aF-8.8149788454002476
aF-17.645811321425896
aF-18.529755936027172
aF-27.419657541522156
aF-22.730562330384885
aF-44.539514940861068
aF-30.534001309490748
aF-26.270977226725989
aF-24.050149694660277
aF-20.279757946902905
aF-25.353920189062706
aF-20.585764349261495
aF0.27492191879123595
aF-22.968507882644133
aF-19.643424395533074
asI46
(lp48
F-21.057311332886229
aF-20.826126106748291
aF-18.509710174922532
aF-0.48358664715600241
aF-20.391434550947878
aF-7.1603079472030515
aF-19.353973510386965
aF-9.870900668186664
aF-33.358221713525637
aF-28.078651598831755
aF-25.423699683668744
aF-43.23470811791158
aF-15.488579521060473
aF-21.7840981630507
aF-30.378964289718112
aF-21.878536978556781
aF-24.214029588195899
aF1.9547794222452097
aF-24.648479736931435
aF-21.660658866528692
asI47
(lp49
F-20.42549108649574
aF-8.6031646430288049
aF-20.266504622963652
aF-24.226419788635994
aF-19.318042161523266
aF-21.951963713630178
aF-20.926874804002878
aF-20.290687891120328
aF-33.118820918492489
aF-29.935580628894854
aF-19.363861011920022
aF-26.881623807853927
aF3.9618504997551298
aF-18.449248854565838
aF-15.88473546220996
asI48
(lp50
F-19.558166458401203
aF-19.705521547247798
aF-19.786943858536247
aF-14.180805919819406
aF-20.462448737538452
aF-24.894132140942332
aF-19.949385316334883
aF-41.58776974471634
aF-23.1819270710495
aF-2.211196591934609
aF-24.370364809425951
aF3.6575313905042321
aF-20.961644060904646
aF-20.179218072944138
asI49
(lp51
F-21.613690365809418
aF-7.0837232026900097
aF-19.001030558537693
aF-22.589545898205387
aF-18.771844727443792
aF-21.528935693645735
aF-20.232046546772551
aF-20.026850593947557
aF-32.155080560659329
aF-32.054669815071207
aF-19.760362604370613
aF-29.049778400344806
aF3.0642288985818595
aF-18.87279931431209
aF-17.237726523172824
aF-19.083236263843759
asI50
(lp52
F-16.39718905352224
aF-20.60729704057681
aF-20.562549988650005
aF5.4029198990898237
aF-21.412714563384569
aF6.9333306173470532
aF-22.002543641940747
aF-13.212526160349327
aF-36.881754184660679
aF-6.6716878236422303
aF-25.033125505255867
aF-28.011633859279726
aF-14.59381227346573
aF-24.036112229824539
aF-20.381407501880233
asI51
(lp53
F-20.429431276600951
aF-22.476201538576106
aF-21.009988403670206
aF-19.315368752582856
aF2.5256154402723325
aF-9.0268480802339752
aF-20.7167031165651
aF-23.249004951669534
aF-20.095959754244987
aF-24.768295097664065
aF-16.433956613904925
aF-32.975968631355556
aF-2.7673320270836115
aF-20.508322964634942
aF-24.560494080669258
asI52
(lp54
F-24.577381537032082
aF-24.894415636198744
aF-19.568304065493976
aF-10.721178501796629
aF-15.196901286411531
aF-6.7801531941422581
aF-24.567341525496929
aF-23.236665683221048
aF-25.057954495810336
aF-29.983319087101407
aF-23.619172618923244
aF-25.94939598078841
aF-19.174057076168424
aF-25.53848743997716
aF-25.525354375208479
aF-5.9355391090306
aF-29.320909697856777
aF-23.055180784169011
asI53
(lp55
F-24.070981040272201
aF-22.380212260127422
aF-21.276312953294138
aF1.80570271173832
aF-9.8321223949834859
aF-21.944766714281641
aF3.5219479906242555
aF-19.869398088658784
aF-23.035478312886568
aF-24.567974981802024
aF-12.667572273411139
aF-13.05646427159617
aF-15.116415566094233
aF-24.614362534936703
aF-24.591970207668908
aF-22.186235028561242
aF-27.506501631284465
asI54
(lp56
F-22.240042289906967
aF-26.714604761928385
aF-9.3970670765130677
aF-0.8650349948240148
aF-18.479024006517932
aF-20.763489153550665
aF-19.128549400916015
aF-22.952867813140131
aF-23.349588304648336
aF-28.257062271547028
aF-20.619095735805701
aF-22.93431872748458
aF-37.826868359782523
aF-19.063343974855428
aF-6.538240050422047
aF-23.508407222960386
aF-14.353068826636672
aF-19.630636567687958
asI55
(lp57
F-23.79011686957864
aF-21.958716405829392
aF-21.723397951401466
aF1.2609886524181206
aF-9.6844012154418238
aF-20.850139971149758
aF3.9281160386455127
aF-20.780628291234734
aF-20.16613237359752
aF-26.941393190712489
aF-11.038424634943937
aF-9.5623180774841927
aF-16.784869907512302
aF-22.721179366379417
aF-28.443666352627162
aF-24.266036688618271
aF-28.0213321004791
asI56
(lp58
F-20.208074223484232
aF-18.887094311778611
aF-20.100094749545036
aF1.8457786602196791
aF-19.657258401818169
aF5.6555203736941166
aF-23.542247062904664
aF-13.599018894266806
aF-22.439172465600421
aF-32.898889722715566
aF-2.9214311657503345
aF-24.282634754982439
aF-18.361567016726596
aF-21.362410279867191
aF-29.70456332072105
aF-22.888787543820939
asI57
(lp59
F-27.413525451781226
aF-27.445207980744328
aF-20.514711130149891
aF-12.170187325899249
aF-0.80548124082611139
aF-13.778449871122916
aF-22.367943881243434
aF-21.929449564546942
aF-22.016133525649082
aF-26.270277945632216
aF-22.595067941028944
aF-24.431857943717318
aF-18.893185231650833
aF-25.235146023829785
aF-25.226198991508767
aF-8.3593476735417056
aF-32.289289757543017
aF-24.136908524961342
asI58
(lp60
F-18.483013869883109
aF-23.059905547084611
aF-27.063753943687487
aF-23.21362808514121
aF-10.058203328252546
aF-21.985272625328378
aF-0.042764896335711455
aF-18.37544152901458
aF-10.084335266408118
aF-9.4516188003219952
aF-7.0536574505367184
aF-19.797799294605838
aF-19.523070955556079
aF-19.737775896170092
aF-4.4893526784115494
aF-16.782736548412515
aF-37.300836881678066
aF-18.874547886908374
aF-5.8518287095293857
aF-22.005648439097726
aF-28.27393191802804
asI59
(lp61
F-21.220393679795507
aF-21.103123676513633
aF-21.714778914199314
aF-18.406120351409669
aF-10.595137213100529
aF-9.5230561573449961
aF-16.433473191437912
aF-21.176001458276119
aF-10.515378339364702
aF-20.504619190948205
aF-4.8352540396374195
aF-30.839811015447779
aF-27.635460917032873
aF-13.637077133883366
aF-30.178875502274749
aF-19.947026740606503
asI60
(lp62
F-22.221688537227053
aF-20.604748973343376
aF-22.318443562757693
aF-0.069258812810588211
aF-9.2992281323109864
aF-10.315047868314736
aF-19.093361482681729
aF6.5639741314718094
aF-21.114742672916165
aF-13.621810198330309
aF-20.43744235841217
aF-28.006644332133234
aF-4.1811675069033072
aF-22.242307488167114
aF-19.402687525870292
aF-24.994586726443231
aF-33.917982236679777
aF-25.581909607095866
asI61
(lp63
F-21.501461842556381
aF-26.853876471320831
aF-26.046508837021236
aF-23.156858974161622
aF0.22555879963859127
aF-10.450746169280052
aF-10.387389670634917
aF-17.38268349006573
aF-1.773512491183638
aF-34.735044489831964
aF-14.987191096277769
aF-20.118529676032125
aF-34.337402033276561
asI62
(lp64
F-24.507051756387767
aF-22.587028393735949
aF-25.725387912792428
aF-3.0681666773431573
aF-11.154327217030612
aF-9.8005214502492635
aF-12.544891132598423
aF-20.773605239476822
aF-20.158098974878669
aF-18.878154074638246
aF-12.332900418434747
aF-18.63051032391067
aF-23.753410391821816
aF-4.5039660596669933
aF-19.423160212974153
aF-19.997634054607829
aF-25.060045090141543
aF-31.558804872714262
aF-27.99515596253373
asI63
(lp65
F-22.190693427999491
aF-30.218034247786491
aF-28.831420236022439
aF-9.7164275318415889
aF-26.322846159947716
aF-1.5364366807953047
aF-18.881106316639261
aF-12.319446698805663
aF-12.255250078831139
aF-19.235435711539793
aF-18.528135186915748
aF-15.551873453431767
aF1.6664764404127794
aF-28.380702348411376
aF-4.788830944113073
aF-20.035007426837467
aF-38.302043236895372
asI64
(lp66
F-21.261133117289688
aF-18.476925401395548
aF2.07969857258351
aF-2.2468996085117823
aF-9.9174779954897758
aF-20.909889517526324
aF-18.751122743333184
aF-18.492705066613411
aF-18.510738864438437
aF-19.465292838281187
aF-21.985119732424138
aF-20.43475100186005
aF-20.691921868718083
aF7.0773429760172064
aF-22.508115075029011
aF-14.581793690957255
aF-24.877351015103415
aF-18.456429860659696
asI65
(lp67
F-40.762746871037805
aF-32.566224785957175
aF-31.038518136852844
aF-4.3410367978091671
aF-16.156586720220986
aF-13.538895875155916
aF-15.318204710286921
aF-12.498532247562636
aF-19.145375358021028
aF-22.693338129306241
aF-19.228230743256773
aF-19.225141086628923
aF-12.249856281056395
aF-20.049460999311535
aF-10.820352532981758
aF-7.9531058788809048
aF-14.143215083455885
aF-24.262159382761098
aF-21.806760113007513
aF-22.24943703911417
aF-33.211630242338131
asI66
(lp68
F-25.448030327077163
aF-19.059543931839315
aF1.042663552750895
aF-10.291849363480196
aF-24.556924788759858
aF-18.820029202330375
aF-25.88197850303348
asI67
(lp69
F-28.403922836434447
aF-23.959791833460628
aF-27.284059805322769
aF-20.916214539205868
aF-33.963262109727026
aF-18.636039587178516
aF-2.3993374752671031
aF-2.7209109937687117
aF-27.031898385341009
aF-10.669364143526252
aF-4.1157213201140905
aF-18.536667725610926
aF-8.7241763111971977
aF-14.331957102031438
aF-18.487978959251905
aF-19.326087921541941
aF-9.7538339423589946
aF-18.780038603928944
aF5.3574120855018634
aF-23.737680669335759
aF-25.732856372178134
asI68
(lp70
F-22.224361033105325
aF-29.084859925953083
aF-11.578236414093411
aF-11.496544883432705
aF-18.588554983616518
aF-6.9810768830314913
aF-18.908238040441631
aF-18.817149520216745
aF-18.346934026790592
aF-21.154208854074852
aF-15.446055186570831
aF4.0143483989687923
aF-20.28528242716834
aF-13.7402276321329
aF-18.562849868055721
asI69
(lp71
F-30.685701884867996
aF-29.789004982831187
aF-44.019899816229426
aF-9.1739493906834184
aF-18.28901512154917
aF-15.471025294280054
aF-15.646139602869809
aF-15.293216989775175
aF-20.862136190860596
aF-25.948798514914344
aF-18.32221605373924
aF-20.920010251905254
aF-21.395233291955577
aF-7.127107801696809
aF-10.200762918947376
aF-18.841952868185444
aF-4.5343093195229045
aF-13.831356388719769
aF-21.653249900360294
aF-19.051705470002602
aF-21.878651082357663
aF-27.389633295726441
asI70
(lp72
F-21.162807822374134
aF-27.863805816943398
aF-30.256467628943696
aF-9.6090767574732467
aF-37.329166758474884
aF-3.2364534644923424
aF-19.733994268882483
aF-16.066015615092738
aF-17.144377528902908
aF-1.3129945323541961
aF-22.313108826658578
aF-21.647409963117369
aF-14.354053882061621
aF-19.973684631568403
aF-19.346835801848599
aF5.816875281004485
aF2.2336701017981682
aF-18.542386908814052
aF-27.552329845534302
asI71
(lp73
F-27.171267120198195
aF-27.366068741982644
aF-22.096224343863327
aF-18.923791600418127
aF0.9439067819159277
aF-6.872983522687889
aF-23.655766248916947
aF-2.620121325158749
aF-9.5514946396026517
aF-19.189064325330364
aF-17.432744976650881
aF4.4330102010045778
aF-22.696611754272155
aF-22.207063500366857
asI72
(lp74
F-22.40098110537221
aF-9.3315470674517229
aF-9.4198864995850897
aF-21.591727553543564
aF-21.092426130026382
aF-22.927661772306863
aF-19.24617175789497
aF-18.503530888731532
aF-19.667900365602605
aF7.6681467145962614
aF-14.597277391623294
aF-18.988539151796445
asI73
(lp75
F-20.914864926851592
aF-25.480689916820609
aF-23.207457415935039
aF-18.70709265044556
aF-17.724477307898781
aF-22.312372703540845
aF-10.908137044774577
aF-35.51888489662727
aF-16.618114675557479
aF-11.458465254465466
aF-10.811106720886983
aF-23.722711693802466
aF-21.183018456756542
aF-9.8549993858192551
aF-19.472406412328823
aF-21.368568430173511
aF-13.221749586112466
aF-16.96829016248428
aF-20.293109477130713
aF-18.940622147313007
aF-21.323521470530068
aF-18.345183312880721
aF-19.117952184371262
asI74
(lp76
F-19.041870507440109
aF-24.200532146375537
aF-25.437804865001908
aF-20.885702022887017
aF-13.977104241889506
aF-26.245643908715451
aF-16.781005383485692
aF-26.824863835671863
aF-22.471830011933406
aF-14.513290223858419
aF-8.0761694427732778
aF-26.638928557363414
aF-23.518523247874015
aF-7.6992475010957548
aF-19.623811626851619
aF-20.832872951423241
aF-22.559866338224722
aF-12.334469637265244
aF-15.973236236555238
aF-19.994287339223519
aF-19.282262811927978
aF-19.13803847383511
aF-20.188105986160423
aF-18.276373563322053
aF-20.90129503988824
asI75
(lp77
F-16.753014994092425
aF-21.588793530334044
aF-23.444761041765958
aF-20.972726427967729
aF0.91737434323620448
aF-18.380546700696101
aF-19.297924632312231
aF-26.720551318012511
aF-9.6404629928439647
aF-22.536352367251638
aF-4.3759144920766317
aF-23.798837966100933
aF-19.448725904761545
aF-12.035086903503412
aF-18.354283278611661
aF-9.6593015162357005
aF-0.7392435017968495
aF-19.328697727026125
aF-19.980864301499707
aF-19.451269035293791
aF-20.271740577415798
aF-20.111605422184638
aF-19.18584394555586
asI76
(lp78
F-24.905834723311102
aF-26.49978066389248
aF-27.627302762895368
aF-6.2623914757245274
aF-26.600065070212437
aF-23.98580461945464
aF-18.17221767613124
aF-15.226257759849005
aF-20.076763649442171
aF-32.425417409490763
aF0.97150845454156354
aF-25.696201148337181
aF-23.990394099343035
aF-10.898133609161434
aF-14.079023757828082
aF-19.261118490670839
aF-11.450430911387912
aF-1.7402374364310589
aF-19.343214122352705
aF-14.11361446238854
aF-19.989502004982072
aF-14.919634909282777
aF-18.597799465580081
aF-22.06106569093302
asI77
(lp79
F-23.591130035437146
aF-23.61997557137758
aF-29.547839116941987
aF-18.436345909647386
aF-16.43099212087894
aF-15.591051744371626
aF-22.78260959567929
aF-24.234617658668867
aF-31.007288193015057
aF-21.1562772762598
aF-22.751501985923866
aF-25.87440035262459
aF-8.1989685067037499
aF-19.721767358309904
aF-16.048553923941824
aF-20.645236621528056
aF-11.234443698550052
aF-1.055067708766785
aF-18.299359224076539
aF-14.918242153564591
aF-18.494849363820663
aF-15.704925008284619
aF-20.660745601243491
aF-22.280038859587393
asI78
(lp80
F-21.641538686399855
aF-21.372927196438425
aF-26.256252549840411
aF-11.712935918130114
aF-13.396240621828952
aF-12.920317641736233
aF-30.765201453682153
aF-28.159099054491946
aF-26.739697721021287
aF-23.429422610263174
aF-21.119141219819753
aF-25.686719364494095
aF-19.711040032101451
aF-6.8884511057125053
aF-21.309618956416173
aF-17.252404153055721
aF-21.333606350905882
aF-10.875663422079299
aF-19.427991066593165
aF-13.779172116804219
aF-15.222425612888912
aF-15.149248606698151
aF-15.356959364340653
aF-21.184199655128396
aF-19.547911053627374
aF-21.12196046781942
asI79
(lp81
F-18.430350243950897
aF-21.124166055366544
aF-2.4794588713847361
aF-1.0175393913231119
aF-17.179412298316322
aF-36.5602253428724
aF-20.691662196374651
aF-27.08098626174727
aF-21.469682168347646
aF-23.526756029302959
aF-23.003966435314084
aF-16.815917637180291
aF-20.197407045488177
aF-20.346367741310104
aF-14.92895150837677
aF-13.816023685219847
aF-13.643335874595152
aF-1.0390638096254179
aF-15.456531584442331
aF-21.381244342698309
aF-18.718244433978626
asI80
(lp82
F-13.929018674841032
aF-16.598979759266925
aF-9.9067023957045421
aF-10.591891181913226
aF-25.311771857064969
aF-7.2614115443152798
aF-18.998572159017186
aF-8.5900801710096744
aF-21.367527986025621
aF-22.556902868912474
aF-18.980858077594533
aF-18.509679635008183
aF-19.245163502481219
aF-19.684350536209706
asI81
(lp83
F-10.535134963240324
aF-9.8687803708930346
aF-20.561769310367993
aF-21.782530788067817
aF-21.926562206625434
aF-1.4631969714317563
aF-18.424304189540592
aF-23.780297185495755
aF-20.00970589021675
aF-12.828263437733284
aF-18.537760673927693
aF-28.19037056594145
aF-1.8610168366676021
aF-35.841149398536871
aF-24.618627680406149
aF-17.686768584179617
aF-18.13353084272606
aF-14.43199244662398
aF-20.20346522979446
aF-14.358088853731147
aF-19.332121493920596
aF-23.196446355154507
aF-15.627650456483224
aF-19.685906948571585
aF-18.612497565212635
asI82
(lp84
F-19.573245155642198
aF-20.088608510222301
aF-19.552460555320025
aF-19.301714617193113
aF-18.315433783666549
aF-13.851865526737612
aF0.68892986225075958
aF-4.5561121745092521
aF-25.032585612315728
aF-10.061266000016047
aF-7.2652661340192424
aF-19.161488115387385
aF-22.901718361244122
aF-17.077867308337204
aF-19.175640243276888
aF-14.914429882283756
aF-20.223017992400202
aF-20.830104307391196
aF-21.355766644644788
aF-10.39218530338394
aF-19.335290703203
aF-8.6260131454111928
asI83
(lp85
F-19.819383898688997
aF-20.175160701220292
aF-20.515616614674045
aF-18.871307702093475
aF-18.393108250276157
aF-18.285147767312594
aF-11.677168029050364
aF-22.292756696404624
aF-4.5995661428889605
aF-25.076025379652407
aF-20.169451518604774
aF-13.87695308133857
aF-12.408393789234381
aF-31.723847238225403
aF-26.675826329936868
aF-9.5674984895324826
aF-29.912410963420641
aF-23.392097242922532
aF-28.495266018816267
aF-17.230092931137946
aF-19.257104794538918
aF-24.523631824690796
aF-22.559066703413492
aF-21.878225442114214
asI84
(lp86
F-19.879502200253143
aF-20.408217555944248
aF-18.640057002876461
aF-24.101433453247267
aF-0.73262488809740489
aF-19.403600611104366
aF-18.32939093377459
aF-22.124783906906941
aF-3.1171107466183514
aF-29.888727150982248
aF-36.298093200183118
aF-18.532776675879802
aF-31.455387361442746
aF-26.652784500175542
aF-11.323082151762677
aF-20.510008839673787
aF-23.963926807835009
aF-19.66562125978696
aF-18.75364702625312
asI85
(lp87
F-19.451868373949694
aF-20.259697435623139
aF-18.738268962028741
aF-18.454669495592725
aF-7.6728052390205619
aF-19.920062047511266
aF-21.521022294855271
aF-8.771251134536854
aF-26.593316519016895
aF-20.751835947505199
aF-26.373127079644775
aF-19.549131710077702
aF-9.8921027700566952
aF-2.8779716843867504
aF-6.3057375484713987
asI86
(lp88
F-20.320672414565365
aF-19.756008879077541
aF-20.001467879483428
aF-19.32180586190708
aF-18.63514186312301
aF-11.386366036732085
aF-21.710609749093308
aF-3.740611869878677
aF-24.66880022103534
aF-18.968905832856805
aF-13.465885732665669
aF-12.473483443280642
aF-30.999856909989944
aF-26.559551690167893
aF-9.8404554952897456
aF-33.216122854357124
aF-23.477719560306241
aF-29.309100670696466
aF-18.198216522917079
aF-19.848612972093548
aF-25.407526110465753
aF-23.000710733799764
aF-22.515363288125343
aF-6.5455916242363514
asI87
(lp89
F-16.612589278294749
aF-10.975166015361637
aF-11.751284271964678
aF-19.52415896133833
aF-20.333771252721462
aF-21.531751011169959
aF-6.9253721028399582
aF-2.0193601030375135
aF-15.467140562501996
aF-18.122159004518664
aF-17.309171956683656
aF-14.583914246250373
aF-19.951641513811381
aF-29.343715948869104
aF0.44725009358234047
aF-19.300138730767458
aF-34.879671477065926
aF-29.294947857252083
aF-15.306479370530354
aF-16.760929602484197
aF-19.205890768679367
aF-16.875841575139958
aF-22.962897369154248
aF-17.713100426534979
aF-18.389294141462216
aF-23.400544187219836
aF-18.694714124344429
aF-18.450230115716693
aF-16.019021757562797
aF-21.820720650898679
asI88
(lp90
F-21.118310514266597
aF-20.424237083784021
aF-19.658798708167353
aF-6.5228259725215025
aF-19.461772831381609
aF-11.234573123338123
aF-23.434663996007458
aF-9.5338689630275155
aF-19.185196535998358
aF-28.89843471816647
aF-16.841986044405672
aF-18.485693797519048
aF-13.070536559746699
aF-2.1841072204193779
aF-8.3311565699276855
asI89
(lp91
F-21.165301225457
aF-18.799232244597817
aF-20.316053796360393
aF-20.242402734456249
aF-9.6520407671353468
aF-20.907540109871519
aF-1.3620548758332092
aF-21.996490919192311
aF-17.179895218472879
aF-13.722932682321186
aF-8.2020173779214929
aF-31.259163684061917
aF-28.884460658271081
aF-8.6508052299127485
aF-29.299482795903216
aF-25.926308849408414
aF-37.521158422363271
aF-17.833760551682388
aF-19.820223531901163
aF-26.834386117696923
aF-26.083136070630886
aF-24.214489020645175
aF-6.7016775899108296
asI90
(lp92
F-15.884020338585316
aF-21.513298412141623
aF-20.567116282368389
aF-0.52287133190873192
aF-18.781201933122418
aF-2.6977359089991921
aF-10.388323764593025
aF-22.540829078302266
aF-26.669807723108335
aF-18.502001288927033
aF-40.859490007148551
aF-26.446720562948315
aF-16.96746264642907
aF-20.140707790916792
aF-25.00520567605372
aF-24.280193437767224
aF-13.708196214759994
aF-7.8027331946050822
aF-7.6395664066976536
aF-17.923756941744955
aF-19.74451452550224
asI91
(lp93
F-23.716561388128994
aF-21.633817767269448
aF-19.940552232906981
aF-10.792498359535301
aF1.3579995468431179
aF-6.6963817487490616
aF-1.0353604102505614
aF-22.694788151989187
aF-10.646041566391176
aF-8.0595932010842688
aF-20.528835050037941
aF-19.233824859565658
aF-19.833521389338642
aF-19.859334522872373
aF-21.619750422480266
aF-21.559723209945759
aF-19.760385423934324
aF-29.404197469155264
aF-26.457303355191613
aF-11.848342026316004
aF-19.53527560827969
aF-23.349148565267683
aF-12.117089149845867
asI92
(lp94
F-18.834656202905691
aF-13.277554787061803
aF-19.539264039117583
aF-1.0506607791276679
aF-10.689725858275565
aF-12.26470992210055
aF-22.116075453774101
aF-18.962620969056616
aF-10.30075366482356
aF-22.87583155344889
aF-14.654135444408183
aF-34.046289010907941
aF-10.950151356218697
aF-28.931017552969422
aF-25.602812922667198
aF-22.430482960960745
asI93
(lp95
F-21.562358191699943
aF-13.853687179516186
aF-19.346404635805271
aF-3.32094590579851
aF-18.996538957383891
aF-6.8754909069426304
aF-7.3503879522800588
aF-0.19502009642106088
aF-9.7320333393949312
aF-10.41017130183269
aF-15.525497386712075
aF-23.66720911367598
aF-22.39658791111637
aF-25.901701595578004
aF-21.332358814299852
aF-28.480231820440409
aF-21.43754089458902
aF-7.4312855405859892
aF-27.521360051666335
aF-33.552222016543539
aF-34.968415222942411
aF-15.69174039474791
aF-18.980529611495243
aF-26.369837342274025
aF-24.175134708222572
aF-3.9512805180885664
aF-22.572732485709167
aF-26.985777228197165
asI94
(lp96
F-19.89466046356867
aF-11.185829874142783
aF-19.621104215071981
aF-21.369049290487851
aF-3.2956264111745099
aF1.6263670945780149
aF-13.226243115935233
aF-24.384850281221475
aF-19.299133986494382
aF-31.448901473799708
aF-22.515680475124626
aF-26.684524341050434
aF-57.747631153249401
aF-25.174273258979312
aF-26.08771287183572
aF-20.176817793755106
aF-11.247665959741923
aF-31.886345300328145
aF-18.413870523244128
aF-8.5250558470074083
aF-22.789985609430914
aF-24.068697148984882
asI95
(lp97
F-20.514054012328671
aF-20.193156197406864
aF-22.10996451485579
aF-20.128236512966566
aF0.96059664203572481
aF-19.222110742570919
aF-14.793982759438251
aF-14.204263917013378
aF-3.9576408422007745
aF-27.811529901496399
aF-30.830815665836752
aF-6.3566169509328034
aF-21.049878312114984
aF-31.812919527270026
aF-34.976004188516029
aF-14.143240312342627
aF-17.72191835543552
aF-24.476397473584314
aF-32.175873021992857
aF-23.877828567237032
asI96
(lp98
F-16.518328297416332
aF-24.584614379150906
aF-19.859967770506358
aF-22.976810132478661
aF-1.6594548347339355
aF-20.800586083909778
aF-20.280352757957331
aF-1.2995009569615092
aF-20.318165870066565
aF-23.907200880984149
aF-29.298453347917601
aF-25.420377405418662
aF-16.480205126388086
aF-19.954036021714842
aF-27.197551681405315
aF-25.094376653366282
aF-13.684158625524788
aF-8.9125199450240444
aF-11.384137447164548
aF-18.809683605676696
aF-20.13270929091739
asI97
(lp99
F-15.686563179210125
aF-18.162233868562225
aF-16.041648831999836
aF-15.18098875729487
aF-0.67852093319899609
aF-11.10115927196901
aF-2.6990231073261555
aF-7.8608002640003178
aF2.2595941877254972
aF-10.950624499437509
aF-12.771344356419476
aF-16.255826552271117
aF-10.526058548914989
aF-21.945421072104239
aF0.41030739998431898
aF-27.386862023171659
aF-23.839917952256727
aF-15.628126203652727
aF-18.328512881448376
aF-15.88084996712962
aF-22.743999027117127
aF-23.086811163350276
aF-20.325869405636354
aF-30.194837985567887
aF-18.456577223757762
aF-19.677343503025881
aF-16.652937449990418
aF-23.518463565591105
asI98
(lp100
F-21.529293854613599
aF-12.844831658490037
aF-18.091571240919706
aF-2.8922055970564458
aF-10.675647129679163
aF-1.1338367631197031
aF-9.1368261603312959
aF1.4234955130791889
aF-10.373844939026
aF-11.759681571253708
aF-12.187487732462117
aF-19.25956178664876
aF-22.412992686984083
aF-19.960235121331053
aF-24.937103802763374
aF-26.93792661853827
aF-11.310695897561445
aF-15.499596682967507
aF-20.930906250681858
aF-19.780374309634198
aF-28.043644758821529
aF-32.28397924314676
aF-23.904017660236761
aF-21.299072340439807
aF-26.847980152310924
aF-0.59633461220209938
aF-19.803135807214687
aF-27.779764950912295
asI99
(lp101
F-25.569641773605142
aF-10.324720558667778
aF-18.017018522469328
aF-19.816744705247061
aF-5.3851677923473318
aF-9.2220310325784283
aF-9.7435882338935471
aF1.6538277478370134
aF-9.9261827959367679
aF-12.631556209995068
aF-20.633822982619336
aF-21.089925585282145
aF-22.427585460826805
aF-21.551092676132782
aF-26.156771926646954
aF-19.566792506421578
aF-8.049731146253734
aF-24.440669078235658
aF-25.568355948470497
aF-39.888290228300363
aF-18.737863577925054
aF-20.369074190520948
aF-25.424114594828211
aF-36.223081112269526
aF-3.4166784027637078
aF-24.519549770094301
aF-32.91381314717573
asI100
(lp102
F-30.93359183788823
aF-26.698953223444136
aF-21.892648784511096
aF-20.066917733004686
aF-19.219112373039366
aF-9.7755306884550919
aF-19.325678288989394
aF-19.935427455816097
aF-4.0767198835412302
aF-19.44284600485615
aF-18.762933229682545
aF-12.443262126780795
aF-17.943330881442236
aF-21.453518876689017
aF-18.939729768244803
aF-19.311882640720796
aF-33.73952191646066
aF-28.675279020018252
aF-12.17927595079783
aF-20.586571703095004
aF-27.346323082822266
aF-16.974879538914848
asI101
(lp103
F-27.790800601252258
aF-15.895195460785033
aF-18.921713433695018
aF-22.709202246146916
aF-8.1402351045414321
aF-7.9040887135377602
aF-9.9254309651776111
aF-19.095838916511127
aF-11.321805480055303
aF-20.495322725044161
aF-19.016187114176347
aF-23.458702227466262
aF-18.937882858261702
aF-22.781761920009387
aF-21.233170097447925
aF-27.209018065267188
aF-25.708024965941831
aF-31.198289328473209
aF-14.080588692719914
aF-31.377376219629213
aF-23.748362755806738
aF-7.0277881904282538
aF-33.503158246101307
aF-31.853054909352466
asI102
(lp104
F-18.48627338096351
aF-9.8155228654538575
aF-27.93692947266149
aF-23.295523015021161
aF-15.295452214344408
aF0.74030307971113984
aF-19.877941876382707
aF-25.483973878960626
aF-18.594963218178947
aF-30.734107772582846
asI103
(lp105
F-22.187199162266396
aF-23.635024422404484
aF-20.881914536400956
aF-29.056098892383318
aF-18.400612860745881
aF-24.81335476351812
aF-10.068267557370746
aF-18.847395948776438
aF-0.39235064480557469
aF-18.350861671735004
aF9.6637459377907931
aF-18.864854097913195
aF-0.37668858080658651
aF-10.908861115617867
aF-18.758667776644131
aF-11.556341807631227
aF-25.845165338586014
aF-20.509362208401797
aF-20.141073246531022
aF-26.509281670642139
aF-0.93084604728829845
aF-19.717246393677073
aF-16.969062989375971
asI104
(lp106
F-22.682164268374166
aF-22.998461026789982
aF-27.70159240620282
aF-18.898475834048725
aF-10.639654602446143
aF-10.928218453785377
aF-10.546848378861768
aF-1.8573491897701473
aF-22.324049242987371
aF-23.598526933626104
aF-17.918129870877323
aF-25.212876077808858
aF-26.71936246936599
aF-13.419686231156021
aF-18.132101522794642
aF-25.050835860641499
aF-36.771733133981925
aF-27.057703353667733
aF-6.7706720769109836
asI105
(lp107
F-36.431771272652028
aF-16.372972484858352
aF-24.84198943645724
aF-7.7725089482347727
aF-5.1545952447623336
aF-21.856834358693376
aF-15.990819083912172
aF7.1350030884999853
aF-0.60694147812205301
aF-18.931020169579625
aF-9.0455861676225737
aF-23.264938159219795
aF-9.650718430550171
aF-30.293094389649156
aF-24.004205711993407
aF-29.339210802464592
asI106
(lp108
F-36.410535548186743
aF-25.845571027212159
aF-23.581175612074972
aF-0.59001911213573521
aF-28.125228700062024
aF-7.5028805231068816
aF-23.267229636326107
aF9.2443267723344036
aF-21.252230499919975
aF-6.9417758800091747
aF-18.711840778626168
aF-6.6783266233351242
aF-21.420957664405833
aF-19.841919721686949
aF-28.538544561856568
aF-15.326057803513379
aF-20.542801865907109
aF-12.624045756913347
aF-6.1820933078303426
aF-16.179852873626686
aF-9.3091933356874819
asI107
(lp109
F-33.115848068514936
aF-18.797300492654571
aF-28.988588467676664
aF-23.877027955827998
aF-20.631315363625617
aF-12.671380479470912
aF-21.78558617771202
aF10.415373864019926
aF-1.8401022069407986
aF-10.156174300968104
aF-15.635495007623575
aF-19.804480704114184
aF-15.052846785448452
aF-19.481738865178414
aF-25.547411690893782
aF-25.232286743872407
aF-12.464164639070873
aF-19.634482667107335
aF-25.93780167594511
aF-21.57357796281552
asI108
(lp110
F-33.22064416694451
aF-11.186003299838731
aF-25.46588382202448
aF-20.964181290283847
aF-9.9338579305730832
aF-12.33061571170316
aF-1.1521195594180966
aF-15.315801189118218
aF-18.775340977298868
aF-9.2906623637447439
aF0.80819945849522412
aF-19.436213667100787
aF-19.294162313870956
aF-21.293929447753541
aF-6.6403513281820494
aF-21.434089501921875
aF-19.07859933856335
aF-26.549604642889292
aF-15.96184078676427
aF-20.027933630251653
aF-23.486947835107827
aF-23.968729861900655
aF-2.9021063920215795
aF-25.018438124663476
aF-37.618245423229268
asI109
(lp111
F-19.526219672930011
aF-10.345429257468538
aF-25.632705226867614
aF-19.561781199535318
aF-42.911808053949599
aF-7.1294057279929746
aF-21.964155319567823
aF-7.8805194127587583
aF-27.206717801894229
aF-21.279405759425842
aF-8.9238125611026931
aF1.6902961880539209
aF-19.72747443247377
aF-20.629543775632811
aF-22.0980490178992
aF-15.748146192004981
aF-20.268563507925151
aF-21.073343206697658
aF-24.875184715472187
aF-14.634686942965786
aF-6.3242369602151882
aF-10.888117142286177
aF-21.848818516981268
aF-22.293045493522939
asI110
(lp112
F-20.587976898130336
aF-25.998452755743159
aF-20.145649493888129
aF-38.404724185594262
aF-20.064728143269008
aF-34.097336283460081
aF-13.037478719178722
aF-21.925991870672206
aF-19.688659771513414
aF4.131367567500476
aF-23.203346190215825
aF-7.5057972676972042
aF-16.978899740438237
aF-14.171965468159385
aF-6.6148432653291422
aF-22.494283498366869
aF-16.876510160688753
aF-12.730205706618023
aF-1.2039746740893378
aF-13.041800235283006
asI111
(lp113
F-19.895109112422205
aF-10.957284262214984
aF-38.151168019325098
aF-2.5913870970580319
aF-32.490112796231557
aF5.5918411400518266
aF-17.229539007739561
aF-22.511683204863417
aF-18.459194860934332
aF-28.7169618611495
asI112
(lp114
F-16.980354830072855
aF-17.628425503323683
aF-19.669194528461134
aF-15.39613058538103
aF-1.4283670865948892
aF-22.913271207895065
aF-11.737315023931444
aF-11.566330059203622
aF-23.892180739871861
aF1.2684128323804771
aF6.0287628869147625
aF-18.909826795910078
aF-7.6832478345735495
aF-15.856448459506225
aF-19.132793650913015
aF-13.241301748103353
aF-19.21194106056538
aF-23.543948588935706
aF-15.711425279348248
aF-15.606528758287936
aF-22.058985006749253
aF-18.571423330931111
asI113
(lp115
F-21.600000386926041
aF-13.168079830159087
aF-19.598508753700358
aF-18.594261542655602
aF-5.8496444375169006
aF-19.067378556627474
aF-4.5816655928796592
aF-21.378610987419691
aF-23.201612203487201
aF-2.1977996261104948
aF2.4168457062770869
aF-18.280004675608325
aF-14.348991901490507
aF-20.857090357955229
aF-13.123118236923318
aF-20.301038723315344
aF-19.059476887944911
aF-17.494903096612092
aF-18.649277685650929
aF-25.387915980261269
asI114
(lp116
F-22.838052302215758
aF-13.677516074633729
aF-19.736794828554054
aF-26.256004609469016
aF-16.021504980331073
aF-8.0752323471681393
aF-13.7191892328796
aF-23.229733375075313
aF-19.271196129628137
aF-1.8806836563121294
aF-8.7268946078148133
aF-1.180064235008274
aF-19.742430292680268
aF-19.878218233298014
aF-15.265707968276899
aF-20.7994757017605
aF-9.8107718243650623
aF-22.378917393992083
aF-16.050627828561574
aF-4.2855962694640368
aF-22.432487663926025
aF-24.797521979429376
asI115
(lp117
F-16.423501723658887
aF-26.745622474225939
aF-21.313402866667687
aF-29.633527017257464
aF-3.8304374863328263
aF-24.874283741641619
aF-6.3415068731418387
aF-41.435870969871601
aF8.2570904629294404
aF-26.222108084096632
aF-12.779630318600766
aF0.39461484721513784
aF-14.252634329319889
aF-20.097901333880685
aF-18.308464076850129
aF-18.809788477229176
aF-20.302117986984882
aF-20.505274849654469
aF-6.7385324844868961
aF-5.1778572425506724
aF-17.639329748829155
aF-19.453666662797829
asI116
(lp118
F-23.149876940247182
aF-25.511311725048614
aF-30.322971900359718
aF-8.8953994547988344
aF-25.230383157558833
aF-17.688013937929682
aF-18.374898933344767
aF-19.235735153914632
aF-9.9104644575160137
aF-16.363572173709684
aF-20.854124445711449
aF-21.830462427487987
aF-23.65447323142979
aF-7.4373583257506795
asI117
(lp119
F-25.253286551538608
aF-18.532364363378605
aF-26.645068344696199
aF-23.610280360383257
aF-21.254421307244883
aF-24.201586682537638
aF-28.488244132537318
aF6.9408408168935694
aF-19.033938769403377
aF-10.598419571178127
aF-18.792833732399487
aF-13.593554589180755
aF-8.2860779920270886
aF-9.6528572299975508
aF-10.053674521828512
aF-18.035198846669005
aF-20.22349174831956
aF-8.614217937437445
aF-21.804703232815655
aF-13.088148010083373
asI118
(lp120
F-18.429701954635803
aF-17.28444460268264
aF-11.240326378652256
aF-19.6636506514795
aF-13.453031769246621
aF-23.215488564620912
aF-19.447580646008703
aF-8.4133364681768796
aF-25.384241629408876
aF2.3429064078072486
aF2.2355807477256064
aF-18.994399908282503
aF-15.689871927449431
aF-10.063022066272765
aF-19.602853575690631
aF-21.386249884599692
aF-19.999497830764227
asI119
(lp121
F-14.434286198721153
aF-16.27351817824615
aF-13.56523634408174
aF-12.60888784194718
aF-1.0933580101287816
aF-15.230711880928538
aF-8.8126360529301166
aF-11.863011028914912
aF-32.614936809309057
aF-1.4379990596288224
aF4.0572801345118563
aF-19.236499737515302
aF-19.820532169159378
aF-19.387132593248694
aF-9.9033196397089398
aF-19.389516209381199
aF-13.39352404298242
aF-20.233407113840684
asI120
(lp122
F-19.003290396068081
aF-20.607139495312396
aF-19.354393908200109
aF-23.844327819543722
aF-24.339405245492287
aF-14.499794284395051
aF-20.754331225519621
aF-21.90890334186696
aF-8.6237305751733402
aF-25.357497861086614
aF-9.0734958625224635
aF-23.882270928106863
aF-19.325237471344224
aF-20.684524794218589
aF-9.668456527424965
aF-13.51802475309961
aF5.8223638892211227
aF-7.1338502298825972
aF-8.7399861868575783
asI121
(lp123
F-15.746680324620456
aF-21.253656967058433
aF-18.579097326801161
aF-24.420275557935767
aF-3.4436410758932396
aF-20.99678180292446
aF-7.0797057000582129
aF-29.605178650622832
aF9.2325510414177927
aF-26.251037814608097
aF0.72493082169057743
aF-19.651169283709734
aF-4.3404341061068266
aF-15.615289284007517
aF-23.29981655900562
aF-21.256384343295309
aF5.9399245714164124
aF-8.8913569499991638
aF-6.3986300769126672
aF-18.356941955127894
aF-1.7522999647464417
aF-16.185852396745702
asI122
(lp124
F-17.674551725416762
aF-9.5267388311363277
aF-12.487892982983524
aF-18.318777161521581
aF-4.0310467813842052
aF-10.995985010742302
aF-2.0814320410391076
aF-15.454201085921525
aF-24.947067096634285
aF-12.327731527208982
aF-1.0456354908796754
aF-22.095462673338147
aF-21.606442486166259
aF-20.413956214492671
aF-7.1105937163032422
aF-13.427374709177315
aF-16.088085671814341
aF-21.013049194522182
asI123
(lp125
F-19.443676412257986
aF-22.276507086906321
aF6.6734073922768289
aF-26.426257567506994
aF-21.587374640910866
aF-21.414164085388236
asI124
(lp126
F-19.089120615560802
aF-18.889795845608091
aF-19.048652435961628
aF-20.62380959432916
aF-6.8791893555281547
aF-22.640536585973223
aF5.549089816563054
aF-28.482499591089535
aF-16.992153457540013
aF-0.11289156885284513
aF-19.771540921721993
aF-24.706288086505765
aF-31.248052089890081
aF-7.2540129094802381
aF-19.099954077357552
aF-14.07756603987994
aF-0.53795436095009563
aF-11.772609066182838
aF6.896901002295948
asI125
(lp127
F-9.6910831050227557
aF-7.7972906067861629
aF-4.3123058574824995
aF-6.3838506227650953
aF-27.674876911637568
aF1.604847226075762
aF-2.3123254628812333
aF-26.235048826576161
aF-21.534920386961474
aF-20.308367131734883
aF-21.988027250315284
asI126
(lp128
F-19.986384342861498
aF-1.7720023694455875
aF-7.2491816089578833
aF-21.911545325971858
aF-21.357041549449207
aF-1.9336978700478511
aF-14.406735177428885
aF-16.789050108894784
aF-14.623404854253565
aF-23.888855144637489
aF-27.872880264570455
aF5.3092626210977301
aF-18.704226907709057
aF-11.965448400591811
aF-10.721274449149988
aF-22.14299916408757
aF-9.8889145990115708
asI127
(lp129
F-18.709119150865376
aF-19.884608996521791
aF-6.8692520963961385
aF-23.360019008947447
aF-18.390457767036082
aF-16.366163342624731
aF-10.250273102956641
aF-25.888442787584978
aF-17.080633506548992
asI128
(lp130
F-18.388682898391963
aF-42.839951103272611
aF-25.688435850913976
asI129
(lp131
F-1.2951881749434335
aF-6.4899349621966422
aF-9.2876460638227911
aF-21.23880316895071
aF-9.5380817166260954
aF-7.1567304595475321
aF-4.8116342831017676
aF-29.344573992230508
aF-24.80941858483834
aF-7.2244512253504354
aF-22.725690438867218
aF-12.093351179797338
aF-22.420585826035605
aF-19.866562938591841
aF-10.261868351547548
asI130
(lp132
F-19.262900551868142
aF9.2085477725747182
aF-22.402488219982629
aF-12.078579329420165
aF0.52068235006404961
aF-18.745332422420518
aF-23.742150151881958
aF-33.863889735963227
aF-7.3538640235912709
aF-19.403435913457031
aF-15.242305657113306
aF-13.099047094564284
aF-16.204760877042048
aF-6.9780468046039346
aF-15.554273799469613
aF-20.198779397025277
aF3.2383562825015701
asI131
(lp133
F-18.642859690853015
aF8.5196973699124214
aF-22.073229994259762
aF-10.537039868861399
aF2.0792698850836615
aF-20.737595362804711
aF-27.218956654138154
aF-28.675346871743784
aF-9.0803027432152135
aF-18.590199847425339
aF-10.558937766241115
aF-12.828276738510013
aF-17.056741286222319
aF3.3594377487951306
aF-15.609119137643944
asI132
(lp134
F2.6021002457259925
aF-18.532274331061657
aF2.1289050535587961
aF-27.103931768063163
aF-35.899140024364726
asI133
(lp135
F-6.4025840739502655
aF-20.488128846671984
aF-2.658453017157413
aF-0.73518971367660413
aF-25.683767060780141
aF-18.376342721240661
aF-31.607309104759963
aF-6.500986075711694
aF-27.797162633217567
aF-13.99395397488432
aF-24.19253106560214
aF-22.958600080442935
aF-12.233376435423651
aF5.837866910328529
asI134
(lp136
F-6.7575745664225337
aF-19.590257728000495
aF9.9861304523771253
aF-18.308348212494508
aF-23.494368812882129
aF-18.602795635041389
aF-19.661560553895058
aF-18.516030945392188
aF-21.843467347485529
aF4.0958806902930291
aF-22.677363725909188
aF-25.647031219739233
aF6.4178018668604295
aF-20.218041592805477
aF-17.157828456166868
asI135
(lp137
F-13.332773520488828
aF-6.4678863176937114
aF-19.717906692255752
aF10.765775721004729
aF-22.075186922941384
aF-17.045873275935804
aF-18.624935310006663
aF-19.318740549256177
aF-18.575523233701063
aF5.3764476769822807
aF-24.323590945012299
aF-28.516077250970653
aF7.0805137178880528
aF-20.838426424640232
aF-17.220931040683126
asI136
(lp138
F-19.998223149524179
aF-10.396818540610852
aF-18.46813341208528
aF-13.61202110705085
aF-15.096652380752431
aF-12.813902713783705
aF-33.648879643015775
aF-26.084288063371588
aF-20.923893099564054
aF-15.857791515221138
asI137
(lp139
F-18.772853891365969
aF-18.740608364948287
aF2.5190679678127736
aF-9.5644778634314491
aF-2.0743798715559763
aF-15.298257429353868
aF-24.766265149197466
aF-24.020832556719043
aF-9.444981129636119
aF2.1700431321502407
aF-21.253211682874195
aF-13.401539507347152
aF-27.166166810679982
aF3.5418499576062743
aF-21.152778945311653
aF-14.497446908518413
asI138
(lp140
F-18.814997399913523
aF-14.309460349276989
aF-18.3917202326313
aF-0.0065515333939458742
aF-1.1719917519924223
aF-18.464877673847397
aF-26.793630922727431
aF-24.331601522542201
aF-8.9909087771820282
aF-22.931990353740275
aF-24.431147149774233
aF-31.173189855101398
aF-27.240877724692112
aF-16.920756819434956
aF4.774760181076303
asI139
(lp141
F-14.760535625451865
aF-14.691093215916794
aF-18.872405477933825
aF0.80476986042528154
aF1.8448274591922171
aF-22.153181147903069
aF-18.801816032047057
aF-29.918936330785442
aF-29.339620980367059
aF-12.670946620026612
aF-24.25146290587864
aF-25.593688442832459
aF-13.343719134756824
aF2.51127674222829
asI140
(lp142
F-9.9839079327167752
aF-21.894420127323258
aF-30.041653668702935
aF-21.228396103057165
asI141
(lp143
F-15.838630047613378
aF-19.804851309026247
aF-16.455009081817238
aF-6.3074926921020307
aF-18.367788801083833
aF-8.3661532182067617
aF-25.764560469858935
aF-21.611315995794541
aF-24.168835721042882
aF-16.742097939121464
aF-22.67844286167977
asI142
(lp144
F-3.7873178572810673
aF-14.915116120382464
aF-18.811723920006145
aF-20.090285227667664
aF-22.463750866082435
aF-24.332378648852682
aF-21.258942058929122
aF-21.49713083716793
asI143
(lp145
F-4.6549572496534779
aF-15.185881231946254
aF-19.523828042001469
aF-21.121023142697112
aF-21.300845816896896
aF-23.059266337584759
aF-23.070787070043963
aF-22.072278104324965
asI144
(lp146
F0.1815043743664404
aF-23.482396913742662
aF-9.5555374282493801
aF-21.437323560709302
aF-18.658701964815123
aF-18.30187374842275
aF-21.625695648622496
aF-18.922765046683551
aF-28.354582022474276
aF-28.776250024699692
asI145
(lp147
F-16.02995800158817
aF-18.522306004934393
aF-1.3965828671100553
aF-13.991724203287262
aF-10.207902044665417
aF-13.870563569174564
aF-18.762675828832045
aF-11.024356652110043
aF4.730047313179
aF-7.9370696326856773
aF-17.04367093397417
aF-3.8434487482134756
aF-21.130191785850741
aF-24.156173484288615
asI146
(lp148
F-26.680578450408831
aF-18.585993628183047
aF-24.123289558390496
aF-18.691123194540708
aF-20.916097306908199
aF-10.973158956155231
aF-18.369253621464907
aF-19.607191822862987
aF-8.50113367184629
aF-11.645616274805391
aF-28.144489327258938
aF5.611538591214412
aF-27.719231033974708
aF-25.492950078816861
aF3.9221115941173537
asI147
(lp149
F-16.384012408248367
aF-22.05903064900437
aF-21.688286094454753
aF-23.404641326214204
aF-21.413650100476517
aF-18.749045790557261
aF-11.886505687926842
aF-18.760376457902936
aF-18.603348362835419
aF-19.060121938874659
aF-20.960541099577938
aF-21.08981145473598
aF-10.615065702235739
aF-24.748906786481712
aF-31.667682254989231
aF-17.040059172233271
aF-5.8600550033991965
asI148
(lp150
F2.6070136972475098
aF-17.172669979692202
aF-21.585951884402562
aF-21.841970447533384
aF-23.19398331485155
aF-21.895437276377237
aF-18.544286220602288
aF-12.02713988762676
aF-18.86066616762551
aF-18.825770813805832
aF-18.673389990789801
aF-20.952340716226672
aF-21.21001804937201
aF-9.9470928944235624
aF-23.867590201646919
aF-29.631279645341792
aF-15.838467400483182
aF-8.7721481971333759
asI149
(lp151
F-20.329967243442027
aF-16.259213798552963
aF-20.99540207502551
aF-22.676285962327839
asI150
(lp152
F-29.760716858197867
aF-15.625812014451441
aF-20.1111971721499
aF-19.340864315031411
aF-15.28021891693308
aF-19.433318206799584
aF-18.207079686825978
aF-35.153434351442343
asI151
(lp153
F-3.9533273304218994
aF-36.177103943930348
aF-16.844001786858456
aF-19.212121130932218
aF-18.671926579363031
aF-23.660022275792969
aF-10.862393745310513
aF3.8941392380002071
aF-19.456079111455992
aF-14.080226759296522
aF-1.7570282286397685
aF-18.460489799166737
aF-19.352573608811198
aF-19.781611582069004
aF0.41356324392731381
asI152
(lp154
F-16.17579817469074
aF-33.896732315638744
aF-21.816170912334343
aF-19.803500031915064
aF-1.0922752420733843
aF-9.8076291007680112
aF-24.912758357475283
aF-8.3532541663577717
aF-21.504342174753589
aF-28.830260918692971
asI153
(lp155
F-3.4650445234529883
aF-31.509421851346843
aF-16.944498621403511
aF-19.361107816389875
aF-18.953906507341514
aF-24.718246590294015
aF-11.356646478178703
aF2.6022154705365494
aF-18.793389475861488
aF-20.173922326508034
aF-14.859874338930226
aF-2.7040827637986098
aF-18.524954480527242
aF-19.290199479232143
aF1.2010095494348434
asI154
(lp156
F-21.12697495590848
aF-28.176994010706295
aF-41.503233252171526
aF-26.713605172029588
aF-5.0181842463849335
aF-15.152482964372012
aF-27.930684051778741
aF-14.523736002527826
aF-9.9890847970027608
aF-11.140788403471788
aF-22.130016018716788
aF-10.959320844942908
aF-19.108727441878187
aF-18.808634565741301
aF-15.618017692455311
aF-24.694392547843677
aF-17.588168907604754
aF-22.500286488398501
asI155
(lp157
F-16.900757671671471
aF-19.175417394407361
aF-5.2095139321435795
aF-7.8635339678618834
aF-19.850995759444018
aF-19.624353887338316
aF-16.801600081275424
aF-20.462370437174684
aF-18.777709162355677
aF-18.321301011988012
aF4.3823198071317506
aF-19.975664476497542
aF-21.198919520683873
asI156
(lp158
F-0.054686157629532772
aF-26.983408520069446
aF-10.22265635378956
aF-30.777125988328137
aF-25.476497983395546
aF-14.536261518777863
aF-17.104570272052854
aF-19.605174664231129
aF-21.252071308186999
aF-24.512864456205861
asI157
(lp159
F-23.218334610398017
aF-16.361407148650329
aF-17.34328576914038
aF-18.322449783806135
aF-12.764923851968319
aF-12.890645296930614
aF-20.312379669075568
aF-22.004968280480568
aF-13.305590993271124
aF-9.1327307287589861
aF-20.903538899888943
aF-18.493540001956106
aF6.7807463300385109
aF-23.445675962774288
aF-23.123487241768487
asI158
(lp160
F1.7521302043447236
aF-19.090777788757549
aF-20.572763345386534
aF-23.209305518862635
aF-24.182704591050481
aF-34.941965578742042
aF-19.508532070428245
aF-17.52893386689172
aF3.2996443513611666
aF-23.313486979095728
aF-24.781534016293605
aF-13.493292504243726
aF-4.7052267010864455
aF-20.555187890355967
aF-6.6739311308829059
aF-20.659674236616468
aF-10.286321234423667
aF-0.056559169470745019
asI159
(lp161
F-16.198570951139715
aF-22.653258278272276
aF-25.93771974585988
aF-27.821443843352853
aF-31.720163068278396
aF-21.813932718067647
aF-23.503578740414866
aF4.9267917665458469
aF-26.438297732760134
aF-26.744708792567209
aF-4.3415177935237637
aF-22.22859728390398
aF-19.006094338762949
aF-7.0510105039045783
aF7.5864951917340449
aF-20.671638487519559
aF-10.819981503407647
aF1.7692639123319225
asI160
(lp162
F-23.599214711066907
aF-26.591639876427095
aF-18.742761164725309
aF-17.605258880899584
aF-19.806071508184459
aF-22.199682212618384
asI161
(lp163
F-22.38861436191695
aF-21.448042878177006
aF-25.690018090144051
aF-23.914889184312273
aF-9.9190570947210688
aF-27.101673982540746
aF-28.341589482285244
aF-17.616458209922015
aF-14.844097557333185
aF-22.803775186960792
aF-11.201396319789922
aF-22.017189103593608
aF-19.946101390176523
aF-23.294189327642215
aF-18.137115721320441
aF-19.390632771249997
asI162
(lp164
F-18.783321856975292
aF-14.578288351175615
aF-34.341802408598454
aF-24.805843170208448
aF-21.216907311204622
aF-19.711502475433122
aF-6.3948963884378145
aF-21.672174522936871
aF-13.277660732559639
aF-15.985030147970591
aF-18.861821973002975
aF-10.848318438032038
aF-0.49454565189780908
aF-23.245183358906218
asI163
(lp165
F-24.471744462925983
aF-16.503954834138071
aF-24.842650953573141
aF-20.06027517533829
aF-34.408885732725253
aF-15.644634043968921
aF-12.007749109344147
aF-25.781924289631434
aF-22.139146846274159
aF-24.439189317979753
aF-23.254698467048541
aF-25.609070669809995
aF7.0084334771382828
aF6.238906223997347
asI164
(lp166
F0.13597980763407236
aF-17.038052372831999
aF-21.542841465753369
aF-22.01869107896249
aF-9.7137350971642462
aF-8.1021969123507063
aF-20.051396471339245
aF-20.423646669642878
aF-24.830665856072557
aF-6.5691341149854168
aF-7.9375558562070125
aF-7.6106367751838917
aF10.242620690282138
aF-6.4527549807719708
asI165
(lp167
F-23.51254171408317
aF-14.230390481331312
aF-19.738716945066102
aF-22.81375856688669
aF-25.197475104545873
aF-22.95547419911685
aF-23.16377630769486
aF-7.5140000634850139
aF2.1877737321375861
aF-20.517350534340864
asI166
(lp168
F-14.062381500538805
aF-19.016085793802631
aF-16.980139050965931
aF-21.773840536378373
aF-27.432051870817901
aF-20.097088995234017
aF-18.430374609647345
aF2.6904344153871023
aF-29.039877829896085
aF-40.987235942365345
aF-14.189835033500614
aF-11.028125677810976
aF-27.944482089808389
aF-20.640481935973938
aF-12.426017283837027
aF3.1042474432885854
aF9.8640090371900158
aF-19.044103972943276
aF2.0598156388531947
aF6.7111618982722092
asI167
(lp169
F-14.283092744092869
aF-5.3108287799063447
aF-8.1387820166060294
aF-19.17636695493394
aF-24.587036035888445
aF-22.299972316572962
aF-7.5591108302946566
aF-24.101836608979653
aF-23.069084795524702
aF-24.808035745036818
aF-20.728150105521763
aF6.5455105073980633
aF-15.80499542683971
asI168
(lp170
F-15.559154031825244
aF-13.927064587494215
aF-8.1969804054155588
aF-10.452726021446068
aF-19.110170296600046
aF-30.356774765062596
aF-16.942867019758083
aF-9.9650417172583872
aF-21.174825708855252
aF-26.451625535241533
aF-24.844092894015191
aF-21.938366239812893
aF-16.194284440475613
asI169
(lp171
F-15.741043550152312
aF-18.215962215637674
aF-18.280332899832985
aF-23.67531751018609
aF-5.3208280875263512
aF-15.291444670403592
aF-28.935503429297427
aF-16.157660371230577
aF-11.035606440831103
aF-28.407685271249974
aF-29.023446987006992
aF-15.594523626928265
aF-25.013514114594614
aF-25.756461985645089
aF-13.337799357773335
aF-18.717559190829036
aF-20.237374830128957
aF-14.503688174666422
aF-18.570258872381373
asI170
(lp172
F2.2809433799874341
aF-20.048918962005658
aF-26.234946907076591
aF5.5856996931206595
aF-31.617558128231082
aF-20.605217978000312
aF-19.25489414265607
aF-24.58157296965247
aF-11.34088158026654
aF-9.345784656159708
aF-7.5848364335133311
aF-13.900639530212857
asI171
(lp173
F-16.507176471409139
aF-13.989266154160049
aF-19.402200565972009
aF-23.307834953611518
aF-6.9651985286744491
aF-22.450389538407222
aF-21.455875799017207
aF-9.0487991523147713
aF-27.133529681678141
aF-24.231168571293921
aF-19.679829250551123
aF-24.907972629365673
aF-19.182264013332258
aF-5.0232800048028423
aF-17.301899116724741
aF-19.465807659240483
aF-18.49652022798756
asI172
(lp174
F-21.395540500914734
aF-9.9761741566322399
aF-21.664391426549443
aF-28.03703532571393
aF-14.362400217704703
aF-30.800278515963754
aF-30.980973716075567
aF-21.657159385221604
aF-9.3932311375173185
aF-11.446877726848328
aF2.3358525282787639
aF-19.138667216444276
asI173
(lp175
F-1.0159535787248188
aF-21.349823268024011
aF-17.275252491607503
aF-19.217853438167651
aF-32.866619380370565
aF-19.64560427809883
aF-22.747086032578977
aF-23.991730361294429
aF-19.407723525523863
aF2.4842354574397802
aF-19.521570791503152
asI174
(lp176
F-13.951353705165914
aF-18.310992446074906
aF-21.757663036641816
aF-10.438410091592147
aF-3.3751375884605466
aF-19.752490437722997
aF-22.322292496812935
aF-21.451457113437073
aF-11.800206363338333
aF-20.414919424596889
aF-12.571331886218928
aF-8.2442237107139817
aF5.3298885278240959
aF5.7526127937182991
aF-8.3010583008456251
aF-14.88815668709168
asI175
(lp177
F-14.747345573372016
aF-15.49154186797648
aF-15.47530095097602
aF-19.843893908875742
aF-5.8816313322445239
aF-12.765939618090101
aF-23.031123774461818
aF-18.461699400348692
aF-9.9505909902894416
aF-18.23999497189385
aF-23.339375941605354
aF-12.22286843405027
aF-33.961722178725381
aF-23.966628147928986
aF-11.54418532757505
aF-22.003251071144035
aF-24.04147257992021
aF-14.027586802433845
asI176
(lp178
F-11.147104702768743
aF-18.446831595791792
aF-19.081931089517894
aF-22.182571995095969
aF-11.615482385129937
aF-10.485028364974653
aF-23.030647438102818
aF-20.96131584917967
aF-24.662362516254291
aF-25.041573492871223
aF-42.297089931442159
aF-7.7631535779897405
aF3.5029842343729598
aF0.42410303180240305
aF-27.257944953539621
aF-24.227591240953387
aF0.019381079959671865
aF-22.756432465031011
asI177
(lp179
F5.1906210728766382
aF-13.516533901516709
aF-20.780463698283697
aF-7.8960227885681036
aF-22.121230239428726
aF-12.903225702943985
aF-11.611268709846556
aF-27.613995274940081
aF-20.64985690687547
aF-20.972436447814744
aF-15.792286225743794
aF-40.911909646353266
aF-24.182563750924587
aF-3.7832148149378355
aF-19.609933181777961
aF-21.289770873679842
aF-20.899486429621447
asI178
(lp180
F-21.009642392202537
aF-12.422307061133921
aF4.9558678899446278
aF-23.613870719613232
aF-25.574817021743684
aF-13.78029147441292
aF-8.2373564194842999
aF-28.02012199258229
aF-21.037014582956246
aF-22.689659923685099
aF-5.0904513833377365
aF5.9674067200049308
aF-21.571382689188454
aF-24.648717745271497
aF-2.3191272775187173
aF-19.646631473970416
aF-13.814451334555997
asI179
(lp181
F6.1102903318599147
aF-16.435658479923546
aF-19.911764940649149
aF-19.860025848097195
aF-15.666068523498723
aF-7.7390612833809485
aF-23.84566764776531
aF-19.081886053927121
aF-21.25250960258245
aF-25.661837410201088
aF-24.402943508833403
aF-9.5203886721944428
aF-21.833517736791947
aF-22.877377642397306
asI180
(lp182
F-2.5993282363917984
aF-7.8262020747213228
aF-18.342967671937117
aF-17.517705657338411
aF-11.01835029126606
aF-9.8003685479393425
aF-18.770112651273394
aF-18.695191486793362
aF-29.362712366390113
aF-20.253531688599125
aF-29.224689155770491
aF-33.88547094744456
asI181
(lp183
F-19.738909137696822
aF-10.557687686799284
aF4.8878202288552473
aF-21.106340752415079
aF-22.909037619809112
aF-14.569017926238601
aF-7.5185630866709658
aF-24.066339056123113
aF-19.236982480959924
aF-34.094863005725557
aF-3.022736476772991
aF2.0550059084787335
aF-20.391241306168894
aF-23.560328457068337
aF-7.2304805865261699
aF-2.5642068162120211
aF-15.753733937807468
asI182
(lp184
F-19.092921269025894
aF-22.604911543581593
aF-16.734841517645293
aF-19.425003664914286
aF-27.602322818821847
aF-18.452971054959306
aF-21.839555554077961
aF-18.14462844934971
aF-12.662272208299598
aF-15.347719126893992
aF-20.193590319461435
asI183
(lp185
F-19.259359912310558
aF-10.480684221975082
aF5.9714476937048886
aF-21.248336311240649
aF-22.634829165177933
aF-13.54145995396766
aF-6.0523340665569663
aF-24.748459200907334
aF-20.024620593128972
aF-25.114440946362137
aF-6.8476002999115479
aF3.6955292365075252
aF-21.636792297520628
aF-25.477573329406951
aF-6.5142065047393203
aF-4.350766870572798
aF-20.198266679927968
aF-15.19686519231044
asI184
(lp186
F-21.662596706045775
aF-17.866856749826596
aF-18.950222732429651
aF-30.951374904538369
aF-6.4919545536797614
aF-7.0279037617155211
aF-21.402754365805833
asI185
(lp187
F2.147865274399706
aF-18.985067525486897
aF-11.445783018134094
aF-8.0832730232739749
aF-22.535354250853459
aF-15.671047035085323
aF-18.889103770451698
aF-16.56608819505675
aF-27.858261825817408
aF-21.983500313235155
aF-6.3341317794214405
aF-18.792387893652446
aF-32.064599869653094
aF-25.00014470250207
asI186
(lp188
F5.1634964145311528
aF-19.424779532342868
aF-16.251984336159197
aF-4.7901907094881437
aF-19.538741037692745
aF-14.456017381924539
aF-8.9048364941915423
aF3.520866169824231
aF-13.180990708357612
aF-19.811292896041181
aF-11.637310311636526
aF0.24095747851355043
aF-20.772057074215084
asI187
(lp189
F2.3342573653219461
aF-6.6750360960542139
aF-19.036711316479483
aF-9.9063719985423262
aF-21.383022068021546
aF-12.293129365715785
aF-23.192112245376819
aF-26.229130247851202
aF-14.028868934108687
aF-19.972273127084662
aF-0.58380033192912606
aF-24.719243786222208
aF-18.893290822716466
aF-19.948404826655832
asI188
(lp190
F1.7344629621558454
aF-10.697779263114455
aF-20.202672854942122
aF-13.208711906961327
aF-17.409507975261533
aF-23.493381637218036
aF-17.578098448438269
aF-9.104901604890955
aF-31.432959487118765
aF-30.359938484263495
asI189
(lp191
F-15.171015045315428
aF-18.582043549709738
aF-20.901273742941157
aF-19.536248659267841
aF-19.050769382710769
aF-19.047222002445821
aF-22.481266156829548
aF-23.583984163450424
aF-9.4357640742866664
aF0.089015167622363833
aF2.4987649266462739
aF-34.829553804161336
aF-34.479919389876045
aF-7.8916303819711686
aF-31.238504099247066
asI190
(lp192
F-17.668342578834086
aF-20.474563985935063
aF-22.370946901035339
aF-18.764475535320543
aF-20.444250650798097
aF-20.982047415052108
aF-24.348132878972564
aF-7.1529003608381032
aF3.6075026959032215
aF-1.7434238252947551
aF-35.284970128345677
aF-26.880542859766095
aF-3.1545815794521133
aF-33.493182064686408
asI191
(lp193
F-18.848418212312509
aF-15.193368802873806
aF-15.807439908866684
aF-21.760763065018565
aF-18.415748688598256
aF-13.510034514789197
aF9.3776204754420007
aF-20.640739558272855
aF-19.623911929889388
aF-19.627913234265947
asI192
(lp194
F-12.168103076676204
aF-19.117542622881075
aF-18.910020817017198
aF-19.159945929973787
aF-1.2151090449589645
aF-21.892584382333141
aF-12.219399849670708
aF-2.9447281445567057
aF6.4336593456481523
aF7.9949353563140448
aF-25.107169890642353
aF-31.2925116188853
aF-22.852844645598495
aF-24.903699071591689
aF-13.875541677901566
asI193
(lp195
F-21.19447478605943
aF-18.69754203063988
aF-17.455874476780423
aF-23.312270119460777
aF-18.879518495964049
aF-13.363621405332481
aF-18.752671143927174
aF-11.792077617858695
aF1.6293570085948232
aF-15.334927728385566
aF-24.061606216551993
asI194
(lp196
F-13.560012764443925
aF-6.8493015435473978
aF-11.091486354257995
aF-8.1860043562544433
aF6.8796922326406076
aF-18.449772645990876
aF-29.462966929918792
asI195
(lp197
F4.8547301707985753
aF-9.0571394361543014
aF5.0230880843645593
aF6.2497927470682839
aF-8.118861707649387
aF-2.0785856559922706
aF-18.655361417277419
aF-19.251658103705239
asI196
(lp198
F-36.878084758270489
aF-20.301429104690087
aF-7.6428771572379759
aF-4.3927981471762223
aF-28.421496414272482
asI197
(lp199
F-6.6257495824856534
aF-19.067532393438597
aF-9.8310434779903488
aF-19.251951346480865
aF-17.04294108647548
aF-21.840913310209487
asI198
(lp200
F5.2527299253670634
aF-20.802626476890808
aF-19.144657341716339
aF-21.65470353629928
asI199
(lp201
F-24.551240848341791
aF-23.768956960950007
aF-34.269626435802152
aF7.6223370403968431
aF4.6582900910002394
aF-22.133612155246112
aF-20.874803977216487
aF-0.35403755680484039
aF-26.404655632769348
asI200
(lp202
F-12.026662724620934
aF-21.63991757889471
aF1.7267003629208091
aF-18.825027522674176
aF0.2855425951364623
aF-20.474900771032651
asI201
(lp203
F-8.502473195632291
asI202
(lp204
F3.2080286840859742
asI203
(lp205
F-6.3533646390847878
asI204
(lp206
F-26.231617494918623
aF-32.839019921119686
as.