(dp1
I2
F-31.766620075359597
sI3
F-20.407545865108659
sI4
F-27.712488054819573
sI6
F-24.693655277624885
sI9
F-30.577746434422892
sI10
F-9.5241689198376491
sI15
F-21.620992381422127
sI18
F-0.90952703544996893
sI19
F-25.714256471717931
sI21
F-12.488676715463583
sI26
F-28.529822438746123
sI29
F-31.398276232112622
sI41
F-14.086444301226479
sI42
F-16.374703587983959
sI43
F-27.894385958802587
sI46
F-23.204130983837359
sI49
F-35.015720438030456
sI51
F-24.822469599441376
sI53
F-23.497289044915476
sI54
F-18.964062206399007
sI56
F-14.631135677436745
sI58
F-16.754660799074685
sI59
F-40.487518112600185
sI61
F-22.633428125825318
sI63
F-16.976709347365158
sI65
F-14.693178294330352
sI66
F-16.317441950512119
sI67
F-31.924615216902708
sI68
F-21.732177950336762
sI71
F-17.03874139092747
sI72
F-15.841911031243541
sI73
F-32.79201164251927
sI77
F-41.427134734909885
sI78
F-30.547511035337436
sI83
F-16.20158250520771
sI84
F-19.796503783491204
sI85
F-40.858578068963226
sI87
F-23.785377697006837
sI89
F-25.884227661845642
sI90
F-24.249230232409417
sI91
F-19.373531447721462
s.