(dp1
I1115
I2
sI1116
I2
sI1117
I2
sI1118
I4
sI1122
I19
sI1123
I15
sI1124
I10
sI1125
I18
sI1126
I6
sI1127
I9
sI1128
I18
sI1130
I10
sI1131
I15
sI1132
I18
sI1134
I19
sI1135
I21
sI1136
I18
sI1138
I19
sI1139
I29
sI1140
I21
sI1141
I21
sI1142
I19
sI1143
I18
sI1144
I41
sI1145
I29
sI1147
I26
sI1148
I29
sI1150
I26
sI1151
I29
sI1152
I26
sI1153
I18
sI1154
I41
sI1155
I51
sI1157
I26
sI1158
I21
sI1159
I26
sI1160
I41
sI1161
I49
sI1162
I42
sI1163
I51
sI1165
I41
sI1166
I54
sI1167
I53
sI1168
I56
sI1169
I43
sI1170
I49
sI1171
I43
sI1172
I66
sI1173
I51
sI1174
I49
sI1175
I46
sI1176
I53
sI1177
I53
sI1179
I56
sI1180
I58
sI1181
I54
sI1182
I46
sI1183
I56
sI1184
I59
sI1185
I63
sI1186
I61
sI1187
I73
sI1188
I65
sI1189
I72
sI1190
I67
sI1191
I66
sI1192
I65
sI1194
I73
sI1195
I72
sI1196
I68
sI1197
I77
sI1198
I65
sI1199
I71
sI1200
I73
sI1201
I73
sI1202
I72
sI1203
I77
sI1204
I78
sI1205
I84
sI1207
I83
sI1209
I83
sI1210
I77
sI1211
I84
sI1212
I83
sI1213
I84
sI1214
I83
sI1215
I78
sI1216
I85
sI1217
I87
sI1219
I91
sI1221
I89
sI1222
I90
sI1223
I91
sI1225
I90
s.