(dp1
I1
F-14.714975216749167
sI3
F-22.0956201926152
sI6
F-9.4884322874293332
sI8
F-11.259818974279582
sI12
F-13.632865929404659
sI14
F-37.020670935722492
sI17
F-8.4628234010730097
sI19
F-17.692772260829727
sI20
F-19.063455906371146
sI21
F-23.796840046544702
sI22
F10.726326476010456
sI24
F-10.941619030356208
sI26
F-18.540435777037914
sI28
F-6.2666982493370824
sI33
F9.5655640896409437
sI36
F-14.8288733760524
sI38
F-23.151582351169452
sI39
F7.8768328946847816
sI41
F-11.506156129134581
sI44
F-38.543747398081024
sI46
F-25.56934739230492
sI48
F-22.474785096385887
sI49
F-30.570211234486919
sI50
F-28.111413051201481
sI51
F-23.916463478391776
sI59
F-10.659233695358722
sI62
F-22.760806171936437
sI63
F-18.804908582292938
sI70
F-24.95910216141489
sI71
F-35.816179886455885
sI73
F-24.064722102702603
sI76
F-20.528547694339153
sI77
F-33.31725140051941
sI78
F-28.837791417851051
sI80
F-6.7634218875454053
sI81
F-26.054702222315072
sI82
F-18.675124088668937
sI84
F-24.01289896302049
sI85
F-18.537481687392415
sI86
F-19.801352536752361
sI92
F-19.102615514363777
sI93
F10.585854100550904
sI94
F-19.218716031272677
sI95
F-11.05624810542227
sI97
F-30.679083833900052
sI99
F-57.475407077563062
sI101
F-24.122822032266455
sI105
F-39.446683093120214
sI108
F-28.987124705412526
sI109
F-24.378572575709484
sI110
F-32.277868321372694
sI112
F-33.193004967997609
sI113
F-15.303034001106468
sI114
F-41.690957330773017
sI115
F-27.215579103961758
sI119
F-12.46088654235146
sI123
F-20.591856979296679
sI124
F-13.511193441948265
sI126
F-30.302448397091183
sI127
F-22.997710948395337
sI129
F-15.96770806930968
sI130
F-18.478702073113851
sI132
F-45.488584777791075
sI133
F-35.682515395701785
sI134
F-21.379060692257227
sI136
F-21.99650214838276
sI137
F-23.393356219494336
sI140
F-32.436687982887562
sI141
F-29.240624545808132
sI143
F-24.73073898621891
sI144
F-18.374612891689793
sI145
F-21.434308553722985
sI146
F-50.011616797273689
sI147
F-10.192874185791538
sI151
F-28.973231322495309
sI153
F-18.557283288770691
sI155
F-16.493453574127415
sI156
F-47.797276328605449
sI157
F-8.0140478988113841
sI159
F-10.921209977738314
sI161
F-19.259262613189122
sI164
F-17.813010119239678
sI165
F-12.306511162118994
sI169
F-11.05919430318184
sI171
F-33.037140517198665
sI175
F-20.291419184091041
sI178
F-37.246487445557932
sI181
F-24.59975702992007
sI182
F-18.471112666397559
sI184
F-36.698757923647776
sI189
F-13.383764197932223
sI193
F-46.672494032732075
sI194
F-18.725297787547859
sI196
F-18.883585541375552
sI198
F-16.293427638572325
sI199
F-40.248604506159182
sI204
F-41.150364859448672
sI205
F-15.307340409081391
sI207
F-16.102752989374608
sI208
F-0.42164407110048785
sI209
F-7.954001115943413
sI210
F-25.295723268510613
sI211
F1.4151457099217168
sI212
F-20.740307958855411
sI213
F-15.771026869466255
sI214
F-26.347368727661092
sI218
F-16.046570331404055
sI223
F-25.211008626545663
sI224
F-19.717106864441064
sI225
F-8.8739538545526102
sI226
F-36.750586471341038
sI228
F-29.04501781053338
sI231
F-44.492860788196481
sI232
F-34.240245824825536
sI233
F-16.631161588061062
sI235
F-13.104389194717101
sI237
F-31.668187002938822
sI238
F-20.215583142633108
sI239
F-20.006985702418831
sI242
F-40.465991662601226
sI244
F-19.373965861430335
sI245
F-51.133513025561101
sI247
F-24.278134709196564
sI248
F-22.594034239413588
sI250
F-37.787022278062651
sI251
F-22.318967849982556
sI253
F-14.781905071090975
sI255
F-18.570547936646193
sI258
F-17.147729269473373
sI259
F-23.64930032144386
sI262
F-25.475656616810852
sI263
F-20.243116697560296
sI268
F-28.919766551463425
sI273
F-19.849295153274568
sI274
F-34.976334555746064
sI276
F-32.370001638266828
sI277
F-49.606510789317682
sI278
F-21.923035019150461
sI281
F-16.651683972239709
sI282
F-20.040042178269232
sI284
F-24.003268904880414
s.