(dp1
I0
F-20.547694495003128
sI1
F-20.081152605243176
sI2
F-20.91304648919521
sI3
F-25.93238783457636
sI4
F-25.792006961590431
sI5
F-19.825094615511006
sI7
F-26.62356919861071
sI8
F-20.348351339712863
sI9
F-29.801241794843691
sI10
F-22.957473117804909
sI11
F-22.951151909739551
sI13
F-15.364080231347231
sI14
F-19.982830651221278
sI16
F-31.772818023113842
sI17
F-35.981967974854953
sI18
F-27.524746066135833
sI19
F-25.112662476353975
sI21
F-9.6548598048606635
sI22
F-18.437676117993718
sI24
F-12.618975479689567
sI25
F-28.582274873942353
sI26
F-20.400172337989176
sI27
F-18.657386200478655
sI28
F-19.239940975751722
sI29
F-22.940577097160045
sI31
F-20.71369976674346
sI32
F-21.029048671227216
sI33
F-24.263771976527764
sI34
F-23.369550859948319
sI38
F-22.370240893605413
sI39
F-16.158856027272805
sI40
F-1.3837940756103961
sI42
F-14.497073458974938
sI43
F-25.579539878199824
sI44
F-19.01017383704189
sI45
F-25.927593147914621
sI46
F-17.108951445880905
sI47
F-25.796195004377225
sI48
F-28.681619963803016
sI49
F-43.466467188964799
sI50
F-9.3420032448453014
sI51
F-21.900818050896547
sI53
F-12.796444631454705
sI54
F-29.491899838001416
sI55
F-20.777956418090255
sI56
F-32.064708903776804
sI57
F-38.154551556189332
sI58
F-18.967483014337375
sI59
F-19.551630074054756
sI60
F-19.521690661735903
sI61
F-11.683433528617115
sI62
F-33.726894488794258
sI63
F-35.536977312143122
sI65
F-23.559382164772629
sI66
F-31.1998652238658
sI67
F-23.484969767292
sI68
F-10.775374403679848
sI69
F-23.32977829213587
sI70
F-3.283803025251359
sI71
F-7.5275271922107549
sI72
F-10.837914924813148
sI73
F-25.982938487990907
sI75
F-13.572654521433833
sI76
F-23.837273422076564
sI77
F-22.084184788183222
sI78
F-19.746952891333009
sI79
F-24.954884532549926
sI81
F-28.868160294293745
sI82
F-20.906024163528485
sI83
F-7.2363695297792532
sI84
F-31.121072345228768
sI85
F-23.683738970146322
sI86
F-16.278669401967107
sI87
F-28.803413262127819
sI88
F-19.752046940955111
sI89
F-18.466898452678407
sI92
F-9.4024554131220839
sI93
F-21.321978613553497
sI94
F-18.895398798558659
sI95
F-26.388918186568503
sI97
F-20.008852458355008
sI98
F-10.156138719165938
sI99
F-12.969878194151164
sI101
F-21.281708054625625
sI102
F-25.051183019160788
sI103
F-19.368636439375763
sI104
F-29.486887943123634
sI105
F-13.039831683400848
sI106
F-17.453887158683045
sI107
F-24.343146797800273
sI108
F-14.327381441397861
sI109
F-29.278150443248364
sI111
F-21.703908773246894
sI112
F-19.341707147162424
sI113
F-15.56843130166807
sI117
F-26.968984193477127
sI118
F-32.598585605536414
sI119
F-32.040298183384692
sI120
F2.7113185129443593
sI121
F-21.954349441442957
sI122
F-30.189348413150839
sI124
F-20.374459639006716
sI125
F-22.077470408404935
sI126
F-27.2675794908195
sI128
F-19.572860832558675
sI129
F-2.1749762376428663
sI130
F-11.562768432762766
sI131
F-23.543090519956849
sI132
F-20.775087939070886
sI133
F1.8577111284967316
sI134
F-20.504580615688425
sI135
F-35.723098194598734
sI136
F-32.054354993187417
sI138
F-21.077393528576437
sI140
F-26.503606311444173
sI141
F-30.882834490230678
sI142
F-23.344391069638959
sI143
F-12.066024476613862
sI144
F-24.34254587385044
sI145
F-18.951024073003424
sI146
F-8.8810926711992693
sI147
F-11.364572826359094
sI148
F-20.439826046314877
sI149
F-20.699138413106724
sI150
F-24.781735631190315
sI151
F-21.956952762790706
sI152
F-34.543531603725029
sI153
F-20.060826214145706
sI154
F-9.3379258413547745
sI155
F-18.297653873901723
sI156
F-19.829158065392477
sI158
F1.0453241904421731
sI159
F-11.245257357305917
sI160
F-29.016436371537793
sI161
F-27.219708772659317
sI162
F-18.788036510401923
sI163
F-30.277293678843094
sI164
F-9.7011310322681084
sI165
F-21.199024201228241
sI167
F-23.76156338609502
sI168
F-25.986234828730502
sI169
F-25.260227669882283
sI170
F-18.636114730292462
sI171
F-16.73206474083554
sI172
F-21.7384979829028
sI173
F-15.996224755931024
sI174
F-25.474570235848745
sI176
F-8.9238325775840508
sI177
F-30.242484373321332
sI178
F-11.634387466307047
sI179
F-20.518226552725338
sI180
F-18.443864539590294
sI181
F-22.633082260230069
sI182
F-20.119925130525502
sI183
F1.2766138069079744
sI185
F-22.854140704410383
sI186
F-20.021682240607547
sI187
F-12.860275246868312
sI188
F-23.319404519685563
sI189
F-21.694017794915027
sI190
F-21.638454572278818
sI191
F-23.314552126206664
sI192
F-21.821430085360305
sI193
F-18.799197164318315
sI194
F-8.3940249982947677
sI196
F-20.220313612458426
sI197
F-18.582176550189502
sI198
F-47.478732742079472
sI199
F-19.95472317691582
sI200
F-22.766074863805983
sI201
F-24.236514083445712
sI202
F-36.360004437361198
sI203
F-33.930357756074699
sI204
F-20.910539551382271
sI205
F-18.413436065456068
sI206
F-1.6110827734584348
sI208
F-29.887652371463844
sI209
F-1.7691088333838394
sI210
F-27.933571456611105
sI211
F-11.457376166401033
sI212
F-7.8151584111948864
sI213
F-11.989992701874314
sI214
F-23.397781092481324
sI215
F-28.265914138061618
sI216
F-22.023490992318045
sI217
F-23.566258674771319
sI218
F-29.296625891695186
sI219
F-23.952554159529399
sI220
F-40.440677590326061
sI221
F-45.647089632828326
sI223
F-27.257731434459401
sI224
F-18.660832905423334
sI225
F-23.841413631311923
sI227
F-24.420813479275424
sI228
F-17.821481684444777
sI230
F-31.738516652953862
sI232
F-19.062093272765225
sI233
F-26.997754816840839
sI234
F-23.740546724491111
sI235
F-14.309785273426925
sI236
F-17.884778539171165
sI237
F-24.395782178452279
sI239
F-24.529268199997915
sI241
F-19.548157839685359
sI243
F-13.957859084334046
sI244
F-17.679116162183732
sI245
F-26.51398588566633
sI246
F-24.137294953142359
sI247
F-0.76708653650929648
sI248
F-30.907406557759387
sI249
F-33.166326337116104
sI251
F-20.886966749223348
sI252
F-27.709613654892266
sI253
F-31.672093265182596
sI254
F-20.92322921921162
sI255
F-13.321921361800619
sI256
F-21.210123153326293
sI257
F-19.689909391842647
sI259
F-19.470502569914217
sI260
F-26.138910063692677
sI261
F-18.376338450968461
sI262
F-43.216608657243754
sI264
F-12.127127256458976
sI265
F-30.850453801488356
sI266
F-28.76083154398421
sI267
F-22.252398645738822
sI268
F-32.09908761604656
sI269
F-18.319104966755447
sI270
F-27.877728048420579
sI271
F-10.135529285321795
sI273
F-23.603470249286204
sI274
F-24.366480441100435
sI275
F-13.905146017905707
sI276
F-23.497702276252298
sI277
F-22.254347425809385
sI279
F-25.278115072801256
sI280
F-21.23364080375606
sI281
F-6.7112226302733262
sI282
F-11.638760035805205
sI283
F-23.815523623874583
sI284
F-19.788627028593595
sI285
F-25.87012704837619
sI286
F-3.7959216216618472
sI287
F-8.8292163591596733
sI289
F-8.8077045918093972
sI292
F-22.683740929831743
sI293
F-18.762901346853056
sI294
F-39.193606826671683
sI296
F-21.66258596776791
sI297
F-23.502437976579643
sI298
F-20.231833236539032
sI299
F-20.67171226748161
sI300
F-20.632227848563232
sI302
F-10.942336682896268
sI303
F-7.4859572583963825
sI304
F-22.096018591327251
sI305
F-19.440034812799951
sI306
F-31.884760103324581
sI308
F-6.5089632997416231
sI310
F-21.219246867106492
sI311
F-22.858233567525957
sI312
F-9.5077287104360835
sI313
F-28.419909233320254
sI314
F-22.985749139087801
sI315
F-32.316067573544075
sI316
F-12.656615184856051
sI318
F-9.3565071014427872
sI319
F-20.041916290708016
sI321
F-20.880645773570109
sI322
F-20.137390471909569
sI323
F-22.759034494999568
sI324
F-36.720560711796224
sI325
F-34.236683810448071
sI326
F-9.8505189569834783
sI327
F-9.781256959060272
sI328
F-26.974042926393395
sI329
F-18.44086931603178
sI330
F-20.589875679864122
sI334
F-20.810473467060945
sI335
F-24.801770174183105
s.