(lp1
I176
aI151
aI175
aI92
aI184
aI155
aI88
aI192
aI94
aI188
aI87
aI134
aI190
aI5
aI6
aI19
aI37
aI12
aI18
aI41
aI106
aI599
aI336
aI352
aI359
aI392
aI108
aI124
aI145
aI178
aI179
aI328
aI344
aI119
aI123
aI674
aI386
aI613
aI340
aI345
aI603
aI639
aI609
aI676
aI615
aI621
aI657
aI473
aI659
aI663
aI664
aI58
aI68
aI72
aI80
aI57
aI448
aI402
aI482
aI451
aI404
aI436
aI500
aI453
aI406
aI456
aI460
aI445
aI399
aI400
aI498
aI467
aI488
aI475
aI412
aI429
aI581
aI519
aI522
aI471
aI444
aI571
aI510
aI313
aI285
aI270
aI721
aI761
aI291
aI783
aI280
aI796
aI714
aI120
aI150
aI177
aI130
aI142
aI147
aI95
aI23
aI36
aI42
aI239
aI202
aI195
aI227
aI235
aI245
aI222
aI354
aI389
aI366
aI353
aI370
aI356
aI373
aI623
aI626
aI629
aI396
aI605
aI637
aI606
aI638
aI464
aI433
aI502
aI360
aI329
aI442
aI334
aI446
aI335
aI415
aI463
aI432
aI401
aI452
aI485
aI407
aI457
aI489
aI458
aI478
aI431
aI484
aI422
aI443
aI586
aI524
aI74
aI528
aI71
aI568
aI509
aI585
aI304
aI306
aI298
aI267
aI268
aI752
aI322
aI292
aI314
aI271
aI287
aI163
aI122
aI180
aI166
aI257
aI209
aI249
aI251
aI205
aI229
aI230
aI255
aI43
aI49
aI53
aI248
aI144
aI169
aI164
aI115
aI642
aI648
aI624
aI368
aI385
aI371
aI326
aI361
aI362
aI332
aI364
aI333
aI349
aI60
aI61
aI438
aI423
aI411
aI491
aI492
aI410
aI474
aI495
aI545
aI503
aI558
aI537
aI320
aI310
aI296
aI312
aI297
aI580
aI549
aI551
aI521
aI553
aI554
aI523
aI559
aI596
aI570
aI541
aI550
aI590
aI592
aI539
aI540
aI766
aI576
aI546
aI515
aI582
aI556
aI560
aI531
aI532
aI534
aI536
aI168
aI121
aI125
aI141
aI165
aI158
aI167
aI104
aI102
aI148
aI149
aI200
aI224
aI241
aI259
aI243
aI236
aI100
aI153
aI170
aI13
aI112
aI369
aI341
aI618
aI391
aI611
aI647
aI622
aI634
aI668
aI428
aI273
aI308
aI309
aI281
aI282
aI316
aI547
aI548
aI518
aI587
aI525
aI574
aI319
aI724
aI702
aI520
aI687
aI563
aI533
aI566
aI508
aI511
aI135
aI86
aI1
aI25
aI103
aI2
aI17
aI20
aI22
aI40
aI52
aI96
aI33
aI139
aI348
aI628
aI459
aI418
aI420
aI486
aI562
aI413
aI527
aI769
aI740
aI742
aI746
aI685
aI755
aI757
aI289
aI274
aI323
aI276
aI109
aI114
aI3
aI11
aI14
aI201
aI260
aI105
aI140
aI208
aI193
aI261
aI228
aI197
aI198
aI254
aI191
aI223
aI231
aI99
aI654
aI604
aI669
aI608
aI640
aI641
aI673
aI675
aI644
aI653
aI627
aI630
aI671
aI610
aI617
aI804
aI813
aI794
aI529
aI593
aI505
aI567
aI82
aI83
aI801
aI809
aI785
aI786
aI790
aI795
aI797
aI496
aI469
aI470
aI512
aI729
aI736
aI771
aI715
aI686
aI694
aI759
aI697
aI517
aI561
aI564
aI507
aI535
aI116
aI136
aI146
aI45
aI212
aI213
aI221
aI199
aI330
aI351
aI667
aI670
aI468
aI631
aI632
aI416
aI347
aI483
aI421
aI494
aI806
aI779
aI811
aI788
aI552
aI555
aI589
aI543
aI321
aI301
aI286
aI703
aI161
aI186
aI183
aI173
aI252
aI113
aI118
aI128
aI162
aI110
aI126
aI132
aI651
aI655
aI656
aI660
aI607
aI643
aI652
aI394
aI357
aI376
aI577
aI538
aI572
aI275
aI279
aI295
aI311
aI299
aI300
aI269
aI258
aI665
aI133
aI111
aI327
aI384
aI393
aI331
aI381
aI480
aI481
aI466
aI288
aI814
aI819
aI789
aI793
aI799
aI578
aI588
aI0
aI800
aI782
aI817
aI818
aI792
aI594
aI506
aI152
aI15
aI31
aI44
aI50
aI263
aI238
aI217
aI226
aI234
aI250
aI220
aI244
aI246
aI101
aI117
aI338
aI602
aI455
aI430
aI417
aI405
aI479
aI803
aI810
aI780
aI816
aI583
aI493
aI565
aI598
aI526
aI595
aI477
aI684
aI753
aI708
aI681
aI7
aI48
aI34
aI16
aI32
aI339
aI374
aI363
aI383
aI403
aI419
aI476
aI784
aI728
aI513
aI516
aI9
aI216
aI204
aI156
aI174
aI64
aI65
aI62
aI645
aI808
aI812
aI283
aI776
aI777
aI290
aI278
aI284
aI318
aI722
aI4
aI219
aI137
aI93
aI397
aI367
aI365
aI372
aI358
aI439
aI425
aI426
aI487
aI447
aI530
aI303
aI302
aI91
aI47
aI325
aI646
aI616
aI600
aI666
aI375
aI379
aI382
aI398
aI575
aI89
aI24
aI55
aI337
aI70
aI597
aI187
aI21
aI26
aI30
aI35
aI342
aI388
aI346
aI66
aI78
aI434
aI454
aI579
aI544
aI738
aI712
aI720
aI569
aI317
aI160
aI264
aI28
aI98
aI650
aI625
aI437
aI472
aI709
aI744
aI159
aI157
aI265
aI497
aI307
aI427
aI774
aI218
aI262
aI196
aI820
aI56
aI85
aI387
aI612
aI424
aI465
aI499
aI277
aI733
aI27
aI29
aI46
aI591
aI542
aI762
aI131
aI240
aI206
aI247
aI225
aI194
aI210
aI237
aI253
aI207
aI215
aI76
aI84
aI77
aI75
aI39
aI256
aI242
aI633
aI815
aI504
aI737
aI154
aI395
aI449
aI450
aI294
aI266
aI743
aI745
aI584
aI143
aI51
aI10
aI97
aI501
aI315
aI734
aI751
aI214
aI67
aI414
aI462
aI185
aI90
aI8
aI658
aI661
aI672
aI63
aI73
aI69
aI435
aI408
aI409
aI490
aI760
aI233
aI203
aI211
aI514
aI305
aI138
aI614
aI802
aI775
aI791
aI717
aI693
aI739
aI772
aI716
aI764
aI181
aI601
aI758
aI730
aI701
aI573
aI735
aI127
aI54
aI171
aI620
aI441
aI557
aI805
aI748
aI749
aI688
aI355
aI390
aI350
aI440
aI778
aI781
aI636
aI232
aI81
aI59
aI677
aI754
aI727
aI38
aI705
aI773
aI747
aI807
aI798
aI272
aI293
aI710
aI732
aI787
aI683
aI172
aI691
aI711
aI378
aI707
aI723
aI756
aI696
aI767
aI377
aI129
aI649
aI79
aI635
aI699
aI768
aI692
aI380
aI682
aI713
aI680
aI725
aI678
aI689
aI343
aI461
aI770
aI662
aI750
aI718
aI763
aI731
aI741
aI679
aI695
aI719
aI690
aI704
aI706
a.