(dp1
I2
F-23.574499069540494
sI3
F-24.468094831827869
sI4
F-30.939191848008278
sI6
F-46.02503456912541
sI7
F-23.034368954070715
sI8
F-20.395847573713993
sI11
F-19.725899005407967
sI13
F-18.515800349905788
sI14
F-39.591230987420246
sI15
F-29.422659836725984
sI16
F-15.637260631030472
sI19
F-19.835252361845349
sI21
F-18.552532036166696
sI22
F-26.20366192212353
sI25
F-30.872593779436201
sI26
F-18.558684132876834
sI27
F-23.422917652499564
sI30
F-22.966575157698969
sI31
F-13.744417650681896
sI33
F-15.274350684220423
sI34
F-25.891653640436076
sI35
F-19.114319072730325
sI37
F-39.303092024780454
sI38
F-11.256259589851396
sI40
F-16.969100122232504
sI41
F-11.895661082424908
sI42
F-10.982569311486543
sI43
F-43.964124672216556
sI45
F-44.57888643102153
sI46
F-30.109745933162856
sI47
F-24.357417191617969
sI48
F-25.188163931181634
sI50
F-21.975243378957742
sI51
F-38.61078009901621
sI53
F-28.9710178699967
sI54
F-21.033537545525888
sI55
F-24.6980123113714
sI56
F-18.698886972320665
sI57
F-26.723979457737414
sI61
F-21.836096944449167
sI62
F-21.597362698380223
sI65
F-15.692109949071295
sI66
F-24.51886990831197
sI67
F-15.658682523151128
sI68
F-22.479067156423909
sI70
F-18.052184892784624
sI71
F-27.184496830862031
sI72
F-20.030469280034126
sI73
F-29.79044614637148
sI74
F-19.900741649797794
sI75
F-18.012157213206606
sI78
F-18.051854786344734
sI80
F-19.293982248889947
sI81
F-21.271525964729349
sI83
F-18.313533116518812
sI84
F-34.782826256270369
sI85
F-24.157513364140598
sI87
F-24.593904881033694
sI88
F-28.283047847279732
sI89
F-21.576292652756806
sI90
F-24.44854135594386
sI91
F-23.024939637641239
sI93
F-39.264502742159124
sI95
F-17.69584871848096
sI98
F-33.013358313866547
sI99
F-16.306198978633972
sI101
F-40.200772458037846
sI104
F-32.315098487535721
sI105
F-26.473605891717128
sI106
F-24.275886964730603
sI107
F-22.408135595435809
sI109
F-23.870911379266673
sI110
F-30.02467132817813
sI111
F-36.238256377002315
sI112
F-20.919249624845975
sI113
F-40.42719730522839
sI114
F-20.518729935653454
sI116
F-23.976479112737991
sI117
F-24.112605175632993
sI119
F-48.962151517056554
sI120
F-21.180623933839058
sI121
F-35.02417576218366
sI122
F-24.561292414763557
sI123
F-29.843654079945793
sI125
F-28.119969876225568
sI131
F-34.070025377084818
sI132
F-31.387642108659378
sI134
F-20.322370122891215
sI135
F-17.077372126941128
sI136
F-35.323185299624285
sI137
F-25.682031707610506
sI140
F-42.086561418829618
sI141
F-38.582059455466066
sI142
F-28.736623802382397
sI143
F-26.953047271833753
sI144
F-34.278383092756997
sI146
F-17.377456678753688
sI147
F-28.250754664939848
sI148
F-27.900399919799497
sI150
F-28.376886390884721
sI151
F-18.553050679100679
sI152
F-32.613429538709596
sI154
F-30.191136583707674
sI155
F-22.482076008405897
sI156
F-16.879965579141512
sI157
F-32.095701896923657
sI158
F-36.451313662435908
sI159
F-26.004398358579209
sI160
F-30.343050093451168
sI161
F-32.819714708824407
sI163
F-35.441991555510299
sI165
F-29.647683134886677
sI168
F-21.714057991684001
sI171
F-29.053047731033629
sI172
F-21.785480173706986
sI173
F-25.512036594923686
sI174
F-35.020487561997342
sI176
F-36.240061994410937
sI177
F-31.212691058573924
sI179
F-29.150752805290608
sI180
F-28.917344459478315
sI181
F-18.913030181873438
sI183
F-32.387757706027571
sI184
F-35.195534702071711
sI185
F-26.303726350575076
sI186
F-40.683830434392561
sI187
F-19.588807348024829
sI188
F-42.909065482586271
sI190
F-29.026470253806082
sI191
F-29.838521434878842
sI192
F-18.766836871405772
sI194
F-33.08869879130161
sI195
F-30.270531834907388
sI196
F-12.352179791961049
sI197
F-45.360306967851017
sI199
F-36.134049199233843
sI200
F-19.793002341481355
sI202
F-18.980992204916788
sI203
F-21.388500736633119
sI206
F-28.777316114423755
sI207
F-15.275020671483475
sI208
F-15.543305706885263
sI209
F-20.952894793143287
sI211
F-44.57633889766494
sI212
F-35.64942839046023
sI213
F-36.692927926737426
sI214
F-29.284231303570778
sI215
F-55.479956604192779
sI216
F-49.262674705944917
sI217
F-28.052880704095628
sI218
F-19.639636853846127
sI219
F-20.155679154541247
sI220
F-25.045363881594866
sI221
F-33.322457581415534
sI222
F-22.349482301641046
sI223
F-27.758597860008365
sI224
F-40.921878873849337
sI226
F-33.684362331945906
sI227
F-32.271257076735438
sI228
F-13.502675043217351
sI229
F-29.369683874577987
sI230
F-22.505641258290069
sI232
F-17.109804634400803
sI233
F-8.8045901205268962
sI234
F-23.443086443998311
sI235
F-27.731211286524243
sI236
F-22.966442120968765
sI237
F-21.579055530147158
sI238
F-23.644484478565445
sI240
F-21.199707187128269
sI241
F-21.382725831669518
sI243
F-22.127375864046115
sI244
F-29.708667156479407
sI245
F-36.914311778437451
sI246
F-25.289808873332575
sI247
F-22.391847011263735
sI249
F-31.047233103079378
sI250
F-22.679637796050471
sI251
F-27.40544952480704
sI252
F-26.501410056306824
sI253
F-20.069937252313011
sI255
F-20.41089959570769
sI256
F-22.131754859385708
sI257
F-19.191049379641669
sI258
F-22.078470860362273
sI260
F-37.178273972485698
sI261
F-18.99854845032732
sI262
F-20.077388893059279
sI263
F-12.185725848940592
sI264
F-23.169953958989055
sI265
F-21.3963607533627
sI266
F-22.113526043951637
sI267
F-23.496221327034547
sI269
F-32.502953094482919
sI270
F-16.369664766182922
sI272
F-20.801551016225801
sI274
F-22.740462477978511
sI276
F-25.604447392265413
sI277
F-17.472113243347209
sI278
F-21.77448070461341
sI279
F-23.849288587284747
sI280
F-21.193457497703491
sI281
F-27.229623355485103
sI282
F-31.841195500985663
sI283
F-48.314699453883463
sI284
F-29.730279318165742
sI285
F-23.464917518706287
sI286
F-28.968596737074165
sI287
F-24.937925752930028
sI288
F-30.514327604813673
sI289
F-24.842092848573401
sI290
F-26.938814575467333
sI291
F-39.110806793849164
sI293
F-31.8818234263086
sI296
F-27.287753842130002
sI298
F-15.724513588202498
sI299
F-11.73916485113466
sI300
F-21.341914064369121
sI301
F-30.790375326137195
sI302
F-21.533735600045986
sI303
F-18.402055100680911
sI304
F-36.7824354151184
sI305
F-21.886395432957215
sI306
F-35.451476890005623
sI307
F-26.138355831467152
sI308
F-22.191672470766918
sI309
F-34.37860805376954
sI310
F-26.678473262148685
sI311
F-25.334845694741034
sI312
F-43.617842505620828
sI313
F-28.716752627054319
sI314
F-30.169428668466793
sI315
F-25.111759912002697
sI316
F-31.769620150150715
sI317
F-30.580016058230314
sI318
F-22.233089766855613
sI319
F-46.172220862040874
sI320
F-18.416525827453626
sI322
F-38.13278948718353
sI323
F-24.168741766167244
sI324
F-25.868485140774951
sI325
F-35.056652931880649
sI326
F-28.635772665208322
sI327
F-21.017333241105831
sI329
F-46.345317198671722
sI330
F-19.64949455885278
sI332
F-28.278356510680425
sI333
F-20.482863886083948
sI335
F-30.026206652537269
sI336
F-33.899507560353896
sI337
F-32.304802962945061
sI340
F-24.702993928503503
sI342
F-40.581258341976508
sI343
F-26.504259047969384
sI344
F-23.824974222196076
sI345
F-18.072437553388113
sI349
F-22.061144221300594
sI350
F-28.585382999709083
sI351
F-32.611683822793296
sI352
F-31.183189979891438
sI354
F-21.22093690223619
sI357
F-31.399913121515297
sI358
F-33.875371772651789
sI359
F-28.848466409421732
sI360
F-32.20162930700036
sI361
F-24.321133356201955
sI363
F-25.484227166844818
sI364
F-32.331209944054024
sI365
F-18.848731603651387
sI367
F-23.77842707688805
sI368
F-35.001052916626548
sI370
F-33.934447105412659
sI372
F-27.918004760485232
sI375
F-34.482793520006567
sI376
F-29.535183421068751
sI377
F-28.573168406360949
sI378
F-19.630107303082141
sI379
F-19.296061517716851
sI380
F-21.966693861831587
sI381
F-15.322568705807385
sI382
F-19.292722394031301
sI383
F-24.539059810147165
sI385
F-19.793065131501123
sI387
F-36.580029538775534
sI388
F-22.827670985883216
sI389
F-48.571789682199409
sI390
F-36.472893236694375
sI394
F-19.97296747353036
sI395
F-17.148145880979769
sI397
F-33.381025751622573
sI398
F-27.965887407781651
sI399
F-21.126360710117879
sI400
F-39.596357754754379
sI402
F-26.212446611434984
sI405
F-18.577633241399838
sI412
F-35.740991200760831
sI414
F-24.080662267405998
sI415
F-19.820304947197513
sI416
F-25.821322002918237
sI418
F-50.203667396519037
sI419
F-33.651235446215381
sI420
F-37.206396980403184
sI421
F-29.303821607084316
sI422
F-21.631188305263635
sI423
F-41.926568333425863
sI425
F-26.603113862080733
sI426
F-28.877614832700232
sI427
F-22.382649539653599
sI428
F-36.979481398149019
sI429
F-26.393274230436617
sI432
F-24.21962822817963
sI433
F-59.754617385144982
sI435
F-29.278781323435055
sI436
F-28.888702028461694
sI437
F-29.993914780477368
sI438
F-35.136050925977088
sI439
F-33.48522293891196
sI440
F-26.235326810788393
sI441
F-51.524873000784851
sI442
F-20.402840393296344
sI445
F-26.866611705844548
sI446
F-19.326830743032644
sI447
F-31.50856734652163
sI448
F-31.072598489684964
sI450
F-30.251820698153693
sI451
F-21.517168071523827
sI452
F-31.66485577236574
sI453
F-20.172723024143323
sI454
F-24.84873436775996
sI456
F-38.725817546918378
sI458
F-26.668758534400212
sI459
F-22.491266653793929
sI460
F-32.155704978316209
sI461
F-21.381445759598122
sI462
F-24.398226311684425
sI463
F-28.742425760333575
sI465
F-31.506618351302251
sI466
F-30.220341580531539
sI467
F-24.648052152154463
sI468
F-30.019073151348181
sI470
F-19.615649741015687
sI471
F-26.037622864008114
sI472
F-32.761387503524475
sI473
F-19.802644113222442
sI476
F-48.581713567814035
sI477
F-24.272824430292019
sI479
F-22.012609759111385
sI480
F-30.310235397620062
sI483
F-40.988773927786923
sI484
F-38.795492601888313
sI485
F-38.059766113961274
sI486
F-22.839259820304889
sI488
F-25.609404540462165
sI489
F-25.763256621392003
sI490
F-24.053174175354442
sI491
F-46.474665450718533
sI493
F-29.046377912842672
sI494
F-20.333640717433269
sI495
F-28.460304054099552
sI496
F-24.825801747373035
sI497
F-25.724514459243409
sI498
F-52.555956264180011
sI499
F-20.737446011100388
sI500
F-28.460576385470091
sI505
F-32.215505793472232
sI506
F-34.152297749384175
sI507
F-20.799905556135172
sI508
F-17.407297676180377
sI509
F-26.105479757795507
sI510
F-20.657150636618553
sI511
F-26.016328452504041
sI513
F-32.772213921553686
sI514
F-28.509232807280398
sI515
F-32.576407881748253
sI516
F-24.415424517548132
sI517
F-30.322609388311434
sI518
F-29.076721534058976
sI519
F-27.461134946257516
sI520
F-34.28771480930115
sI522
F-18.155786133306236
sI524
F-32.998644027528343
sI526
F-39.129677905353191
sI528
F-23.669745477538953
sI529
F-29.853963582612138
sI530
F-22.017572430477998
sI531
F-25.136742371511389
sI532
F-31.176615392244031
sI533
F-24.476263747104838
sI534
F-27.132446188006
sI537
F-31.129195411782106
sI538
F-31.478889320299118
sI539
F-12.795628871268406
sI540
F-23.607999736302645
sI541
F-21.635516733261341
sI543
F-29.822606659234452
sI544
F-13.933819580388857
sI548
F-26.378847777214716
sI549
F-27.159397817071664
sI550
F-31.435277294093012
sI551
F-23.962152708103176
sI554
F-13.400299217065424
sI555
F-30.017053135171011
sI557
F-22.982554852782755
sI558
F-25.825728831498736
sI559
F-35.346245159832336
sI560
F-30.208558844992751
sI562
F-20.935893482567138
sI563
F-26.617349641527667
sI564
F-23.183901813701624
sI568
F-23.851763678135555
sI569
F-20.791075508320077
sI571
F-31.791119536597691
sI572
F-23.894733851166933
sI575
F-18.585489384580228
sI576
F-25.723460641743785
sI577
F-19.087126591321834
sI578
F-28.702035016298566
sI580
F-26.036051896554795
sI581
F-31.663504229650272
sI582
F-41.724369110808794
sI584
F-33.377669527063702
sI585
F-31.318202125285509
sI586
F-39.001785865008387
sI588
F-21.486128999154317
sI593
F-14.111390499028872
sI594
F-38.179144471452219
sI595
F-18.324712939451274
sI596
F-31.690256121159223
sI597
F-31.365813833417803
sI598
F-21.090920077455877
sI600
F-25.926050124403758
sI602
F-26.713526396975183
sI603
F-24.280811164567098
sI605
F-21.137305356253961
sI606
F-32.113166866646296
sI607
F-37.826243556475376
sI608
F-16.442257329404697
sI609
F-34.866054662252225
sI610
F-32.013839911211619
sI611
F-32.230746309113329
sI612
F-23.76368436037906
sI613
F-29.576552958984877
sI614
F-20.326038422812843
sI615
F-34.496627045568005
sI616
F-39.068513986369709
sI617
F-21.001738820116401
sI619
F-39.480467551939725
sI623
F-21.61314852698132
sI624
F-35.429533363903232
sI625
F-2.1099889870199746
sI626
F-27.223099773574347
sI628
F-32.410925301119306
sI629
F-21.546300321461203
sI630
F-21.196593851253098
sI631
F-50.885489747095193
sI632
F-28.548614386174478
sI635
F-23.060792914459142
sI636
F-46.255727875003956
sI638
F-31.042742623718041
sI639
F-24.245037159100207
sI641
F-27.442980476274457
sI644
F-34.812125066400668
sI646
F-15.967965963139505
sI647
F-24.439016124416227
sI648
F-28.892155224636156
sI649
F-22.389254978790049
sI651
F-16.910212251109243
sI652
F-26.467752142406496
sI653
F-23.533412036109752
sI654
F-25.746033755227842
sI655
F-32.224492579593544
sI657
F-32.967414434251793
sI658
F-40.365042690361747
sI660
F-28.211006118796746
sI661
F-28.001860985623821
sI662
F-18.478025812388893
sI663
F-26.669089631762333
sI664
F-25.406440222786898
sI665
F-33.561734222473646
sI666
F-24.841546960337368
sI669
F-28.299414178569194
sI670
F-21.169957542341606
sI674
F-24.437456981344127
sI677
F-23.630079836480803
sI678
F-27.535474195218882
sI679
F-19.897494038660994
sI681
F-27.448532795376693
sI682
F-22.27153975749583
sI683
F-25.110255953668599
sI684
F-29.931918003352195
sI685
F-30.987188964497335
sI687
F-24.817566991578687
sI688
F-27.198221593855166
sI689
F-23.046004945384396
sI690
F-37.072666447519566
sI691
F-30.110320931777295
sI693
F-20.113055279779417
sI694
F-29.089533502273554
sI697
F-35.596933884072214
sI698
F-36.25994709503226
sI700
F-35.862438833351291
sI701
F-20.09181144178892
sI703
F-29.352962017796756
sI704
F-31.094659684161073
sI710
F-20.762077057142307
sI711
F-27.629587674304474
sI712
F-21.625798625151987
sI713
F-19.185966277292749
sI714
F-24.462103815137198
sI717
F-19.895492211989307
sI719
F-35.979602243639548
sI720
F-24.061408314529174
sI722
F-27.00958161921011
s.