(lp1
I232
aI281
aI158
aI198
aI199
aI1162
aI1183
aI162
aI149
aI1172
aI1210
aI1212
aI655
aI660
aI646
aI678
aI588
aI598
aI637
aI626
aI643
aI736
aI768
aI771
aI803
aI708
aI777
aI752
aI788
aI794
aI652
aI630
aI1062
aI1066
aI1132
aI1073
aI1105
aI1113
aI1121
aI1122
aI1134
aI1141
aI1080
aI1081
aI486
aI488
aI490
aI511
aI575
aI534
aI102
aI95
aI836
aI809
aI909
aI910
aI1250
aI1264
aI825
aI863
aI1033
aI1047
aI1048
aI959
aI960
aI961
aI1026
aI1041
aI1010
aI950
aI953
aI923
aI1020
aI958
aI990
aI516
aI475
aI476
aI536
aI537
aI542
aI543
aI481
aI578
aI508
aI571
aI479
aI368
aI321
aI355
aI296
aI298
aI314
aI299
aI349
aI210
aI211
aI286
aI266
aI270
aI191
aI1157
aI1224
aI1225
aI1165
aI1179
aI1214
aI403
aI656
aI776
aI721
aI728
aI761
aI701
aI765
aI465
aI453
aI439
aI442
aI740
aI775
aI782
aI753
aI792
aI730
aI733
aI734
aI696
aI931
aI53
aI582
aI523
aI1116
aI473
aI1070
aI1075
aI539
aI1086
aI20
aI87
aI808
aI842
aI851
aI826
aI1027
aI1291
aI935
aI1040
aI1003
aI948
aI949
aI982
aI513
aI900
aI901
aI550
aI520
aI916
aI567
aI893
aI1236
aI875
aI878
aI1252
aI857
aI889
aI858
aI860
aI1272
aI1278
aI1234
aI1242
aI1243
aI1258
aI1277
aI500
aI832
aI833
aI834
aI835
aI815
aI848
aI849
aI822
aI264
aI205
aI1229
aI1187
aI233
aI243
aI221
aI254
aI269
aI285
aI217
aI231
aI1184
aI619
aI653
aI654
aI693
aI694
aI671
aI609
aI677
aI647
aI669
aI608
aI628
aI801
aI707
aI745
aI748
aI780
aI722
aI724
aI756
aI767
aI744
aI1146
aI1107
aI1126
aI1064
aI793
aI1144
aI498
aI549
aI586
aI526
aI564
aI962
aI524
aI506
aI568
aI478
aI494
aI131
aI1042
aI1013
aI1143
aI810
aI816
aI818
aI819
aI827
aI828
aI1249
aI1266
aI1268
aI1269
aI1273
aI67
aI525
aI487
aI507
aI994
aI996
aI838
aI985
aI850
aI367
aI830
aI1152
aI1155
aI1188
aI171
aI263
aI265
aI282
aI287
aI192
aI187
aI175
aI1154
aI672
aI695
aI666
aI648
aI617
aI692
aI615
aI683
aI687
aI746
aI781
aI791
aI718
aI790
aI760
aI798
aI433
aI371
aI419
aI415
aI739
aI1142
aI491
aI535
aI17
aI46
aI101
aI512
aI581
aI518
aI477
aI864
aI870
aI872
aI514
aI482
aI559
aI538
aI577
aI505
aI540
aI572
aI541
aI1029
aI1030
aI964
aI1034
aI969
aI970
aI1002
aI1056
aI965
aI979
aI359
aI853
aI348
aI936
aI1001
aI943
aI944
aI978
aI1011
aI40
aI88
aI137
aI109
aI121
aI78
aI79
aI103
aI129
aI238
aI1223
aI1150
aI194
aI196
aI197
aI174
aI1189
aI1200
aI466
aI460
aI709
aI732
aI432
aI401
aI406
aI441
aI399
aI1294
aI700
aI1285
aI773
aI713
aI783
aI723
aI1072
aI1286
aI528
aI529
aI698
aI1147
aI947
aI925
aI1095
aI1108
aI1120
aI1139
aI69
aI70
aI483
aI484
aI574
aI26
aI116
aI1061
aI952
aI29
aI60
aI105
aI30
aI32
aI104
aI25
aI50
aI64
aI1284
aI34
aI846
aI274
aI291
aI283
aI271
aI209
aI277
aI161
aI471
aI446
aI438
aI417
aI434
aI435
aI437
aI457
aI381
aI605
aI405
aI429
aI463
aI754
aI795
aI1149
aI15
aI43
aI871
aI891
aI897
aI903
aI145
aI1035
aI1037
aI1004
aI1005
aI22
aI120
aI841
aI56
aI143
aI480
aI497
aI236
aI223
aI169
aI154
aI186
aI189
aI182
aI1190
aI1222
aI256
aI613
aI645
aI620
aI657
aI741
aI715
aI786
aI717
aI720
aI759
aI1094
aI1129
aI1135
aI1088
aI1063
aI1087
aI72
aI1045
aI36
aI93
aI117
aI12
aI18
aI82
aI119
aI142
aI928
aI1007
aI976
aI1247
aI1251
aI1245
aI899
aI913
aI1060
aI1025
aI934
aI966
aI938
aI812
aI942
aI993
aI973
aI974
aI1053
aI988
aI1237
aI1239
aI1263
aI1267
aI1276
aI153
aI165
aI167
aI1216
aI1163
aI1194
aI1205
aI641
aI714
aI464
aI449
aI452
aI379
aI430
aI616
aI624
aI593
aI603
aI638
aI1110
aI747
aI557
aI763
aI13
aI14
aI85
aI905
aI880
aI881
aI854
aI886
aI859
aI894
aI546
aI531
aI987
aI939
aI65
aI81
aI545
aI547
aI522
aI502
aI556
aI503
aI472
aI912
aI1256
aI918
aI1031
aI817
aI57
aI206
aI168
aI177
aI166
aI163
aI172
aI159
aI1220
aI1228
aI1180
aI398
aI689
aI386
aI456
aI385
aI470
aI409
aI425
aI604
aI784
aI1065
aI1097
aI1109
aI1118
aI1123
aI1067
aI1148
aI1133
aI1138
aI1078
aI1083
aI1084
aI997
aI47
aI1019
aI74
aI963
aI1000
aI1050
aI584
aI558
aI504
aI566
aI807
aI839
aI821
aI840
aI252
aI245
aI253
aI248
aI250
aI1168
aI200
aI157
aI181
aI151
aI183
aI267
aI614
aI680
aI690
aI416
aI448
aI390
aI462
aI422
aI802
aI699
aI932
aI984
aI924
aI532
aI565
aI1100
aI1114
aI1117
aI1127
aI1074
aI1145
aI1076
aI140
aI1052
aI957
aI325
aI351
aI1217
aI216
aI1231
aI1204
aI1209
aI610
aI611
aI618
aI686
aI594
aI599
aI867
aI868
aI454
aI391
aI426
aI1090
aI1079
aI1043
aI639
aI991
aI866
aI869
aI902
aI904
aI908
aI911
aI986
aI1089
aI1128
aI1136
aI569
aI898
aI884
aI1259
aI1262
aI890
aI892
aI1280
aI1257
aI330
aI585
aI573
aI48
aI66
aI1281
aI1235
aI336
aI337
aI310
aI311
aI1175
aI1206
aI225
aI155
aI255
aI258
aI259
aI275
aI261
aI1191
aI411
aI635
aI424
aI774
aI750
aI785
aI1068
aI951
aI579
aI544
aI553
aI562
aI2
aI6
aI27
aI130
aI138
aI86
aI112
aI35
aI115
aI304
aI316
aI876
aI517
aI583
aI554
aI1124
aI1292
aI1293
aI1240
aI1241
aI1270
aI1275
aI289
aI228
aI1164
aI1185
aI176
aI202
aI150
aI1159
aI1233
aI1170
aI673
aI607
aI636
aI711
aI797
aI431
aI451
aI407
aI378
aI738
aI710
aI874
aI1093
aI1102
aI1106
aI1111
aI1125
aI496
aI570
aI495
aI975
aI1282
aI1283
aI1238
aI1246
aI1253
aI887
aI224
aI272
aI1219
aI1227
aI642
aI591
aI602
aI796
aI702
aI370
aI380
aI729
aI921
aI548
aI485
aI560
aI1092
aI1044
aI941
aI1006
aI992
aI804
aI805
aI823
aI33
aI1248
aI1279
aI152
aI188
aI1195
aI679
aI597
aI662
aI467
aI469
aI374
aI376
aI749
aI719
aI735
aI716
aI11
aI1057
aI1099
aI1103
aI1131
aI1082
aI933
aI509
aI1055
aI309
aI1024
aI213
aI292
aI262
aI402
aI459
aI414
aI758
aI882
aI883
aI855
aI1098
aI1104
aI907
aI811
aI814
aI315
aI1051
aI279
aI207
aI249
aI280
aI1226
aI1232
aI388
aI436
aI455
aI447
aI772
aI757
aI770
aI766
aI1290
aI877
aI915
aI31
aI98
aI28
aI108
aI128
aI97
aI75
aI127
aI7
aI240
aI160
aI203
aI190
aI1202
aI1186
aI458
aI427
aI612
aI995
aI1140
aI521
aI73
aI135
aI1215
aI185
aI706
aI731
aI1137
aI856
aI906
aI861
aI126
aI1039
aI926
aI927
aI54
aI113
aI305
aI308
aI51
aI123
aI499
aI519
aI501
aI533
aI493
aI1009
aI1015
aI353
aI331
aI195
aI257
aI290
aI247
aI1176
aI697
aI450
aI372
aI384
aI383
aI76
aI141
aI110
aI845
aI1255
aI551
aI132
aI852
aI831
aI322
aI294
aI204
aI1182
aI769
aI726
aI727
aI955
aI489
aI563
aI515
aI552
aI561
aI492
aI251
aI1199
aI170
aI179
aI468
aI440
aI1101
aI122
aI362
aI55
aI9
aI1287
aI229
aI1153
aI1166
aI201
aI148
aI1160
aI1171
aI1181
aI580
aI1032
aI940
aI981
aI320
aI234
aI242
aI237
aI622
aI595
aI799
aI977
aI1036
aI946
aI474
aI510
aI576
aI555
aI241
aI268
aI293
aI284
aI400
aI778
aI659
aI1069
aI919
aI865
aI1091
aI3
aI24
aI323
aI1049
aI344
aI1207
aI389
aI428
aI1096
aI1112
aI1130
aI8
aI21
aI59
aI16
aI92
aI61
aI307
aI301
aI335
aI530
aI38
aI118
aI324
aI354
aI360
aI333
aI239
aI1221
aI184
aI156
aI633
aI668
aI418
aI1296
aI703
aI1023
aI100
aI226
aI1201
aI1213
aI650
aI621
aI705
aI762
aI1071
aI1265
aI332
aI44
aI317
aI235
aI164
aI147
aI1161
aI1173
aI377
aI658
aI627
aI600
aI917
aI1018
aI327
aI366
aI313
aI334
aI1208
aI1151
aI1218
aI1198
aI276
aI649
aI91
aI1046
aI1008
aI1012
aI1021
aI218
aI244
aI640
aI971
aI318
aI1022
aI837
aI813
aI1156
aI1203
aI1177
aI670
aI413
aI663
aI1288
aI681
aI1115
aI37
aI820
aI220
aI1169
aI685
aI704
aI404
aI319
aI998
aI1016
aI824
aI1230
aI208
aI423
aI623
aI743
aI527
aI1271
aI340
aI1054
aI356
aI214
aI420
aI587
aI742
aI1119
aI94
aI5
aI90
aI1254
aI1260
aI328
aI297
aI363
aI397
aI787
aI896
aI1289
aI58
aI1077
aI1085
aI338
aI339
aI358
aI806
aI844
aI178
aI375
aI674
aI920
aI895
aI62
aI84
aI89
aI212
aI373
aI421
aI394
aI1014
aI39
aI227
aI1167
aI862
aI68
aI80
aI369
aI329
aI302
aI361
aI1174
aI873
aI879
aI983
aI956
aI125
aI71
aI357
aI134
aI215
aI675
aI651
aI631
aI1038
aI352
aI341
aI342
aI755
aI789
aI461
aI930
aI601
aI306
aI937
aI219
aI173
aI364
aI843
aI1244
aI180
aI737
aI1295
aI303
aI1261
aI443
aI382
aI246
aI106
aI1274
aI343
aI300
aI365
aI42
aI326
aI347
aI1158
aI596
aI444
aI922
aI312
aI96
aI136
aI1197
aI278
aI684
aI41
aI77
aI83
aI847
aI350
aI751
aI829
aI295
aI346
aI222
aI929
aI914
aI273
aI193
aI410
aI688
aI107
aI408
aI968
aI114
aI345
aI230
aI592
aI661
aI800
aI779
aI1297
aI133
aI1196
aI764
aI885
aI1028
aI99
aI288
aI260
aI393
aI387
aI52
aI139
aI144
aI1178
aI589
aI63
aI590
aI396
aI945
aI445
aI1192
a.