(lp1
I18
aI32
aI56
aI58
aI80
aI100
aI97
aI109
aI55
aI82
aI75
aI162
aI157
aI91
aI111
aI123
aI150
aI174
aI283
aI285
aI342
aI298
aI347
aI368
aI341
aI367
aI416
aI453
aI406
aI486
aI495
aI549
aI558
aI24
aI52
aI96
aI70
aI110
aI95
aI152
aI137
aI195
aI122
aI149
aI216
aI234
aI227
aI243
aI173
aI222
aI239
aI217
aI226
aI219
aI213
aI267
aI269
aI357
aI278
aI343
aI379
aI456
aI413
aI462
aI480
aI472
aI494
aI550
aI14
aI19
aI23
aI65
aI85
aI79
aI124
aI160
aI185
aI186
aI132
aI180
aI228
aI263
aI237
aI282
aI316
aI271
aI311
aI312
aI328
aI351
aI384
aI375
aI407
aI381
aI398
aI432
aI439
aI455
aI446
aI514
aI484
aI485
aI506
aI491
aI478
aI546
aI552
aI36
aI35
aI51
aI125
aI127
aI177
aI277
aI211
aI281
aI221
aI238
aI207
aI286
aI308
aI382
aI424
aI441
aI461
aI415
aI488
aI507
aI554
aI22
aI27
aI31
aI73
aI89
aI106
aI144
aI170
aI147
aI203
aI352
aI353
aI291
aI340
aI325
aI327
aI344
aI377
aI331
aI363
aI319
aI374
aI452
aI443
aI497
aI498
aI502
aI544
aI547
aI551
aI57
aI120
aI158
aI204
aI240
aI306
aI275
aI242
aI287
aI300
aI372
aI393
aI349
aI433
aI418
aI435
aI481
aI487
aI479
aI553
aI54
aI101
aI74
aI151
aI201
aI247
aI224
aI256
aI233
aI288
aI330
aI387
aI429
aI515
aI556
aI567
aI72
aI76
aI113
aI143
aI176
aI146
aI164
aI175
aI223
aI190
aI273
aI251
aI305
aI359
aI376
aI500
aI548
aI555
aI561
aI568
aI537
aI570
aI543
aI78
aI112
aI133
aI166
aI333
aI434
aI467
aI459
aI560
aI533
aI28
aI29
aI33
aI61
aI38
aI46
aI68
aI45
aI71
aI131
aI155
aI102
aI126
aI165
aI168
aI235
aI156
aI188
aI181
aI230
aI272
aI378
aI364
aI437
aI496
aI517
aI559
aI34
aI189
aI167
aI183
aI193
aI250
aI262
aI253
aI295
aI345
aI355
aI466
aI482
aI499
aI501
aI523
aI504
aI557
aI39
aI64
aI135
aI192
aI248
aI236
aI292
aI332
aI402
aI436
aI442
aI503
aI21
aI62
aI69
aI66
aI86
aI107
aI184
aI220
aI261
aI304
aI338
aI339
aI356
aI373
aI392
aI365
aI408
aI473
aI489
aI490
aI508
aI510
aI50
aI49
aI59
aI140
aI259
aI212
aI266
aI369
aI417
aI386
aI419
aI420
aI394
aI440
aI428
aI483
aI505
aI493
aI30
aI63
aI90
aI94
aI67
aI99
aI161
aI139
aI249
aI280
aI400
aI388
aI423
aI445
aI521
aI524
aI42
aI60
aI84
aI88
aI77
aI103
aI290
aI252
aI264
aI301
aI324
aI314
aI380
aI447
aI564
aI565
aI566
aI92
aI134
aI118
aI172
aI276
aI358
aI334
aI389
aI25
aI41
aI104
aI93
aI117
aI121
aI169
aI232
aI409
aI395
aI427
aI396
aI449
aI421
aI513
aI527
aI562
aI87
aI129
aI178
aI163
aI179
aI255
aI241
aI448
aI451
aI454
aI519
aI509
aI98
aI83
aI142
aI130
aI208
aI198
aI279
aI246
aI403
aI390
aI444
aI530
aI3
aI5
aI182
aI405
aI426
aI457
aI573
aI47
aI53
aI335
aI438
aI569
aI572
aI2
aI6
aI26
aI37
aI202
aI199
aI320
aI244
aI302
aI450
aI518
aI528
aI492
aI511
aI145
aI114
aI229
aI191
aI225
aI194
aI214
aI411
aI522
aI529
aI574
aI4
aI136
aI138
aI209
aI245
aI299
aI307
aI323
aI294
aI296
aI348
aI391
aI465
aI44
aI215
aI404
aI571
aI575
aI11
aI48
aI116
aI81
aI257
aI218
aI171
aI148
aI196
aI310
aI318
aI303
aI401
aI399
aI512
aI297
aI321
aI576
aI8
aI13
aI274
aI260
aI284
aI315
aI383
aI422
aI471
aI474
aI539
aI577
aI563
aI40
aI154
aI159
aI141
aI187
aI362
aI289
aI326
aI346
aI200
aI210
aI469
aI460
aI578
aI336
aI397
aI458
aI516
aI128
aI536
aI9
aI410
aI431
aI520
aI534
aI535
aI580
aI10
aI12
aI258
aI254
aI270
aI464
aI538
aI579
aI360
aI43
aI293
aI463
aI581
aI414
aI468
aI477
aI582
aI15
aI153
aI206
aI350
aI583
aI584
aI412
aI475
aI317
aI337
aI470
aI105
aI231
aI526
aI108
aI525
aI532
aI309
aI354
aI542
aI540
aI329
aI361
aI476
aI366
aI119
aI197
aI371
aI16
aI322
aI115
aI205
aI17
aI545
aI541
aI265
aI385
aI370
aI430
a.