(lp1
I8
aI16
aI29
aI112
aI130
aI133
aI164
aI180
aI174
aI167
aI244
aI237
aI258
aI219
aI238
aI246
aI285
aI273
aI291
aI359
aI280
aI296
aI314
aI378
aI302
aI386
aI387
aI417
aI433
aI435
aI392
aI506
aI527
aI492
aI540
aI542
aI576
aI517
aI581
aI620
aI625
aI626
aI602
aI609
aI612
aI644
aI587
aI651
aI655
aI627
aI717
aI700
aI748
aI749
aI772
aI833
aI834
aI816
aI817
aI818
aI820
aI823
aI658
aI596
aI603
aI829
aI830
aI2
aI3
aI92
aI144
aI162
aI195
aI198
aI208
aI217
aI210
aI189
aI213
aI215
aI223
aI260
aI295
aI204
aI236
aI281
aI283
aI230
aI304
aI339
aI347
aI316
aI365
aI373
aI406
aI398
aI367
aI434
aI396
aI412
aI503
aI461
aI539
aI550
aI488
aI692
aI754
aI755
aI800
aI803
aI806
aI781
aI630
aI825
aI828
aI831
aI13
aI44
aI43
aI84
aI128
aI132
aI154
aI177
aI211
aI175
aI216
aI227
aI321
aI312
aI379
aI416
aI353
aI402
aI418
aI437
aI395
aI381
aI415
aI451
aI420
aI462
aI499
aI500
aI511
aI706
aI722
aI732
aI608
aI616
aI682
aI657
aI594
aI628
aI18
aI20
aI25
aI26
aI32
aI50
aI62
aI76
aI73
aI66
aI72
aI80
aI81
aI109
aI74
aI119
aI168
aI193
aI170
aI143
aI191
aI186
aI202
aI188
aI181
aI214
aI242
aI249
aI297
aI268
aI300
aI350
aI361
aI385
aI371
aI357
aI421
aI390
aI422
aI426
aI428
aI512
aI471
aI505
aI467
aI476
aI551
aI502
aI504
aI613
aI589
aI528
aI601
aI643
aI617
aI619
aI652
aI600
aI635
aI573
aI676
aI684
aI691
aI695
aI583
aI714
aI703
aI760
aI843
aI15
aI64
aI63
aI90
aI98
aI67
aI209
aI241
aI245
aI256
aI274
aI271
aI305
aI275
aI323
aI277
aI262
aI345
aI346
aI299
aI351
aI436
aI363
aI482
aI468
aI486
aI455
aI441
aI518
aI553
aI470
aI562
aI474
aI475
aI508
aI495
aI515
aI552
aI554
aI590
aI593
aI490
aI568
aI537
aI509
aI570
aI571
aI494
aI618
aI638
aI681
aI698
aI742
aI715
aI751
aI753
aI727
aI733
aI804
aI796
aI799
aI640
aI672
aI615
aI633
aI670
aI752
aI19
aI21
aI22
aI24
aI60
aI85
aI101
aI113
aI70
aI83
aI91
aI121
aI147
aI122
aI192
aI194
aI179
aI197
aI182
aI248
aI272
aI228
aI253
aI270
aI338
aI293
aI252
aI352
aI389
aI423
aI393
aI427
aI364
aI383
aI445
aI449
aI466
aI403
aI419
aI443
aI380
aI429
aI430
aI450
aI514
aI519
aI548
aI575
aI585
aI665
aI685
aI697
aI712
aI750
aI765
aI769
aI773
aI778
aI811
aI812
aI814
aI785
aI797
aI663
aI634
aI639
aI5
aI96
aI153
aI151
aI169
aI185
aI184
aI201
aI196
aI199
aI222
aI278
aI294
aI269
aI306
aI334
aI370
aI341
aI331
aI444
aI446
aI536
aI545
aI580
aI614
aI631
aI632
aI724
aI734
aI735
aI582
aI584
aI770
aI759
aI54
aI104
aI69
aI71
aI79
aI131
aI127
aI289
aI259
aI254
aI401
aI375
aI376
aI459
aI529
aI561
aI533
aI493
aI510
aI541
aI559
aI595
aI599
aI569
aI686
aI604
aI606
aI641
aI678
aI679
aI650
aI598
aI662
aI704
aI710
aI718
aI739
aI747
aI40
aI36
aI46
aI47
aI108
aI77
aI75
aI87
aI146
aI218
aI240
aI225
aI251
aI279
aI266
aI337
aI326
aI317
aI319
aI439
aI496
aI544
aI523
aI546
aI578
aI565
aI586
aI555
aI556
aI572
aI647
aI649
aI667
aI729
aI728
aI793
aI835
aI642
aI660
aI716
aI738
aI740
aI741
aI720
aI826
aI827
aI35
aI56
aI58
aI41
aI45
aI141
aI155
aI203
aI156
aI206
aI234
aI243
aI250
aI292
aI325
aI264
aI282
aI255
aI286
aI308
aI362
aI349
aI287
aI303
aI354
aI356
aI397
aI456
aI457
aI460
aI560
aI673
aI646
aI680
aI588
aI621
aI622
aI656
aI637
aI671
aI766
aI10
aI11
aI17
aI103
aI161
aI148
aI149
aI159
aI171
aI187
aI173
aI190
aI232
aI233
aI322
aI324
aI327
aI328
aI318
aI400
aI369
aI360
aI382
aI480
aI410
aI458
aI463
aI479
aI579
aI592
aI763
aI764
aI675
aI623
aI629
aI743
aI789
aI794
aI23
aI88
aI93
aI94
aI342
aI313
aI481
aI491
aI507
aI520
aI535
aI538
aI683
aI668
aI674
aI768
aI791
aI792
aI48
aI65
aI110
aI124
aI117
aI140
aI115
aI200
aI205
aI355
aI348
aI388
aI405
aI414
aI431
aI483
aI605
aI713
aI694
aI699
aI701
aI702
aI836
aI837
aI842
aI824
aI666
aI711
aI783
aI795
aI9
aI55
aI61
aI105
aI102
aI135
aI166
aI221
aI320
aI311
aI557
aI705
aI719
aI771
aI776
aI782
aI839
aI840
aI841
aI611
aI645
aI654
aI597
aI761
aI787
aI798
aI30
aI68
aI59
aI142
aI315
aI534
aI543
aI659
aI805
aI807
aI100
aI116
aI89
aI158
aI247
aI298
aI344
aI438
aI558
aI709
aI725
aI744
aI758
aI808
aI810
aI813
aI790
aI767
aI779
aI832
aI838
aI86
aI118
aI95
aI99
aI123
aI235
aI288
aI290
aI374
aI409
aI484
aI707
aI775
aI762
aI27
aI129
aI126
aI145
aI150
aI284
aI368
aI411
aI442
aI448
aI489
aI549
aI661
aI664
aI815
aI624
aI690
aI636
aI774
aI756
aI31
aI107
aI160
aI138
aI310
aI343
aI335
aI547
aI648
aI726
aI730
aI777
aI802
aI809
aI57
aI97
aI78
aI82
aI106
aI226
aI220
aI207
aI267
aI231
aI737
aI746
aI780
aI788
aI0
aI33
aI139
aI176
aI183
aI261
aI309
aI263
aI301
aI577
aI563
aI574
aI708
aI28
aI163
aI454
aI425
aI653
aI801
aI7
aI125
aI212
aI377
aI432
aI473
aI478
aI530
aI721
aI114
aI424
aI485
aI677
aI786
aI687
aI1
aI34
aI42
aI178
aI358
aI372
aI366
aI524
aI564
aI819
aI844
aI736
aI531
aI38
aI276
aI336
aI340
aI453
aI408
aI120
aI307
aI745
aI4
aI6
aI136
aI498
aI501
aI487
aI39
aI111
aI257
aI497
aI469
aI477
aI821
aI822
aI239
aI329
aI440
aI399
aI607
aI152
aI157
aI669
aI464
aI447
aI845
aI851
aI224
aI452
aI521
aI526
aI532
aI332
aI394
aI472
aI688
aI723
aI731
aI846
aI847
aI848
aI850
aI51
aI525
aI567
aI849
aI852
aI522
aI229
aI693
aI853
aI404
aI407
aI391
aI610
aI384
aI165
aI49
aI53
aI172
aI137
aI784
aI696
aI854
aI855
aI330
aI591
aI856
aI465
aI566
aI12
aI513
a.