(dp1
I1009
(lp2
(cnumpy.core.multiarray
scalar
p3
(cnumpy
dtype
p4
(S'f8'
I0
I1
tRp5
(I3
S'<'
NNNI-1
I-1
I0
tbS'\x8a\xcd\xc7\xb5\xa1\xda5@'
tRp6
g3
(g5
S'\xf3\xe5\x05\xd8GOR@'
tRp7
tp8
ag3
(g5
S'\x00\x00\x00\x00\x00\x000@'
tRp9
a(dp10
I2
(lp11
F-52.449775907286536
aF-26.550224092713464
asasI1010
(lp12
(g3
(g5
S'\xa1\xf3\x1a\xbbD\r6@'
tRp13
g3
(g5
S'O\xe9`\xfd\x9f;R@'
tRp14
tp15
ag3
(g5
S'\x00\x00\x00\x00\x00\x000@'
tRp16
a(dp17
I3
(lp18
F-48.404120902537343
aF-30.595879097462657
asasI1006
(lp19
(g3
(g5
S'\xe9&1\x08\xac\x8c5@'
tRp20
g3
(g5
S'\x97\xad\xf5EB]R@'
tRp21
tp22
ag3
(g5
S'\x00\x00\x00\x00\x00\x000@'
tRp23
a(dp24
I0
(lp25
F-53.781295317616454
aF-25.218704682383546
asas.