(dp1
I256
F-19.849390338458278
sI257
F-37.568996255622821
sI2
F-19.438937658878302
sI259
F-6.7331862439435497
sI4
F-20.019787255187538
sI5
F-7.6894142103963361
sI7
F-29.338716628810118
sI258
F-22.96137855777836
sI14
F-23.854732725141503
sI301
F-17.433009506106842
sI16
F-31.1032781313436
sI273
F-22.191558431971828
sI276
F10.133306525346043
sI21
F-26.714349294696831
sI22
F-21.845995487042842
sI279
F-32.204443190081548
sI282
F-9.6987721598795815
sI175
F-31.453824562134187
sI28
F-24.924932435139169
sI29
F-21.319016468858436
sI30
F-23.043702184598416
sI261
F8.3928736424933277
sI290
F-15.618472287213862
sI35
F-44.29750293664577
sI36
F-19.937833841973841
sI294
F-40.643484493169183
sI39
F-34.399017404888255
sI40
F-7.0175533098966127
sI297
F-33.12764317583725
sI42
F-17.950408534551542
sI43
F-7.0244841507144571
sI44
F-17.69650620316645
sI45
F-23.769353946667067
sI48
F-7.2284254183507244
sI50
F-28.504582351109093
sI51
F-35.451397887943656
sI52
F-53.698059035946088
sI56
F-27.054190242313013
sI61
F-27.912716700520079
sI62
F-19.939786038768048
sI66
F-7.7617759783484104
sI67
F-7.1825016711692626
sI69
F-37.608544803527309
sI72
F-24.429292167462208
sI76
F-21.156999592336746
sI77
F-23.64663903746748
sI78
F-22.951724534065335
sI269
F-25.403926888738866
sI80
F-24.154851636881745
sI86
F-23.168943695365471
sI87
F-29.308110688660008
sI88
F-15.527123397139803
sI89
F-18.364121642100528
sI92
F-29.367329412215526
sI93
F-23.628283206580207
sI95
F-28.682344369002308
sI98
F-40.918983161871694
sI101
F-23.824915256712131
sI105
F-27.275860474060565
sI110
F-35.645310838886559
sI114
F-29.434233179130956
sI116
F10.00762967753306
sI117
F-24.514100987964611
sI118
F-14.564876752086548
sI119
F-35.17633006168748
sI120
F-30.068370921072869
sI124
F-21.590016332526545
sI125
F-19.009372123838546
sI127
F10.187827083514392
sI277
F4.7888909750055006
sI278
F-25.23131957237419
sI135
F-34.289773499121964
sI136
F-31.520870737151114
sI138
F-20.034136264367291
sI139
F-25.076750979490612
sI142
F-18.429856362841434
sI143
F-25.172238361557277
sI144
F-25.321413489035905
sI146
F-23.454677532105137
sI147
F-46.026963774811477
sI157
F-15.894898666840831
sI159
F-29.942857045903651
sI160
F-38.034274127351921
sI165
F-13.431675010066613
sI166
F-15.781590740352158
sI168
F-19.678476206442511
sI169
F-24.44956047415468
sI170
F-7.767157886714287
sI171
F-25.838672669736013
sI172
F-31.852576468905326
sI285
F-35.13659364137655
sI176
F-18.375740915215886
sI180
F6.7920450197179605
sI183
F-37.005067134701846
sI186
F-36.176693663626537
sI188
F-35.611425700609118
sI191
F-29.003533124853504
sI192
F-35.467032622882883
sI196
F-19.815449624156884
sI204
F-29.37677327579334
sI205
F1.705090686307102
sI207
F6.9557593343433268
sI210
F-27.670238463165859
sI211
F-20.177187437567696
sI212
F-33.597917958297217
sI213
F-20.805322239850796
sI217
F-25.874501981411015
sI226
F-19.090432562205734
sI227
F-29.566450972621865
sI230
F2.2646799173647878
sI233
F-14.743690381119563
sI237
F-36.663310398475005
sI239
F-19.905191996594567
sI240
F-33.097997552744019
sI296
F-18.645716554430976
sI245
F4.7778482271228881
sI246
F-40.002730206428453
sI247
F7.2832404980889294
sI248
F-16.656141236741234
sI249
F-19.737388560264463
sI252
F-16.534722144155054
s.