(lp1
I256
aI165
aI120
aI113
aI167
aI242
aI260
aI243
aI279
aI238
aI300
aI273
aI249
aI276
aI262
aI278
aI296
aI253
aI239
aI192
aI179
aI174
aI240
aI257
aI309
aI247
aI302
aI208
aI233
aI178
aI196
aI173
aI222
aI246
aI191
aI286
aI29
aI176
aI272
aI288
aI261
aI237
aI284
aI285
aI194
aI210
aI203
aI180
aI4
aI31
aI34
aI55
aI76
aI84
aI106
aI75
aI96
aI85
aI109
aI70
aI90
aI102
aI87
aI116
aI168
aI169
aI134
aI158
aI306
aI295
aI282
aI298
aI267
aI293
aI297
aI245
aI146
aI140
aI184
aI193
aI205
aI213
aI219
aI175
aI13
aI23
aI25
aI32
aI30
aI6
aI12
aI18
aI64
aI39
aI86
aI79
aI123
aI258
aI292
aI301
aI289
aI290
aI236
aI255
aI303
aI43
aI15
aI20
aI28
aI47
aI97
aI71
aI95
aI114
aI265
aI287
aI185
aI198
aI52
aI49
aI63
aI66
aI40
aI60
aI3
aI26
aI68
aI35
aI53
aI58
aI69
aI74
aI78
aI144
aI121
aI138
aI171
aI115
aI119
aI143
aI136
aI129
aI125
aI131
aI122
aI111
aI241
aI308
aI299
aI270
aI225
aI263
aI188
aI231
aI250
aI252
aI38
aI42
aI7
aI44
aI1
aI41
aI57
aI10
aI61
aI88
aI82
aI160
aI139
aI163
aI166
aI135
aI159
aI304
aI294
aI281
aI202
aI182
aI206
aI214
aI183
aI19
aI48
aI56
aI62
aI37
aI201
aI204
aI228
aI197
aI14
aI127
aI128
aI152
aI153
aI161
aI130
aI154
aI149
aI259
aI275
aI291
aI307
aI277
aI200
aI224
aI232
aI234
aI283
aI215
aI271
aI16
aI2
aI9
aI36
aI65
aI33
aI21
aI104
aI89
aI93
aI94
aI103
aI92
aI107
aI145
aI117
aI118
aI126
aI187
aI8
aI46
aI54
aI112
aI147
aI148
aI172
aI244
aI150
aI177
aI235
aI211
aI229
aI190
aI230
aI199
aI218
aI5
aI156
aI142
aI227
aI268
aI67
aI73
aI83
aI124
aI155
aI132
aI164
aI157
aI254
aI305
aI269
aI27
aI151
aI223
aI17
aI133
aI50
aI280
aI186
aI220
aI207
aI209
aI45
aI24
aI162
aI22
aI170
aI141
aI195
aI274
aI217
aI221
aI98
aI137
aI251
aI264
aI80
aI99
aI266
aI226
aI181
aI91
aI59
aI248
aI100
aI101
aI72
aI77
aI81
aI105
aI11
aI216
aI212
aI108
aI110
aI51
a.