(dp1
I3
F-20.507504225269713
sI4
F-21.62039265288746
sI6
F-13.968231277371387
sI7
F-20.788888890584658
sI12
F-31.041261700086636
sI13
F-14.988303487169617
sI15
F-22.859462317472577
sI18
F-21.598759063264339
sI19
F-55.754496719710389
sI21
F-18.712902798136895
sI24
F-14.827012930852518
sI25
F-39.045236166654362
sI30
F-22.555226064918713
sI35
F-33.787023429464227
sI36
F-26.23124046676898
sI38
F-19.331813562379836
sI39
F-35.775073852283128
sI40
F-21.73608587428447
sI41
F-23.786925979537799
sI42
F-35.686035854158959
sI45
F-31.863104206177439
sI46
F-21.549299252987339
sI48
F6.2684293366030488
sI52
F-36.517542472491385
sI54
F-39.048661535272188
sI58
F-20.66072872637514
sI59
F-19.110737387468589
sI60
F-40.050437541138024
sI61
F-10.673079966119815
sI62
F-23.362687283653031
sI64
F-21.984329316337949
sI69
F-36.315530269693596
sI73
F-22.78311691776932
sI75
F-41.045396641848811
sI79
F-13.639428591607754
sI83
F-32.844096321164514
sI84
F-21.051185869242047
sI87
F-28.224137262203755
sI91
F-22.000470232234932
sI92
F-21.530796278280633
sI93
F-15.058775757885599
sI98
F-14.415261792533812
sI105
F-28.040510548478281
sI108
F-13.237704723720952
sI110
F-19.794165881122836
sI124
F-31.21870986354547
sI129
F-27.700343638640874
sI130
F-21.238220913869085
sI132
F-25.592351927940413
sI133
F-26.290225508398635
sI136
F-26.920009094484101
sI139
F-14.964289166944525
sI141
F-20.439898482898201
sI145
F-20.125998804996982
sI147
F-26.519163563923598
sI152
F-40.86718763493711
sI153
F-20.536183838137305
sI154
F-21.832189633558613
sI155
F-28.733031097398708
sI157
F-24.765231610502042
sI158
F-26.725757680818248
sI160
F-26.568829312154008
sI161
F-24.350743544424901
sI163
F-17.850077929918172
sI164
F-23.018596900860118
sI165
F-20.495616616476809
sI167
F-20.052693813208379
sI170
F-45.443988505694051
sI171
F-27.262406993444799
sI173
F-22.696093744374096
sI175
F-43.612389901833708
sI176
F-27.447364879201075
sI177
F-6.6573404468758355
sI179
F-11.690642972426275
sI180
F-27.497955994523579
sI184
F-28.218527818218391
sI185
F-17.941326497282262
sI188
F-33.442641615224503
sI189
F-18.433136894967276
sI191
F-37.869056538430854
sI194
F-30.067553697525042
sI195
F-41.778147165454911
sI196
F-33.072001508081101
sI197
F-37.730564054872787
sI198
F-40.242995020268097
sI199
F-36.400922165047177
sI200
F-30.823224704363554
sI201
F-20.399647915363857
sI202
F-30.29409834814804
sI204
F-29.239102673607647
sI205
F-19.666714056155854
sI207
F-53.61085816163083
sI208
F-9.8691814698445057
sI210
F-20.436379331986899
sI211
F-23.986497087735515
sI213
F-14.660211568586618
sI214
F-24.035920647646194
sI220
F-13.824288764559924
sI225
F-36.37441250984817
sI226
F-31.157696221365796
sI227
F-15.312005806698878
sI230
F-28.94048880609958
sI231
F-37.137243980277873
sI232
F-15.629498966460005
sI233
F-25.418152423141848
sI247
F-18.60883910093024
sI248
F-17.305407726556211
sI251
F-20.113684438537859
sI252
F-19.930015226200226
sI253
F-43.599990879558732
sI254
F-18.705742629979113
sI257
F-37.398282646645939
sI260
F-49.129387284892658
sI268
F-34.594511068457024
sI269
F-10.130680819723793
sI270
F-22.341594827265524
sI278
F-23.513812673000587
sI281
F-28.733450329321641
sI282
F-19.984633668126634
sI285
F-26.423852004823431
sI286
F-7.769469600969714
sI287
F-8.2186646152165963
sI289
F-22.602728370679515
sI290
F-18.939320549360517
sI291
F-21.982479064372896
sI293
F-14.713080587179761
sI297
F-20.307888940787109
sI298
F-24.533089963776888
sI299
F-30.643496880514832
sI300
F-20.391470800674838
sI303
F-24.85903259118345
sI306
F-11.117412121379715
sI309
F-30.175738641246227
sI311
F-21.913433371037343
sI315
F-21.639707183636347
sI317
F-11.271966781254278
sI319
F-22.736454446237971
sI320
F-20.002631145349284
sI321
F-17.842596804384982
sI323
F-18.425525583544342
sI326
F-13.197651157969688
sI327
F-22.5282839304612
sI328
F-38.918050067509455
sI329
F-21.827744740859458
sI330
F-7.8696677747458637
sI331
F-22.562354786109282
sI333
F-21.708182677091315
sI334
F-51.675709735963821
s.