(lp1
I746
aI704
aI136
aI113
aI121
aI130
aI717
aI687
aI753
aI760
aI697
aI736
aI705
aI715
aI747
aI716
aI699
aI112
aI711
aI688
aI727
aI767
aI600
aI601
aI606
aI607
aI608
aI611
aI594
aI548
aI549
aI211
aI793
aI185
aI210
aI179
aI180
aI204
aI802
aI836
aI839
aI840
aI777
aI844
aI827
aI776
aI841
aI814
aI27
aI800
aI832
aI770
aI772
aI774
aI93
aI45
aI788
aI792
aI388
aI484
aI469
aI390
aI406
aI391
aI408
aI409
aI411
aI412
aI477
aI462
aI648
aI433
aI418
aI404
aI420
aI407
aI440
aI441
aI426
aI442
aI395
aI427
aI428
aI444
aI398
aI399
aI911
aI913
aI851
aI883
aI884
aI916
aI917
aI918
aI860
aI926
aI336
aI515
aI339
aI344
aI529
aI531
aI315
aI507
aI335
aI495
aI934
aI967
aI971
aI941
aI974
aI943
aI952
aI957
aI380
aI381
aI4
aI5
aI8
aI40
aI54
aI92
aI100
aI97
aI55
aI102
aI79
aI87
aI2
aI19
aI38
aI44
aI60
aI81
aI33
aI35
aI47
aI57
aI82
aI90
aI954
aI353
aI375
aI377
aI366
aI248
aI272
aI263
aI266
aI285
aI239
aI213
aI270
aI249
aI274
aI234
aI220
aI244
aI297
aI229
aI298
aI300
aI108
aI707
aI708
aI139
aI731
aI625
aI604
aI617
aI557
aI818
aI795
aI255
aI694
aI744
aI521
aI505
aI530
aI723
aI701
aI543
aI703
aI193
aI194
aI191
aI450
aI452
aI811
aI454
aI813
aI821
aI822
aI791
aI823
aI160
aI146
aI0
aI393
aI394
aI46
aI56
aI39
aI59
aI78
aI99
aI432
aI421
aI473
aI413
aI430
aI431
aI12
aI101
aI74
aI514
aI355
aI362
aI363
aI508
aI319
aI338
aI313
aI379
aI332
aI641
aI673
aI646
aI649
aI682
aI654
aI634
aI666
aI22
aI29
aI30
aI400
aI401
aI419
aI526
aI443
aI414
aI415
aI447
aI545
aI323
aI968
aI504
aI944
aI945
aI492
aI541
aI640
aI896
aI898
aI874
aI912
aI915
aI662
aI886
aI855
aI888
aI859
aI257
aI290
aI281
aI222
aI305
aI241
aI218
aI226
aI227
aI292
aI237
aI283
aI299
aI268
aI120
aI219
aI296
aI119
aI215
aI104
aI275
aI576
aI614
aI623
aI613
aI551
aI558
aI591
aI575
aI178
aI196
aI197
aI192
aI184
aI169
aI177
aI162
aI163
aI189
aI143
aI482
aI502
aI525
aI535
aI463
aI675
aI651
aI683
aI653
aI657
aI658
aI659
aI665
aI635
aI31
aI62
aI72
aI1
aI77
aI494
aI540
aI511
aI960
aI932
aI964
aI966
aI935
aI936
aI536
aI11
aI73
aI43
aI98
aI71
aI937
aI938
aI327
aI946
aI949
aI955
aI365
aI240
aI692
aI976
aI251
aI228
aI265
aI231
aI709
aI710
aI755
aI743
aI745
aI718
aI721
aI722
aI726
aI696
aI729
aI698
aI765
aI706
aI486
aI487
aI758
aI695
aI766
aI735
aI720
aI690
aI458
aI763
aI834
aI806
aI838
aI809
aI845
aI783
aI815
aI786
aI790
aI544
aI497
aI546
aI547
aI534
aI538
aI510
aI805
aI808
aI794
aI804
aI787
aI144
aI528
aI493
aI474
aI476
aI386
aI402
aI422
aI423
aI512
aI516
aI403
aI506
aI491
aI899
aI870
aI902
aI871
aI907
aI908
aI857
aI889
aI921
aI922
aI923
aI924
aI925
aI322
aI308
aI372
aI357
aI311
aI346
aI333
aI382
aI863
aI15
aI96
aI41
aI63
aI392
aI410
aI10
aI58
aI64
aI14
aI17
aI48
aI50
aI76
aI80
aI69
aI517
aI371
aI329
aI892
aI895
aI273
aI225
aI258
aI212
aI236
aI238
aI232
aI712
aI741
aI749
aI762
aI700
aI732
aI702
aI129
aI137
aI126
aI132
aI140
aI977
aI135
aI769
aI833
aI835
aI824
aI830
aI182
aI524
aI466
aI471
aI488
aI457
aI459
aI461
aI480
aI481
aI467
aI468
aI475
aI18
aI25
aI52
aI84
aI89
aI49
aI53
aI66
aI75
aI901
aI170
aI156
aI914
aI149
aI858
aI356
aI325
aI343
aI942
aI360
aI376
aI361
aI316
aI348
aI948
aI496
aI500
aI969
aI539
aI337
aI351
aI383
aI286
aI768
aI740
aI748
aI751
aI752
aI761
aI739
aI730
aI612
aI586
aI571
aI117
aI107
aI734
aI588
aI595
aI566
aI208
aI190
aI198
aI207
aI21
aI780
aI817
aI825
aI826
aI83
aI681
aI661
aI637
aI385
aI405
aI438
aI424
aI425
aI68
aI929
aI961
aI963
aI933
aI939
aI940
aI973
aI956
aI928
aI965
aI975
aI853
aI959
aI848
aI852
aI630
aI667
aI900
aI164
aI881
aI37
aI368
aI310
aI326
aI349
aI334
aI250
aI252
aI264
aI254
aI287
aI754
aI116
aI110
aI114
aI118
aI122
aI133
aI115
aI123
aI134
aI589
aI724
aI550
aI560
aI569
aI581
aI621
aI628
aI603
aI464
aI455
aI456
aI453
aI537
aI518
aI523
aI533
aI664
aI532
aI397
aI309
aI378
aI331
aI318
aI417
aI519
aI501
aI20
aI65
aI342
aI359
aI328
aI345
aI67
aI91
aI367
aI951
aI927
aI302
aI271
aI733
aI233
aI235
aI284
aI247
aI615
aI627
aI610
aI563
aI564
aI596
aI602
aI778
aI200
aI620
aI205
aI597
aI803
aI668
aI643
aI678
aI669
aI642
aI650
aI655
aI660
aI631
aI890
aI670
aI671
aI145
aI138
aI147
aI171
aI7
aI24
aI42
aI23
aI904
aI905
aI878
aI880
aI919
aI856
aI861
aI262
aI223
aI559
aI556
aI570
aI125
aI106
aI141
aI142
aI779
aI785
aI103
aI578
aI618
aI562
aI183
aI188
aI199
aI6
aI34
aI88
aI819
aI95
aI154
aI155
aI159
aI152
aI680
aI32
aI61
aI86
aI312
aI920
aI891
aI354
aI324
aI340
aI434
aI429
aI865
aI847
aI224
aI304
aI306
aI260
aI280
aI267
aI276
aI295
aI582
aI552
aI624
aI561
aI124
aI128
aI622
aI599
aI807
aI816
aI796
aI842
aI782
aI828
aI187
aI465
aI489
aI478
aI479
aI435
aI436
aI28
aI953
aI958
aI633
aI636
aI909
aI882
aI947
aI950
aI291
aI738
aI737
aI719
aI756
aI757
aI554
aI567
aI105
aI498
aI970
aI849
aI153
aI903
aI873
aI301
aI127
aI616
aI585
aI593
aI742
aI750
aI725
aI728
aI520
aI173
aI679
aI632
aI639
aI384
aI439
aI396
aI94
aI70
aI364
aI373
aI644
aI259
aI261
aI282
aI583
aI577
aI580
aI587
aI837
aI451
aI437
aI579
aI820
aI789
aI652
aI148
aI172
aI161
aI150
aI672
aI877
aI910
aI522
aI289
aI590
aI691
aI111
aI449
aI781
aI801
aI773
aI810
aI470
aI797
aI798
aI799
aI195
aI206
aI503
aI542
aI416
aI387
aI962
aI972
aI358
aI389
aI864
aI242
aI279
aI214
aI269
aI829
aI472
aI460
aI446
aI513
aI930
aI931
aI369
aI217
aI230
aI812
aI775
aI686
aI645
aI656
aI862
aI221
aI626
aI573
aI485
aI490
aI174
aI370
aI9
aI26
aI869
aI759
aI288
aI303
aI713
aI605
aI565
aI598
aI201
aI186
aI181
aI13
aI16
aI85
aI51
aI166
aI509
aI151
aI872
aI906
aI879
aI854
aI887
aI165
aI875
aI876
aI245
aI592
aI866
aI867
aI868
aI109
aI555
aI568
aI677
aI36
aI253
aI574
aI647
aI685
aI663
aI638
aI216
aI278
aI831
aI693
aI553
aI572
aI674
aI676
aI293
aI243
aI483
aI689
aI175
aI3
aI314
aI330
aI131
aI448
aI771
aI629
aI157
aI764
aI256
aI294
aI843
aI784
aI584
aI158
aI893
aI619
aI341
aI168
aI350
aI307
aI176
aI445
aI321
aI246
aI352
aI609
aI527
aI202
aI203
aI209
aI167
aI277
aI897
aI846
aI894
aI684
aI320
aI347
aI850
aI374
aI317
a.