(dp1
I3074
I73
sI3243
I239
sI3590
I213
sI3120
I63
sI3081
I72
sI3594
I207
sI3503
I39
sI3410
I229
sI2573
I66
sI3598
I205
sI3600
I199
sI3601
I42
sI2579
I66
sI3604
I199
sI3607
I205
sI3274
I198
sI3097
I30
sI2587
I66
sI3100
I77
sI3102
I72
sI3103
I57
sI3530
I200
sI2593
I98
sI3106
I23
sI3107
I77
sI3620
I211
sI3109
I67
sI3623
I40
sI3420
I229
sI2602
I145
sI2606
I180
sI3119
I57
sI2608
I138
sI3121
I57
sI3309
I58
sI3124
I22
sI3593
I199
sI3640
I249
sI2618
I66
sI2619
I145
sI3132
I22
sI2621
I84
sI3646
I211
sI3135
I57
sI2624
I84
sI2626
I98
sI2627
I145
sI2629
I138
sI2632
I180
sI3145
I22
sI2635
I66
sI3152
I25
sI2643
I66
sI3632
I211
sI3157
I202
sI2648
I84
sI3162
I245
sI3343
I58
sI3165
I110
sI2654
I101
sI2659
I98
sI2660
I145
sI2664
I84
sI3182
I25
sI3184
I241
sI2673
I69
sI3187
I9
sI3188
I201
sI2678
I84
sI2921
I190
sI3192
I25
sI2681
I180
sI3194
I25
sI2683
I169
sI3197
I8
sI2688
I145
sI3202
I25
sI2693
I69
sI2694
I168
sI2695
I142
sI2696
I142
sI2697
I138
sI2700
I131
sI3214
I206
sI3215
I54
sI2704
I69
sI2920
I156
sI2709
I129
sI2710
I158
sI3224
I44
sI3176
I219
sI3229
I251
sI3233
I25
sI2723
I175
sI3236
I252
sI3185
I44
sI3347
I58
sI2731
I142
sI2734
I158
sI3247
I44
sI3603
I213
sI3249
I201
sI3250
I206
sI3614
I213
sI2743
I102
sI3256
I58
sI2745
I158
sI3433
I1
sI2749
I142
sI2750
I69
sI2751
I137
sI3265
I225
sI3267
I58
sI2761
I150
sI2762
I91
sI2763
I142
sI3276
I225
sI3263
I198
sI2766
I91
sI3533
I213
sI3704
I0
sI2771
I159
sI3278
I246
sI2773
I91
sI3286
I239
sI2776
I159
sI3289
I239
sI3291
I239
sI2780
I142
sI2781
I158
sI3326
I58
sI3296
I230
sI2787
I162
sI2788
I99
sI3302
I239
sI3304
I198
sI2793
I99
sI2796
I170
sI2797
I164
sI2798
I170
sI3311
I44
sI2805
I92
sI2808
I121
sI2809
I164
sI2810
I99
sI2811
I88
sI2812
I123
sI2814
I164
sI2815
I176
sI3328
I239
sI3200
I251
sI3330
I36
sI2823
I111
sI2824
I99
sI2825
I88
sI2827
I88
sI2831
I123
sI3288
I5
sI2835
I99
sI3487
I195
sI3630
I211
sI2841
I136
sI2842
I92
sI2843
I152
sI2844
I165
sI3359
I239
sI2849
I92
sI2851
I161
sI2853
I88
sI3366
I236
sI3367
I41
sI2856
I171
sI2857
I149
sI3208
I245
sI3381
I256
sI3382
I1
sI3437
I254
sI3384
I196
sI2875
I81
sI3388
I55
sI2877
I161
sI2881
I191
sI3394
I248
sI2884
I153
sI3399
I196
sI2889
I85
sI2891
I80
sI2893
I100
sI2896
I85
sI2897
I81
sI2898
I81
sI3411
I236
sI3412
I210
sI2901
I153
sI2904
I139
sI2905
I192
sI2908
I153
sI3425
I1
sI2915
I134
sI3428
I210
sI2918
I153
sI2407
I0
sI2408
I0
sI2409
I0
sI2410
I0
sI2411
I0
sI2924
I93
sI2413
I0
sI2926
I153
sI2927
I108
sI2929
I100
sI2933
I167
sI2935
I93
sI2936
I93
sI2942
I78
sI2944
I153
sI3436
I55
sI3460
I254
sI3393
I235
sI2952
I156
sI3466
I13
sI2955
I184
sI2444
I0
sI3138
I77
sI3470
I13
sI2959
I189
sI3457
I210
sI2962
I94
sI3389
I210
sI3478
I31
sI2455
I0
sI3355
I222
sI3481
I210
sI2972
I78
sI3141
I26
sI2977
I78
sI3491
I18
sI2980
I97
sI3493
I195
sI3495
I39
sI2987
I135
sI2991
I188
sI2992
I106
sI2994
I50
sI3508
I195
sI3000
I97
sI3305
I201
sI3007
I187
sI3009
I97
sI3010
I113
sI3403
I55
sI3014
I82
sI3015
I82
sI3474
I19
sI3020
I146
sI3021
I50
sI3022
I97
sI3320
I44
sI3538
I0
sI3540
I39
sI3030
I117
sI3544
I14
sI3035
I105
sI3255
I239
sI3041
I97
sI3556
I61
sI3557
I213
sI3558
I205
sI3409
I1
sI3053
I50
sI3566
I213
sI3055
I105
sI3057
I120
sI3058
I62
sI3571
I213
sI3061
I105
sI3574
I61
sI3273
I44
sI2557
I98
sI3582
I40
sI3071
I120
s.