(lp1
I32
aI56
aI58
aI73
aI57
aI125
aI146
aI140
aI168
aI169
aI155
aI141
aI203
aI197
aI264
aI267
aI322
aI339
aI311
aI314
aI405
aI342
aI376
aI379
aI349
aI371
aI426
aI411
aI398
aI448
aI425
aI460
aI478
aI517
aI524
aI539
aI511
aI544
aI565
aI593
aI844
aI883
aI852
aI791
aI859
aI828
aI901
aI889
aI1009
aI676
aI648
aI649
aI658
aI627
aI605
aI638
aI705
aI769
aI744
aI713
aI745
aI777
aI786
aI755
aI729
aI767
aI919
aI921
aI927
aI104
aI117
aI138
aI147
aI122
aI149
aI95
aI134
aI142
aI158
aI159
aI144
aI137
aI153
aI177
aI162
aI194
aI171
aI132
aI148
aI164
aI173
aI150
aI167
aI224
aI218
aI227
aI243
aI212
aI244
aI238
aI273
aI253
aI269
aI271
aI306
aI303
aI393
aI362
aI404
aI410
aI412
aI422
aI441
aI442
aI464
aI465
aI451
aI446
aI495
aI514
aI548
aI559
aI533
aI494
aI580
aI612
aI585
aI555
aI589
aI568
aI571
aI669
aI645
aI684
aI626
aI692
aI629
aI694
aI696
aI702
aI607
aI688
aI808
aI911
aI925
aI926
aI997
aI1006
aI990
aI991
aI643
aI738
aI802
aI710
aI715
aI748
aI719
aI720
aI790
aI793
aI735
aI846
aI788
aI789
aI830
aI896
aI931
aI876
aI945
aI17
aI18
aI19
aI26
aI30
aI44
aI115
aI184
aI154
aI186
aI163
aI196
aI204
aI181
aI189
aI190
aI198
aI191
aI199
aI208
aI240
aI225
aI226
aI260
aI220
aI252
aI265
aI205
aI221
aI230
aI246
aI277
aI301
aI336
aI316
aI392
aI380
aI365
aI366
aI466
aI468
aI456
aI500
aI584
aI557
aI567
aI569
aI601
aI572
aI641
aI608
aI709
aI615
aI654
aI687
aI598
aI664
aI671
aI716
aI753
aI722
aI754
aI757
aI695
aI700
aI733
aI806
aI871
aI850
aI882
aI799
aI992
aI996
aI987
aI989
aI634
aI635
aI864
aI837
aI797
aI899
aI933
aI970
aI920
aI14
aI42
aI43
aI53
aI100
aI81
aI89
aI109
aI74
aI106
aI71
aI75
aI103
aI145
aI178
aI175
aI185
aI251
aI183
aI288
aI291
aI309
aI284
aI353
aI308
aI310
aI297
aI330
aI348
aI335
aI360
aI470
aI457
aI461
aI481
aI498
aI583
aI604
aI574
aI609
aI581
aI673
aI678
aI775
aI758
aI734
aI835
aI805
aI962
aI944
aI741
aI765
aI834
aI869
aI848
aI855
aI913
aI20
aI108
aI90
aI83
aI87
aI107
aI121
aI133
aI119
aI216
aI202
aI188
aI182
aI214
aI272
aI299
aI268
aI304
aI320
aI337
aI323
aI325
aI313
aI480
aI447
aI497
aI471
aI503
aI491
aI575
aI558
aI606
aI550
aI553
aI560
aI617
aI661
aI724
aI697
aI845
aI820
aI862
aI863
aI898
aI907
aI941
aI910
aI950
aI954
aI923
aI646
aI651
aI621
aI656
aI804
aI824
aI929
aI935
aI995
aI998
aI1007
aI977
aI1010
aI1011
aI1014
aI25
aI29
aI41
aI88
aI105
aI113
aI98
aI79
aI192
aI187
aI207
aI248
aI217
aI228
aI223
aI231
aI256
aI274
aI270
aI295
aI329
aI315
aI355
aI356
aI358
aI397
aI509
aI506
aI507
aI551
aI586
aI620
aI531
aI532
aI570
aI679
aI680
aI619
aI653
aI595
aI628
aI663
aI699
aI772
aI782
aI766
aI832
aI879
aI816
aI993
aI1003
aI976
aI650
aI685
aI622
aI739
aI743
aI718
aI691
aI877
aI849
aI860
aI932
aI937
aI994
aI1005
aI1008
aI1013
aI1015
aI15
aI22
aI24
aI31
aI36
aI33
aI47
aI51
aI65
aI94
aI99
aI112
aI126
aI123
aI143
aI257
aI261
aI341
aI387
aI340
aI373
aI407
aI361
aI414
aI449
aI467
aI454
aI455
aI472
aI508
aI528
aI546
aI527
aI592
aI563
aI573
aI545
aI614
aI590
aI566
aI600
aI637
aI655
aI737
aI747
aI760
aI703
aI677
aI667
aI856
aI958
aI38
aI62
aI77
aI85
aI93
aI55
aI59
aI129
aI211
aI215
aI293
aI282
aI352
aI324
aI294
aI296
aI312
aI364
aI483
aI476
aI492
aI521
aI582
aI562
aI564
aI578
aI613
aI652
aI750
aI867
aI829
aI902
aI884
aI887
aI774
aI781
aI840
aI908
aI924
aI957
aI999
aI1012
aI64
aI76
aI80
aI101
aI61
aI91
aI161
aI170
aI174
aI249
aI283
aI239
aI328
aI409
aI396
aI424
aI444
aI430
aI450
aI459
aI516
aI576
aI518
aI525
aI541
aI666
aI749
aI731
aI857
aI674
aI644
aI647
aI625
aI727
aI838
aI897
aI930
aI904
aI906
aI942
aI947
aI917
aI891
aI1004
aI16
aI40
aI234
aI278
aI279
aI285
aI317
aI385
aI408
aI377
aI474
aI463
aI640
aI660
aI868
aI839
aI843
aI851
aI971
aI888
aI1002
aI796
aI892
aI965
aI966
aI905
aI909
aI949
aI13
aI78
aI193
aI210
aI213
aI334
aI395
aI386
aI453
aI616
aI779
aI961
aI963
aI939
aI912
aI922
aI1016
aI659
aI759
aI836
aI841
aI873
aI811
aI854
aI826
aI827
aI928
aI948
aI23
aI124
aI136
aI152
aI131
aI157
aI165
aI127
aI160
aI176
aI179
aI180
aI286
aI289
aI326
aI332
aI333
aI350
aI378
aI502
aI681
aI756
aI874
aI853
aI672
aI686
aI632
aI636
aI668
aI776
aI881
aI940
aI918
aI70
aI209
aI233
aI276
aI236
aI254
aI259
aI280
aI370
aI388
aI375
aI347
aI418
aI537
aI768
aI778
aI764
aI893
aI972
aI894
aI959
aI642
aI596
aI633
aI870
aI872
aI823
aI943
aI156
aI258
aI250
aI262
aI255
aI292
aI318
aI420
aI475
aI529
aI623
aI792
aI865
aI878
aI974
aI1000
aI704
aI670
aI639
aI825
aI967
aI968
aI54
aI39
aI128
aI201
aI344
aI432
aI427
aI431
aI513
aI489
aI631
aI675
aI800
aI787
aI833
aI866
aI814
aI818
aI886
aI956
aI50
aI92
aI102
aI114
aI111
aI367
aI368
aI577
aI938
aI955
aI785
aI728
aI762
aI96
aI110
aI281
aI302
aI951
aI27
aI28
aI34
aI63
aI97
aI232
aI235
aI338
aI351
aI486
aI784
aI817
aI960
aI964
aI847
aI936
aI1019
aI1
aI84
aI434
aI438
aI610
aI549
aI903
aI952
aI985
aI35
aI37
aI287
aI343
aI381
aI400
aI383
aI439
aI429
aI445
aI490
aI522
aI530
aI547
aI842
aI858
aI618
aI770
aI2
aI290
aI369
aI331
aI300
aI382
aI419
aI391
aI401
aI415
aI493
aI534
aI603
aI721
aI771
aI717
aI831
aI934
aI975
aI983
aI953
aI135
aI195
aI242
aI237
aI416
aI443
aI579
aI602
aI689
aI690
aI783
aI723
aI726
aI861
aI946
aI978
aI979
aI120
aI229
aI413
aI469
aI712
aI1001
aI973
aI1023
aI82
aI130
aI357
aI488
aI657
aI72
aI266
aI510
aI763
aI1017
aI662
aI200
aI219
aI241
aI307
aI390
aI428
aI730
aI914
aI21
aI406
aI479
aI499
aI519
aI682
aI683
aI1020
aI1021
aI698
aI45
aI417
aI402
aI423
aI588
aI706
aI822
aI1018
aI819
aI5
aI6
aI46
aI48
aI60
aI345
aI665
aI915
aI1022
aI752
aI982
aI984
aI116
aI394
aI482
aI693
aI810
aI12
aI69
aI433
aI435
aI436
aI458
aI512
aI501
aI536
aI746
aI732
aI875
aI66
aI206
aI319
aI452
aI473
aI542
aI773
aI52
aI403
aI780
aI803
aI49
aI275
aI440
aI707
aI809
aI900
aI7
aI8
aI247
aI372
aI389
aI543
aI885
aI505
aI504
aI540
aI890
aI794
aI986
aI988
aI354
aI795
aI9
aI10
aI11
aI359
aI599
aI701
aI708
aI711
aI880
aI298
aI346
aI487
aI561
aI554
aI68
aI245
aI526
aI812
aI305
aI980
aI981
aI916
aI801
aI969
aI327
aI321
aI520
aI535
aI552
aI556
aI807
aI815
aI821
aI67
aI587
aI624
aI725
aI736
aI591
aI86
aI895
aI761
aI813
aI798
aI118
aI151
aI263
aI384
aI437
aI523
aI222
aI462
aI515
aI1025
aI399
aI485
aI538
aI742
aI484
aI166
aI363
aI172
aI740
a.