(dp1
I2
F-30.885270824012025
sI4
F-22.09125206606889
sI5
F-36.270412520952647
sI8
F7.3104502871501467
sI10
F-20.225118143303021
sI11
F-34.311235537327377
sI12
F-17.002036138219907
sI16
F-20.291576460203103
sI19
F-35.981967974854953
sI23
F-27.046658790836659
sI24
F-13.275616962286264
sI27
F-17.587820905165046
sI29
F-19.562674268376725
sI30
F-22.932169494515961
sI32
F-35.043433882414405
sI33
F-2.7795001005319051
sI34
F-31.534397958395147
sI35
F-22.035266665835451
sI36
F-18.579210100228579
sI41
F-16.276462483469416
sI45
F-1.0455754142998472
sI49
F-30.729759269117636
sI54
F-22.4988377207778
sI56
F-9.6066024440893472
sI60
F9.5472947158784791
sI62
F-16.1514672438866
sI64
F-31.043646643752908
sI66
F-23.55016355256268
sI68
F-20.209523052965906
sI71
F-23.445979699406621
sI74
F-16.685550944710101
sI75
F-19.246042187121162
sI76
F-7.1316183446690502
sI77
F-7.8101395248436347
sI80
F-14.733812718956571
sI87
F7.7252546226452807
sI90
F-28.735218730090267
sI93
F-19.752046940955111
sI94
F-22.28350194569478
sI95
F-6.4832674077976122
sI97
F-21.656132109845942
sI98
F-35.397961351007226
sI99
F-21.321978613553497
sI108
F-23.36271407962505
sI109
F-14.911529173980313
sI112
F-9.5562325426787567
sI114
F-20.5833257209826
sI119
F-16.001407295231616
sI121
F-25.606670023883936
sI122
F-10.654930696520154
sI125
F0.62234019921476147
sI126
F9.8372891560627238
sI127
F-32.040298183384692
sI128
F-30.431165541605338
sI129
F-21.954349441442957
sI132
F-22.410487665012113
sI133
F-27.656977985638804
sI134
F-0.80218391651368393
sI136
F-27.161720930707673
sI137
F-2.1749762376428663
sI140
F-18.736100861985392
sI141
F-33.710707960867452
sI147
F-18.656989124868872
sI149
F-22.143194810224301
sI151
F-30.882834490230678
sI152
F-0.99352488005706618
sI154
F-12.066024476613862
sI155
F-12.262174875904336
sI157
F0.098551743065002029
sI159
F-33.560901859725107
sI160
F-20.699138413106724
sI162
F-21.956952762790706
sI163
F-34.543531603725029
sI166
F-9.3179330455463969
sI169
F-15.33851021613863
sI170
F-11.245257357305917
sI171
F-2.4294512496289258
sI173
F-27.219708772659317
sI174
F-18.788036510401923
sI175
F-24.836091689556781
sI177
F-21.199024201228241
sI179
F-23.76156338609502
sI181
F-26.024808722174015
sI183
F-20.281520626753291
sI185
F-15.996224755931024
sI186
F-19.129825347937526
sI188
F-11.839697275013577
sI192
F-26.287832914437615
sI194
F-37.985148584637258
sI196
F-22.983191184046916
sI197
F-22.854140704410383
sI200
F-29.301052912268233
sI201
F-21.694017794915027
sI207
F-8.3940249982947677
sI209
F-13.425782571121488
sI210
F-28.382069712088111
sI211
F-16.678239280034717
sI212
F-19.95472317691582
sI213
F-14.922064218050465
sI214
F-22.013365125088853
sI216
F-19.452092506882138
sI217
F-4.4328332820644931
sI220
F-1.6110827734584348
sI221
F-17.404732044439385
sI222
F-28.384620321275207
sI225
F-45.44972123420618
sI228
F-20.733061561317371
sI230
F-8.9603760890204285
sI231
F-28.265914138061618
sI232
F-20.872962256889309
sI233
F-9.8027849796038424
sI234
F-23.535553294958277
sI236
F-18.838252531380107
sI237
F-45.647089632828326
sI238
F-25.550335886992869
sI240
F-27.257731434459401
sI241
F-20.604384860483933
sI243
F-36.799055227780926
sI244
F-24.954815515993189
sI246
F-36.485601350807087
sI247
F-21.483785912957359
sI248
F-31.738516652953862
sI255
F-26.62371236411235
sI256
F-21.066340323819787
sI258
F-19.672111906122268
sI259
F-14.298991987682641
sI261
F-13.957859084334046
sI262
F-34.693392464124415
sI264
F-27.011727026095585
sI265
F-4.0669310356214794
sI266
F-30.907406557759387
sI270
F-27.709613654892266
sI271
F-21.645296649505212
sI273
F-15.714276281141395
sI277
F-19.01223196879414
sI278
F-24.054165738621521
sI279
F-22.629490152251591
sI280
F-27.933434341776632
sI282
F-43.088751280947193
sI283
F-22.243749108636649
sI286
F-22.252398645738822
sI292
F-15.171635291228739
sI293
F-9.4676780984819402
sI294
F-13.83978759470611
sI296
F-22.254347425809385
sI297
F-40.054698553337587
sI298
F-16.598974433942104
sI300
F-6.7112226302733262
sI304
F-13.630312645414278
sI307
F-26.122100780820816
sI311
F-16.886845643019683
sI312
F-35.943071245482884
sI315
F-39.193606826671683
sI317
F-23.409353850982797
sI320
F-43.930528534553432
sI322
F-40.506767475877311
sI323
F-22.985144227205936
sI327
F-22.548840322789431
sI328
F-26.49023854064157
sI331
F-21.420151028722685
sI334
F-18.478283670594223
sI335
F-28.419909233320254
sI338
F-22.269430021680932
sI339
F-23.633958903665246
sI340
F-9.3565071014427872
sI344
F-35.781746545798143
sI346
F-36.720560711796224
sI347
F-22.85687499639269
sI350
F-23.763312585876761
sI351
F-32.788505318044116
sI354
F-21.468282139230396
sI355
F-23.989853616573697
sI357
F-4.876800405989556
s.