(dp1
I2048
I83
sI2049
I214
sI2051
I297
sI2053
I270
sI2054
I286
sI2056
I83
sI2059
I83
sI2063
I286
sI2066
I286
sI2076
I83
sI2079
I281
sI2084
I83
sI2090
I298
sI2092
I281
sI2103
I269
sI2107
I83
sI2110
I298
sI2112
I83
sI2113
I281
sI2116
I269
sI2117
I64
sI2126
I69
sI2128
I69
sI2129
I64
sI2131
I69
sI2136
I177
sI2138
I155
sI2140
I69
sI2145
I98
sI2147
I64
sI2149
I98
sI2153
I177
sI2155
I69
sI2158
I155
sI2160
I177
sI2162
I64
sI2163
I54
sI2164
I54
sI2166
I98
sI2169
I194
sI2173
I98
sI2174
I323
sI2176
I323
sI2178
I211
sI2179
I194
sI2181
I54
sI2184
I157
sI2187
I54
sI2191
I54
sI2193
I155
sI2198
I98
sI2201
I323
sI2202
I323
sI2204
I98
sI2206
I69
sI2207
I207
sI2209
I321
sI2210
I321
sI2211
I164
sI2216
I54
sI2220
I323
sI2221
I61
sI2222
I61
sI2226
I157
sI2228
I323
sI2231
I61
sI2232
I210
sI2233
I194
sI2234
I98
sI2235
I323
sI2238
I210
sI2239
I157
sI2243
I61
sI2245
I321
sI2248
I331
sI2249
I200
sI2250
I328
sI2251
I200
sI2252
I157
sI2253
I54
sI2254
I42
sI2257
I321
sI2259
I213
sI2264
I42
sI2265
I321
sI2267
I321
sI2271
I157
sI2272
I200
sI2273
I323
sI2280
I157
sI2281
I321
sI2288
I205
sI2289
I175
sI2290
I42
sI2291
I61
sI2293
I157
sI2296
I321
sI2297
I52
sI2300
I157
sI2301
I62
sI2302
I42
sI2304
I321
sI2305
I52
sI2306
I93
sI2308
I42
sI2309
I19
sI2310
I24
sI2312
I62
sI2314
I329
sI2315
I62
sI2316
I327
sI2317
I329
sI2318
I180
sI2319
I93
sI2320
I329
sI2321
I180
sI2323
I52
sI2324
I52
sI2326
I42
sI2327
I24
sI2331
I329
sI2333
I93
sI2335
I42
sI2338
I52
sI2339
I327
sI2341
I327
sI2342
I321
sI2343
I39
sI2347
I180
sI2349
I329
sI2351
I327
sI2355
I79
sI2356
I195
sI2357
I75
sI2358
I18
sI2362
I329
sI2363
I180
sI2369
I195
sI2372
I18
sI2374
I327
sI2375
I327
sI2378
I208
sI2380
I327
sI2381
I79
sI2382
I18
sI2384
I18
sI2385
I195
sI2387
I179
sI2389
I73
sI2392
I79
sI2394
I208
sI2395
I326
sI2396
I326
sI2397
I179
sI2400
I45
sI2403
I79
sI2404
I208
sI2406
I79
sI2407
I179
sI2408
I45
sI2409
I326
sI2413
I326
sI2414
I179
sI2420
I326
sI2422
I73
sI2424
I179
sI2428
I179
sI2429
I326
sI2430
I45
sI2437
I201
sI2440
I179
sI2441
I58
sI2444
I46
sI2445
I46
sI2446
I58
sI2449
I40
sI2452
I58
sI2454
I40
sI2458
I202
sI2459
I201
sI2460
I167
sI2463
I40
sI2464
I330
sI2465
I176
sI2466
I58
sI2467
I163
sI2468
I92
sI2473
I40
sI2475
I201
sI2476
I48
sI2478
I330
sI2480
I201
sI2482
I330
sI2483
I40
sI2486
I40
sI2487
I158
sI2490
I185
sI2491
I184
sI2494
I40
sI2497
I330
sI2498
I330
sI2499
I189
sI2501
I48
sI2502
I330
sI2504
I48
sI2508
I189
sI2510
I21
sI2512
I189
sI2513
I30
sI2514
I84
sI2515
I48
sI2520
I161
sI2521
I161
sI2522
I184
sI2523
I48
sI2524
I189
sI2525
I199
sI2526
I161
sI2531
I48
sI2532
I41
sI2533
I48
sI2534
I189
sI2537
I161
sI2538
I189
sI2540
I105
sI2541
I48
sI2542
I189
sI2545
I59
sI2546
I38
sI2547
I199
sI2548
I189
sI2549
I87
sI2551
I59
sI2552
I38
sI2560
I59
sI2566
I59
sI2567
I59
sI2574
I59
sI1412
I7
sI1423
I7
sI1424
I7
sI1431
I7
sI1455
I6
sI1461
I6
sI1463
I15
sI1468
I12
sI1470
I12
sI1473
I6
sI1476
I6
sI1477
I6
sI1480
I12
sI1482
I12
sI1485
I15
sI1486
I12
sI1491
I12
sI1492
I4
sI1499
I13
sI1503
I13
sI1505
I4
sI1512
I13
sI1518
I141
sI1524
I4
sI1528
I13
sI1530
I13
sI1533
I4
sI1534
I141
sI1537
I4
sI1544
I141
sI1548
I4
sI1549
I4
sI1552
I3
sI1554
I141
sI1557
I3
sI1563
I141
sI1575
I3
sI1577
I147
sI1578
I154
sI1582
I147
sI1585
I154
sI1591
I108
sI1592
I147
sI1594
I154
sI1595
I154
sI1602
I108
sI1607
I147
sI1608
I154
sI1610
I108
sI1612
I133
sI1613
I147
sI1620
I152
sI1622
I108
sI1624
I230
sI1626
I230
sI1632
I154
sI1633
I133
sI1645
I153
sI1646
I133
sI1647
I257
sI1648
I133
sI1653
I230
sI1657
I129
sI1663
I153
sI1664
I253
sI1665
I130
sI1669
I248
sI1671
I133
sI1675
I253
sI1679
I129
sI1684
I130
sI1689
I253
sI1690
I253
sI1694
I153
sI1697
I233
sI1700
I253
sI1703
I232
sI1709
I129
sI1710
I253
sI1711
I136
sI1712
I232
sI1714
I248
sI1716
I136
sI1717
I233
sI1724
I136
sI1725
I248
sI1727
I232
sI1728
I136
sI1729
I130
sI1731
I232
sI1733
I248
sI1736
I220
sI1737
I130
sI1738
I136
sI1739
I132
sI1742
I132
sI1745
I220
sI1747
I232
sI1750
I260
sI1753
I136
sI1754
I136
sI1756
I231
sI1757
I220
sI1758
I220
sI1761
I220
sI1762
I132
sI1763
I132
sI1770
I268
sI1771
I231
sI1772
I220
sI1774
I231
sI1776
I268
sI1777
I220
sI1778
I110
sI1779
I110
sI1780
I231
sI1781
I268
sI1782
I268
sI1784
I268
sI1785
I220
sI1787
I220
sI1788
I110
sI1793
I110
sI1794
I110
sI1795
I110
sI1796
I247
sI1799
I251
sI1800
I251
sI1802
I247
sI1803
I139
sI1804
I110
sI1805
I251
sI1813
I247
sI1814
I139
sI1816
I247
sI1824
I251
sI1838
I251
sI1842
I317
sI1843
I247
sI1846
I251
sI1853
I315
sI1855
I317
sI1862
I282
sI1863
I299
sI1866
I317
sI1868
I254
sI1869
I225
sI1873
I315
sI1875
I317
sI1878
I225
sI1882
I226
sI1885
I225
sI1889
I315
sI1890
I315
sI1892
I282
sI1894
I315
sI1897
I226
sI1904
I309
sI1905
I291
sI1906
I282
sI1913
I252
sI1914
I252
sI1915
I227
sI1917
I282
sI1919
I227
sI1924
I252
sI1926
I291
sI1928
I227
sI1929
I291
sI1932
I252
sI1937
I282
sI1939
I320
sI1940
I303
sI1941
I227
sI1943
I285
sI1947
I278
sI1952
I252
sI1953
I311
sI1955
I287
sI1957
I287
sI1958
I278
sI1973
I320
sI1976
I303
sI1978
I319
sI1979
I214
sI1982
I320
sI1986
I303
sI1988
I320
sI1989
I252
sI1997
I214
sI1999
I311
sI2001
I290
sI2002
I214
sI2004
I306
sI2005
I303
sI2006
I311
sI2008
I214
sI2014
I290
sI2015
I311
sI2017
I303
sI2020
I289
sI2027
I214
sI2032
I297
sI2036
I281
sI2038
I281
sI2044
I83
sI2045
I286
sI2046
I214
s.