(dp1
I1
F-23.115844037396769
sI2
F-37.657165152186252
sI5
F-39.754530894660434
sI7
F-23.344150577818382
sI10
F-17.879580582229991
sI12
F-23.275473144419607
sI18
F-20.893965979281205
sI19
F-18.933461431831006
sI20
F-15.39899629426381
sI21
F-1.4917849228415889
sI25
F-35.136696359167956
sI26
F-14.864096913094016
sI27
F-25.513102641794191
sI29
F-18.313587867517413
sI36
F-25.649384402245062
sI37
F-8.0465645835684398
sI46
F-28.005321267645087
sI47
F-18.803601159741874
sI51
F-32.527888297598565
sI52
F-29.432711510824731
sI54
F-20.165703583456164
sI62
F-38.053156428554018
sI68
F-31.906114672305193
sI70
F-36.204290943870959
sI75
F-15.673453520797665
sI76
F-27.105645741285556
sI80
F-32.827160746681244
sI81
F-15.261070421626115
sI83
F-23.367892929422737
sI84
F-33.993027363186712
sI85
F-19.727612844230862
sI87
F-19.268128460205503
sI88
F-15.933478259027282
sI94
F-30.251491807787005
sI97
F-19.168833134371368
sI98
F-28.248403669988278
sI99
F-15.459789931319449
sI101
F-16.124948483677471
sI102
F-41.121354334280369
sI103
F-43.516234909526773
sI106
F-21.339302695413295
sI107
F-8.0688288493111884
sI110
F-22.541854324203001
sI111
F-18.992950418994454
sI114
F-2.3419584365445161
sI115
F-27.48090168933399
sI117
F-31.593517687472001
sI118
F3.7266671202545183
sI120
F-19.673969572788494
sI123
F5.9993053961371174
sI124
F-11.226270000501927
sI125
F-8.18461457100085
sI128
F-19.239011061010331
sI137
F-15.654935758893117
sI139
F-20.424471983420261
sI142
F-16.027913158168587
sI143
F-20.931428028535464
sI146
F-30.695682262299556
sI151
F-19.875077697867056
sI155
F-20.394299714275832
sI158
F-27.726849441661003
sI159
F-32.320084103381816
sI161
F-9.7007625400952264
sI165
F-40.050123574674515
sI169
F-35.507737290384725
sI172
F-33.657973200592608
sI173
F-33.257406344994251
sI181
F-34.254302413536024
sI182
F-21.406167814692736
sI184
F-40.122948084676864
sI187
F-33.741172142512951
sI188
F-15.194239176645354
sI189
F-21.955409737327372
sI192
F-8.3150562005923092
sI202
F-19.300135485340562
sI203
F-29.071131978013526
sI205
F-25.02259906599005
sI208
F-28.900172672403244
sI209
F-36.514409269252198
sI210
F-18.093043439026943
sI214
F-19.061545120258302
sI220
F-30.511369364212641
sI221
F-17.203478343190156
sI222
F-31.709736059821068
sI223
F-26.036381472756943
sI224
F-27.673309782058112
sI227
F-25.007386966910332
sI228
F-22.265237669775502
sI229
F-23.488821300166265
sI231
F-14.399754263375911
sI232
F-21.19357220125886
sI233
F-20.180597508302029
sI236
F-36.168183260017784
sI238
F-37.440790189456393
sI241
F-19.483949890272754
s.