(lp1
I224
aI290
aI211
aI239
aI302
aI288
aI270
aI184
aI272
aI226
aI280
aI149
aI157
aI282
aI285
aI301
aI247
aI255
aI84
aI161
aI177
aI147
aI82
aI86
aI100
aI112
aI128
aI73
aI105
aI202
aI171
aI187
aI205
aI111
aI127
aI150
aI143
aI433
aI185
aI93
aI325
aI405
aI362
aI331
aI412
aI444
aI334
aI383
aI399
aI12
aI40
aI17
aI449
aI467
aI356
aI406
aI438
aI454
aI361
aI427
aI364
aI365
aI398
aI446
aI482
aI499
aI463
aI479
aI400
aI305
aI338
aI308
aI388
aI374
aI327
aI359
aI360
aI345
aI410
aI381
aI430
aI415
aI447
aI248
aI274
aI227
aI262
aI278
aI295
aI284
aI286
aI256
aI293
aI252
aI297
aI246
aI218
aI242
aI265
aI197
aI221
aI298
aI269
aI183
aI287
aI303
aI104
aI160
aI208
aI154
aI186
aI194
aI195
aI140
aI141
aI107
aI174
aI159
aI369
aI434
aI355
aI376
aI313
aI441
aI378
aI332
aI386
aI377
aI426
aI442
aI333
aI366
aI336
aI432
aI387
aI390
aI395
aI413
aI306
aI435
aI404
aI357
aI393
aI315
aI411
aI368
aI385
aI323
aI421
aI310
aI342
aI358
aI407
aI439
aI330
aI363
aI316
aI349
aI448
aI401
aI403
aI436
aI391
aI424
aI346
aI348
aI380
aI318
aI304
aI320
aI417
aI307
aI371
aI340
aI372
aI373
aI312
aI428
aI397
aI429
aI431
aI4
aI216
aI289
aI275
aI234
aI261
aI219
aI212
aI296
aI229
aI283
aI222
aI279
aI264
aI271
aI96
aI116
aI97
aI98
aI172
aI196
aI95
aI166
aI207
aI120
aI145
aI153
aI209
aI89
aI130
aI146
aI90
aI102
aI118
aI156
aI79
aI99
aI167
aI31
aI498
aI468
aI474
aI481
aI483
aI486
aI471
aI457
aI476
aI465
aI416
aI328
aI382
aI61
aI9
aI232
aI281
aI237
aI253
aI131
aI83
aI123
aI206
aI92
aI163
aI76
aI321
aI418
aI162
aI423
aI114
aI314
aI367
aI33
aI19
aI21
aI42
aI10
aI11
aI13
aI20
aI23
aI29
aI34
aI39
aI47
aI311
aI347
aI494
aI53
aI18
aI24
aI249
aI88
aI192
aI121
aI122
aI148
aI180
aI115
aI164
aI165
aI199
aI344
aI396
aI394
aI54
aI64
aI241
aI235
aI245
aI220
aI236
aI244
aI223
aI168
aI182
aI137
aI134
aI142
aI425
aI35
aI41
aI45
aI2
aI485
aI341
aI351
aI470
aI488
aI489
aI490
aI462
aI63
aI65
aI71
aI251
aI238
aI152
aI169
aI193
aI204
aI103
aI138
aI158
aI144
aI179
aI480
aI497
aI466
aI451
aI456
aI458
aI491
aI460
aI461
aI477
aI408
aI56
aI225
aI228
aI117
aI178
aI189
aI191
aI132
aI151
aI352
aI419
aI309
aI78
aI379
aI445
aI414
aI420
aI6
aI16
aI337
aI326
aI317
aI319
aI324
aI273
aI276
aI473
aI51
aI81
aI109
aI75
aI322
aI402
aI375
aI440
aI329
aI350
aI464
aI443
aI257
aI260
aI258
aI124
aI136
aI176
aI125
aI203
aI181
aI87
aI38
aI496
aI484
aI500
aI469
aI455
aI472
aI493
aI478
aI495
aI409
aI215
aI233
aI487
aI1
aI452
aI492
aI25
aI384
aI389
aI7
aI15
aI62
aI77
aI113
aI74
aI453
aI50
aI68
aI8
aI263
aI80
aI129
aI110
aI173
aI135
aI201
aI155
aI450
aI475
aI48
aI46
aI230
aI69
aI27
aI59
aI259
aI240
aI213
aI266
aI214
aI300
aI119
aI459
aI60
aI291
aI277
aI294
aI267
aI108
aI353
aI354
aI339
aI335
aI52
aI250
aI292
aI268
aI72
aI188
aI133
aI198
aI43
aI66
aI67
aI126
aI94
aI32
aI36
aI243
aI101
aI5
aI3
aI217
aI231
aI254
aI28
aI343
aI55
aI22
aI299
aI175
aI106
aI91
aI392
aI139
aI85
aI170
aI437
aI200
aI190
aI370
aI44
aI14
aI210
a.