(dp1
I256
F-7.842341451875285
sI1
F-13.337273289137869
sI2
F-17.428919522256109
sI259
F-8.0264214860895464
sI4
F-32.028723226116199
sI5
F-22.621788136260619
sI7
F-21.525778138950471
sI9
F-14.079245004621001
sI268
F-51.535016440152589
sI269
F-19.094362978325591
sI271
F-20.192954779851902
sI16
F-21.949170553231909
sI274
F-20.831959108653848
sI19
F-19.282533745458892
sI20
F-18.312524923537651
sI25
F-19.700661374446554
sI27
F-25.558951738697942
sI28
F-29.340749285126066
sI29
F-25.883139310014371
sI31
F-20.967415233147733
sI32
F-20.632924155365117
sI34
F-19.494708236060376
sI37
F-25.824438022806291
sI41
F-1.4371432188543594
sI42
F-19.492290650627979
sI45
F-15.902161665962552
sI46
F-17.589465357329999
sI47
F-23.687212107985147
sI51
F-13.735969854093867
sI53
F-16.58832430576183
sI265
F-23.747950536839852
sI57
F-20.726444486562499
sI59
F-19.762837090510217
sI61
F-18.949863790821212
sI62
F-25.109585132810096
sI64
F-15.80112173153509
sI66
F-26.050510667984696
sI68
F-31.856954343253918
sI69
F-30.823864193751945
sI70
F-26.118069488540186
sI71
F-27.497999037884369
sI72
F-28.228810957061739
sI75
F-30.215281125469701
sI77
F-40.119149152931669
sI78
F-22.905212441510812
sI79
F-17.564025753466154
sI82
F-22.225372553928224
sI83
F-15.481448015088532
sI93
F-22.044614204391792
sI95
F-37.509898539600897
sI96
F1.428703818546694
sI102
F-22.314037088901472
sI103
F-26.59487434136679
sI104
F-32.223266510560649
sI106
F-34.183775013521483
sI108
F-10.31898412729376
sI110
F-15.42217730788704
sI114
F7.4550164477554119
sI118
F-29.031196210715493
sI122
F-21.247509088248407
sI128
F-25.756576180244906
sI131
F-31.815902852013608
sI133
F-16.524917870873324
sI260
F-22.766152328546241
sI137
F-16.9404275377033
sI140
F-24.797355472360195
sI141
F-21.037335260764621
sI143
F-16.76970921930203
sI144
F-20.335622573138551
sI147
F-15.050983292819922
sI149
F-8.3948949966728321
sI151
F-20.716614440813899
sI154
F-17.87005601051014
sI158
F-12.133586482787663
sI161
F-22.896936837128919
sI162
F-43.177330777095293
sI164
F-16.34555574961071
sI166
F-20.171860665085049
sI167
F-9.1816527190942878
sI168
F-3.2448644469746455
sI170
F-33.274579029731569
sI171
F-28.930929753071482
sI173
F-11.15019187790395
sI175
F-0.54896959593514794
sI177
F-40.652356890021338
sI179
F-39.33966893351645
sI181
F-20.525230805019604
sI184
F-19.72307523629668
sI191
F-37.197958741239859
sI194
F-16.527311530938732
sI196
F-21.307505266807709
sI199
F-28.482489554847547
sI201
F-29.214328355454597
sI204
F-26.570539755975403
sI205
F-27.20002592132127
sI207
F-20.907769766493288
sI210
F-33.538452990362515
sI212
F-23.240919214137548
sI213
F-18.435484807370671
sI222
F-25.515862276600089
sI224
F-18.950000614527696
sI225
F-37.235197707944479
sI227
F-23.324232442049635
sI228
F-10.650362950654795
sI229
F-19.476186856286432
sI230
F-27.548233138013003
sI232
F-20.684168842365239
sI238
F-30.936425388530438
sI239
F-28.75005575562777
sI240
F-29.775660099863842
sI241
F-26.240475442912526
sI242
F-19.65450727666915
sI244
F-11.603102332196784
sI247
F-41.081243580011645
sI251
F-31.811038086826386
sI252
F-25.954335864392334
sI254
F-35.591753249174218
sI255
F-36.192042852497835
s.