(dp1
I3979
I159
sI2816
I185
sI3586
I81
sI4099
I145
sI4100
I62
sI4101
I26
sI2988
I205
sI4106
I7
sI3084
I195
sI4110
I136
sI3088
I172
sI4113
I143
sI4115
I152
sI4116
I146
sI3093
I172
sI4118
I120
sI4119
I145
sI4120
I31
sI4121
I130
sI3100
I197
sI4125
I61
sI4126
I38
sI3103
I174
sI3045
I189
sI2854
I185
sI4135
I164
sI4137
I54
sI4138
I61
sI3627
I81
sI4140
I75
sI4141
I0
sI4142
I136
sI4144
I146
sI4145
I75
sI4147
I136
sI4149
I136
sI4150
I143
sI3128
I204
sI4154
I61
sI4155
I152
sI3645
I81
sI4158
I164
sI4162
I130
sI3139
I204
sI4167
I136
sI4171
I58
sI4173
I164
sI4174
I152
sI3153
I180
sI4179
I61
sI3156
I209
sI3157
I204
sI4182
I136
sI3001
I198
sI4186
I61
sI4187
I152
sI4188
I163
sI4189
I152
sI4191
I36
sI3169
I204
sI4196
I55
sI3174
I180
sI4198
I163
sI3038
I205
sI3004
I198
sI3070
I174
sI3005
I189
sI3697
I117
sI3186
I180
sI3603
I81
sI2902
I211
sI4214
I143
sI4215
I33
sI4216
I19
sI3198
I180
sI4223
I148
sI4224
I14
sI3713
I118
sI4229
I148
sI4230
I9
sI3009
I215
sI4232
I148
sI3213
I204
sI4240
I21
sI4241
I148
sI3731
I117
sI4244
I148
sI4245
I21
sI3097
I174
sI4249
I148
sI3738
I110
sI4251
I45
sI4255
I21
sI4256
I59
sI4257
I148
sI4258
I11
sI3057
I174
sI3185
I204
sI3752
I110
sI4265
I21
sI4270
I41
sI2921
I200
sI4272
I21
sI3187
I180
sI3764
I106
sI3765
I76
sI3766
I106
sI3767
I101
sI3768
I106
sI4283
I15
sI3772
I101
sI4286
I28
sI3957
I86
sI4288
I25
sI3783
I76
sI4297
I2
sI4300
I25
sI4304
I56
sI4305
I28
sI3794
I92
sI4307
I28
sI4308
I56
sI4313
I56
sI4314
I15
sI4318
I56
sI4321
I25
sI3963
I161
sI4324
I56
sI3813
I111
sI2886
I211
sI3111
I199
sI3830
I111
sI3796
I110
sI3094
I199
sI3711
I106
sI3836
I109
sI3839
I80
sI3840
I109
sI3842
I123
sI2819
I185
sI3844
I134
sI3116
I180
sI2830
I211
sI3857
I102
sI3858
I134
sI2836
I185
sI3861
I80
sI2838
I185
sI3863
I111
sI2936
I175
sI2842
I185
sI3868
I123
sI3871
I134
sI3718
I63
sI3878
I102
sI2856
I211
sI3882
I80
sI3884
I153
sI3806
I109
sI3895
I123
sI3896
I134
sI3062
I172
sI2875
I194
sI3901
I123
sI3011
I205
sI2869
I166
sI3040
I215
sI3906
I153
sI2943
I203
sI2884
I166
sI3909
I159
sI3910
I105
sI3041
I172
sI2871
I211
sI3918
I104
sI2895
I179
sI3920
I153
sI3921
I153
sI3922
I67
sI2899
I166
sI3924
I156
sI2901
I166
sI3926
I67
sI3927
I141
sI3932
I77
sI3934
I77
sI3935
I71
sI2912
I175
sI3899
I153
sI3940
I141
sI3941
I105
sI3943
I67
sI3945
I131
sI3946
I141
sI2924
I206
sI3949
I161
sI3950
I134
sI3952
I157
sI3953
I114
sI3954
I71
sI3134
I196
sI3729
I117
sI3013
I178
sI2879
I194
sI3966
I141
sI3967
I71
sI2948
I166
sI3974
I77
sI3976
I18
sI3978
I79
sI3735
I63
sI2956
I206
sI3138
I180
sI2962
I203
sI3987
I151
sI3990
I93
sI3992
I131
sI3994
I135
sI2970
I183
sI3999
I162
sI2976
I198
sI2978
I170
sI3739
I106
sI2980
I203
sI4005
I147
sI4006
I108
sI4007
I108
sI4008
I93
sI4010
I135
sI2987
I183
sI4012
I48
sI4091
I147
sI4016
I154
sI4017
I147
sI2994
I203
sI4019
I162
sI4021
I108
sI2999
I205
sI4024
I78
sI4025
I125
sI4026
I112
sI4028
I125
sI4029
I94
sI4030
I149
sI4033
I154
sI4035
I147
sI3012
I215
sI4037
I108
sI4038
I137
sI4039
I48
sI3016
I205
sI4042
I137
sI4043
I73
sI3533
I82
sI3022
I172
sI3025
I215
sI3026
I198
sI3028
I205
sI4053
I162
sI4054
I119
sI3681
I81
sI3032
I189
sI3919
I141
sI3066
I174
sI4062
I24
sI2981
I215
sI3552
I82
sI4065
I48
sI4066
I1
sI3835
I123
sI4069
I147
sI4072
I24
sI4073
I120
sI2983
I198
sI3054
I174
sI3055
I215
sI4080
I165
sI4081
I119
sI4082
I119
sI3571
I82
sI3060
I197
sI4085
I144
sI4086
I48
sI3753
I76
sI3960
I85
sI2815
I211
sI4094
I84
sI3071
I174
s.