(dp1
I1537
I162
sI1538
I150
sI1540
I166
sI1541
I182
sI1543
I146
sI1547
I179
sI1548
I166
sI1549
I170
sI1552
I177
sI1553
I190
sI1554
I190
sI1555
I179
sI1557
I189
sI1558
I184
sI1560
I199
sI1561
I177
sI1562
I177
sI1563
I190
sI1564
I194
sI1565
I198
sI1566
I182
sI1567
I170
sI1568
I196
sI1570
I188
sI1571
I198
sI1572
I190
sI1573
I196
sI1574
I187
sI1575
I203
sI1576
I197
sI1578
I177
sI1580
I199
sI1581
I201
sI1583
I212
sI1585
I221
sI1586
I221
sI1587
I231
sI1588
I216
sI1590
I216
sI1591
I212
sI1593
I218
sI1594
I214
sI1596
I227
sI1597
I221
sI1599
I212
sI1601
I218
sI1602
I216
sI1603
I223
sI1604
I239
sI1605
I221
sI1608
I231
sI1609
I239
sI1610
I246
sI1611
I236
sI1612
I234
sI1613
I227
sI1614
I233
sI1615
I239
sI1618
I241
sI1619
I233
sI1620
I230
sI1621
I231
sI1624
I254
sI1625
I267
sI1626
I252
sI1630
I268
sI1631
I255
sI1634
I274
sI1636
I266
sI1638
I259
sI1641
I269
sI1642
I254
sI1643
I270
sI1644
I262
sI1645
I265
sI1646
I269
sI1647
I272
sI1648
I257
sI1651
I268
sI1652
I278
sI1653
I287
sI1654
I276
sI1655
I282
sI1657
I266
sI1658
I261
sI1661
I269
sI1665
I288
sI1666
I282
sI1668
I289
sI1670
I299
sI1671
I277
sI1672
I292
sI1673
I296
sI1674
I290
sI1677
I299
sI1679
I291
sI1680
I293
sI1681
I289
sI1682
I299
sI1683
I296
sI1684
I292
sI1685
I292
sI1686
I299
sI1687
I299
sI1688
I301
sI1690
I306
sI1691
I308
sI1692
I309
sI1693
I307
sI1694
I313
sI1695
I308
sI1698
I317
sI1699
I311
sI1702
I316
sI1704
I318
sI1705
I319
sI1706
I319
sI1707
I320
sI1358
I1
sI1360
I2
sI1361
I3
sI1362
I7
sI1363
I5
sI1364
I1
sI1365
I8
sI1366
I2
sI1367
I12
sI1368
I7
sI1369
I9
sI1370
I12
sI1371
I10
sI1372
I8
sI1373
I20
sI1374
I13
sI1376
I24
sI1378
I26
sI1379
I18
sI1380
I16
sI1382
I24
sI1383
I28
sI1385
I18
sI1386
I26
sI1387
I29
sI1390
I24
sI1391
I27
sI1392
I28
sI1393
I45
sI1394
I29
sI1395
I40
sI1397
I41
sI1398
I34
sI1400
I42
sI1401
I35
sI1402
I40
sI1403
I46
sI1404
I40
sI1406
I62
sI1407
I45
sI1409
I48
sI1410
I41
sI1412
I40
sI1413
I56
sI1414
I50
sI1415
I46
sI1418
I59
sI1419
I69
sI1423
I76
sI1427
I74
sI1428
I66
sI1429
I56
sI1430
I56
sI1432
I70
sI1433
I71
sI1434
I72
sI1435
I74
sI1436
I66
sI1437
I71
sI1438
I72
sI1439
I80
sI1440
I73
sI1441
I76
sI1443
I72
sI1444
I73
sI1446
I73
sI1447
I91
sI1448
I72
sI1449
I77
sI1450
I74
sI1451
I82
sI1452
I74
sI1453
I77
sI1454
I106
sI1455
I83
sI1456
I93
sI1457
I87
sI1458
I91
sI1459
I83
sI1460
I96
sI1461
I94
sI1462
I105
sI1463
I102
sI1464
I98
sI1465
I108
sI1466
I103
sI1468
I91
sI1469
I102
sI1470
I122
sI1471
I106
sI1472
I102
sI1473
I121
sI1474
I114
sI1475
I103
sI1476
I96
sI1477
I105
sI1478
I119
sI1480
I110
sI1481
I114
sI1482
I115
sI1483
I108
sI1485
I121
sI1486
I114
sI1487
I125
sI1489
I130
sI1490
I144
sI1492
I122
sI1495
I119
sI1497
I132
sI1499
I133
sI1500
I125
sI1502
I140
sI1503
I141
sI1505
I154
sI1506
I146
sI1507
I137
sI1508
I144
sI1509
I150
sI1511
I140
sI1513
I144
sI1514
I151
sI1515
I132
sI1517
I155
sI1518
I141
sI1520
I166
sI1521
I144
sI1522
I137
sI1523
I147
sI1525
I140
sI1526
I148
sI1527
I170
sI1528
I162
sI1529
I137
sI1530
I170
sI1532
I144
sI1533
I154
sI1534
I169
sI1535
I146
s.