(lp1
I30
aI58
aI60
aI104
aI83
aI80
aI74
aI152
aI177
aI179
aI148
aI191
aI186
aI203
aI197
aI275
aI220
aI228
aI231
aI253
aI246
aI280
aI322
aI390
aI394
aI367
aI381
aI428
aI474
aI460
aI524
aI533
aI534
aI585
aI599
aI656
aI658
aI813
aI796
aI888
aI892
aI550
aI525
aI528
aI582
aI586
aI598
aI573
aI640
aI666
aI802
aI803
aI838
aI814
aI818
aI820
aI792
aI793
aI897
aI900
aI882
aI15
aI18
aI20
aI56
aI88
aI65
aI69
aI89
aI82
aI160
aI145
aI159
aI209
aI218
aI219
aI199
aI222
aI277
aI298
aI325
aI356
aI406
aI391
aI362
aI410
aI419
aI458
aI412
aI429
aI517
aI532
aI543
aI603
aI743
aI744
aI735
aI898
aI886
aI895
aI623
aI607
aI657
aI664
aI805
aI811
aI812
aI64
aI72
aI84
aI97
aI43
aI57
aI146
aI143
aI151
aI185
aI187
aI181
aI166
aI227
aI252
aI304
aI386
aI444
aI461
aI495
aI613
aI597
aI655
aI669
aI644
aI712
aI717
aI753
aI725
aI726
aI733
aI896
aI904
aI907
aI884
aI891
aI894
aI13
aI14
aI24
aI32
aI48
aI50
aI78
aI96
aI164
aI149
aI174
aI184
aI194
aI224
aI223
aI256
aI290
aI284
aI285
aI270
aI370
aI388
aI377
aI347
aI351
aI384
aI400
aI385
aI402
aI434
aI436
aI378
aI396
aI415
aI442
aI468
aI486
aI503
aI512
aI553
aI541
aI662
aI665
aI837
aI823
aI899
aI903
aI673
aI668
aI902
aI905
aI908
aI912
aI23
aI38
aI55
aI121
aI126
aI91
aI129
aI134
aI161
aI195
aI157
aI238
aI247
aI334
aI350
aI369
aI357
aI373
aI423
aI397
aI382
aI482
aI487
aI536
aI589
aI593
aI602
aI652
aI736
aI708
aI755
aI730
aI910
aI608
aI610
aI587
aI654
aI660
aI639
aI706
aI710
aI742
aI718
aI720
aI906
aI911
aI12
aI22
aI37
aI86
aI102
aI110
aI183
aI132
aI111
aI193
aI171
aI189
aI167
aI200
aI208
aI201
aI258
aI294
aI305
aI340
aI313
aI300
aI353
aI430
aI514
aI551
aI557
aI591
aI594
aI670
aI741
aI749
aI605
aI667
aI746
aI756
aI19
aI44
aI47
aI103
aI115
aI105
aI140
aI168
aI176
aI182
aI225
aI221
aI242
aI235
aI244
aI271
aI276
aI311
aI339
aI403
aI341
aI376
aI432
aI448
aI451
aI437
aI463
aI518
aI521
aI538
aI511
aI672
aI678
aI816
aI748
aI762
aI850
aI25
aI68
aI90
aI130
aI226
aI230
aI299
aI321
aI371
aI387
aI404
aI438
aI408
aI445
aI383
aI456
aI493
aI549
aI537
aI539
aI750
aI752
aI760
aI734
aI817
aI909
aI540
aI768
aI757
aI828
aI16
aI17
aI21
aI27
aI70
aI87
aI99
aI108
aI101
aI109
aI138
aI202
aI344
aI392
aI329
aI418
aI413
aI455
aI497
aI498
aI499
aI506
aI552
aI601
aI751
aI545
aI546
aI542
aI612
aI614
aI620
aI622
aI628
aI633
aI674
aI767
aI815
aI819
aI824
aI40
aI63
aI71
aI79
aI123
aI153
aI354
aI297
aI318
aI433
aI411
aI446
aI401
aI452
aI480
aI490
aI661
aI663
aI745
aI832
aI801
aI806
aI809
aI825
aI580
aI684
aI834
aI28
aI46
aI112
aI118
aI137
aI127
aI142
aI240
aI236
aI265
aI372
aI358
aI330
aI488
aI489
aI513
aI500
aI504
aI509
aI609
aI727
aI604
aI842
aI852
aI853
aI36
aI39
aI95
aI165
aI293
aI303
aI364
aI365
aI405
aI393
aI441
aI380
aI414
aI465
aI576
aI617
aI600
aI632
aI606
aI747
aI765
aI836
aI821
aI547
aI619
aI588
aI849
aI826
aI915
aI94
aI92
aI282
aI470
aI581
aI675
aI676
aI680
aI729
aI731
aI843
aI615
aI621
aI627
aI822
aI829
aI831
aI34
aI85
aI51
aI53
aI59
aI124
aI135
aI211
aI274
aI260
aI283
aI319
aI368
aI363
aI417
aI422
aI395
aI398
aI440
aI443
aI492
aI477
aI501
aI505
aI759
aI841
aI635
aI677
aI913
aI54
aI106
aI107
aI170
aI205
aI214
aI207
aI272
aI250
aI262
aI281
aI324
aI424
aI494
aI544
aI616
aI827
aI830
aI26
aI77
aI139
aI133
aI162
aI178
aI263
aI291
aI261
aI286
aI287
aI326
aI333
aI618
aI738
aI722
aI846
aI916
aI689
aI695
aI740
aI1
aI131
aI196
aI257
aI254
aI255
aI292
aI342
aI389
aI554
aI572
aI679
aI844
aI845
aI857
aI100
aI190
aI316
aI361
aI379
aI416
aI466
aI454
aI496
aI481
aI515
aI484
aI469
aI502
aI472
aI473
aI491
aI611
aI624
aI868
aI2
aI62
aI266
aI312
aI483
aI462
aI595
aI548
aI919
aI117
aI234
aI229
aI346
aI343
aI421
aI459
aI578
aI565
aI571
aI575
aI629
aI630
aI864
aI855
aI862
aI555
aI567
aI626
aI781
aI761
aI764
aI920
aI29
aI31
aI66
aI67
aI128
aI81
aI93
aI122
aI141
aI75
aI172
aI175
aI336
aI348
aI479
aI577
aI579
aI556
aI558
aI773
aI754
aI631
aI691
aI835
aI217
aI210
aI204
aI267
aI308
aI301
aI854
aI858
aI561
aI833
aI0
aI116
aI61
aI114
aI136
aI119
aI144
aI188
aI198
aI237
aI243
aI296
aI464
aI699
aI923
aI737
aI780
aI839
aI278
aI314
aI374
aI687
aI770
aI583
aI560
aI3
aI4
aI11
aI42
aI98
aI158
aI232
aI320
aI315
aI310
aI563
aI681
aI713
aI867
aI840
aI847
aI625
aI776
aI763
aI41
aI113
aI35
aI215
aI323
aI450
aI447
aI642
aI634
aI637
aI690
aI872
aI877
aI878
aI645
aI636
aI688
aI698
aI779
aI782
aI766
aI5
aI7
aI8
aI216
aI213
aI359
aI375
aI345
aI435
aI457
aI519
aI508
aI693
aI694
aI697
aI702
aI865
aI76
aI156
aI233
aI289
aI331
aI317
aI349
aI439
aI566
aI682
aI685
aI559
aI562
aI683
aI866
aI873
aI856
aI9
aI212
aI264
aI783
aI869
aI851
aI33
aI163
aI564
aI715
aI787
aI848
aI6
aI73
aI125
aI861
aI596
aI701
aI703
aI876
aI879
aI251
aI427
aI716
aI791
aI870
aI874
aI650
aI859
aI259
aI269
aI467
aI478
aI530
aI641
aI700
aI273
aI426
aI777
aI778
aI786
aI790
aI881
aI885
aI584
aI568
aI704
aI686
aI797
aI49
aI245
aI425
aI510
aI535
aI871
aI147
aI516
aI696
aI863
aI705
aI52
aI169
aI335
aI328
aI648
aI649
aI653
aI724
aI789
aI795
aI154
aI192
aI407
aI399
aI507
aI799
aI774
aI10
aI248
aI241
aI309
aI449
aI453
aI526
aI570
aI804
aI775
aI784
aI249
aI337
aI420
aI592
aI574
aI860
aI719
aI785
aI788
aI798
aI155
aI520
aI711
aI800
aI707
aI794
aI889
aI875
aI355
aI880
aI569
aI45
aI180
aI475
aI150
aI366
aI338
aI893
aI643
aI471
aI883
aI206
aI239
aI120
aI302
aI638
aI332
aI651
aI808
aI772
aI352
aI732
aI728
aI531
aI646
aI529
aI173
aI807
aI307
aI721
aI890
aI590
aI647
aI887
aI523
aI739
aI810
a.