(dp1
I4
F-26.064527162219065
sI5
F-17.758909218505579
sI7
F-9.4738399783065006
sI8
F-28.203547058436129
sI12
F-19.160487129265945
sI13
F-20.135117971588954
sI14
F-16.971209184994791
sI15
F-18.730159400924251
sI16
F-19.614708268856873
sI19
F-36.724213491856275
sI20
F-21.445881842629007
sI22
F-21.818246914133539
sI23
F-19.869461251151534
sI24
F-13.598589356833344
sI27
F-18.228689018990877
sI28
F-35.022435666848864
sI29
F-25.054850181981692
sI31
F-20.017948212276977
sI32
F-20.68632827554228
sI33
F-38.124593036365582
sI36
F-19.182464024967999
sI37
F-28.422732464010579
sI38
F-24.202486955226277
sI39
F-23.566694182600983
sI40
F-10.272594901833415
sI41
F-10.040165691929261
sI44
F-20.641792478045005
sI46
F-11.629099850121221
sI49
F-28.151488985462407
sI50
F-26.25212499332892
sI56
F-24.749452019690807
sI57
F-22.873136660467594
sI58
F-13.352965405702946
sI59
F-21.281825319950997
sI61
F5.483876862827529
sI62
F-22.620244371659169
sI63
F-28.406890092459832
sI64
F-28.745942430236155
sI65
F-40.440860292413092
sI66
F5.8893259440102668
sI67
F-4.0059086248926974
sI69
F-22.349395630384961
sI70
F-21.244396699064183
sI71
F-10.260452653095655
sI72
F-16.881480491997749
sI73
F-14.370789331778354
sI74
F-19.639953047987916
sI75
F-15.310944433929222
sI76
F-27.587921736893833
sI81
F-18.840435123697461
sI83
F-24.028710555927688
sI86
F-10.729536584466103
sI90
F-20.572224382490248
sI91
F-20.509436846845205
sI96
F-15.378633642265271
sI98
F-24.5329008660038
sI99
F-20.398119029838682
sI101
F-13.372034509320599
sI102
F-19.989742736954923
sI106
F-23.852107019306573
sI108
F-16.852180486574724
sI109
F-19.075860844476182
sI110
F-36.76188536357229
sI112
F-14.200859671841755
sI113
F-30.654464417327574
sI114
F-24.310361426650445
sI115
F-50.338221001917105
sI116
F-19.013094376063435
sI119
F-16.775781728571644
sI122
F-38.166915892525623
sI123
F-30.77335126500023
sI124
F4.6093263445918922
sI126
F-35.265549409896977
sI129
F-28.592066864267608
sI130
F-23.783803112758449
sI131
F-11.097037822311393
sI132
F-3.0781792837626654
sI134
F6.3992581848726218
sI137
F-32.270103390515786
sI138
F-18.118968220434141
sI139
F-20.96795502875014
sI140
F-35.913760221692641
sI142
F-17.040480422851033
sI143
F-26.824681293466654
sI146
F-6.3405995336328829
sI148
F-30.043332144260575
sI149
F-19.265166929445968
sI150
F-31.364674679364484
sI151
F-11.824428985076452
sI152
F-18.877918169716096
sI153
F-13.929593650737729
sI154
F-11.882545797408767
sI155
F-14.534305549215929
sI157
F-38.523329823373984
sI159
F-9.4813118548454725
sI160
F-10.472674212964165
sI162
F-14.118695907162888
sI165
F-17.394616217054164
sI166
F-38.745181801512686
sI168
F-18.873214608824782
sI169
F-27.712168728326589
sI171
F-18.126229458314313
sI172
F-11.046811046360887
sI173
F-12.694031481159612
sI175
F-24.762613136879395
sI176
F-26.375580410722321
sI177
F-34.776050581644654
sI179
F3.0093996355388413
sI180
F-13.267360606807046
sI181
F-24.461304165757596
sI182
F-9.417535103803516
sI183
F-32.03547182829881
sI185
F-1.7379151112075135
sI186
F-21.737153438142116
sI187
F-9.3273582707547291
sI189
F-16.406608751401095
sI190
F-19.084399816186277
sI191
F-21.154959249344131
sI192
F-40.798324764807475
sI193
F-33.937859930319874
sI194
F-59.755875204343823
sI196
F-13.377680423830157
sI197
F-23.804256111992345
sI198
F-16.481325842306944
sI200
F-26.148909358520754
sI201
F9.004896904776615
sI202
F-23.763900106043451
sI203
F-6.4463454309439214
sI204
F-19.218198902606218
sI205
F-16.312596685001182
sI206
F-19.916163371671871
sI209
F-22.036896427015563
sI211
F7.3177687714188835
sI215
F-23.325950617604775
sI218
F0.019755312025253602
sI220
F-14.50099488235027
sI221
F-20.144146135937987
sI222
F-25.283552833029034
sI223
F-20.626532791744395
sI224
F-14.95558059137727
sI225
F-31.712485325577319
sI226
F9.8794183914278335
sI228
F10.346560104877369
sI231
F-2.0967002117054392
sI232
F-9.4071570950799241
sI233
F-13.54136335741785
sI234
F-19.999032836723956
sI238
F-26.883465292006704
sI239
F-10.250843010091657
sI245
F-25.192783424941197
sI249
F-35.550593960689596
sI251
F1.6181125633512181
sI252
F-15.887174750444984
sI253
F-6.8181848804483423
sI254
F0.90662362393933904
sI255
F-25.091864867956218
sI257
F-24.183297665862852
sI259
F-18.816161627650743
sI260
F-28.026236846035857
sI269
F-24.110634562451892
sI274
F-25.557685399748379
sI275
F6.3926356220555647
sI276
F-21.277835569629005
sI278
F-23.291537752196689
sI280
F-20.23263473407286
sI281
F-31.905360176343365
sI284
F-29.559081473900093
sI285
F-49.945399333131746
sI286
F-11.091616753044249
sI288
F-20.67004742384141
sI290
F-24.976962362390822
sI291
F-16.313558651880044
sI293
F-35.875282727065439
sI294
F-14.600719903259034
sI295
F-14.504745629011381
sI296
F-27.735845148212462
sI297
F-35.232889225697861
sI300
F-9.9209573526322572
sI305
F-20.518073061551718
sI307
F-16.88878555479738
sI308
F-22.960889043706075
sI309
F5.2103771650821784
sI311
F-30.751539918199256
sI312
F-24.429312895600603
sI313
F-28.572940714073312
sI316
F-23.783362151907426
sI318
F-15.546357819022887
sI319
F-27.411725346459647
sI320
F-22.911141569929384
sI321
F-25.386587953624201
sI323
F-39.017516678302414
sI328
F-15.673862773975372
sI329
F-14.761784313483702
sI330
F-27.59376588684529
sI331
F-11.157822778695021
sI332
F6.8035737625122863
sI333
F-35.805789406723733
sI336
F-10.017192826029017
sI337
F-29.23105599416489
sI338
F8.9216009306103956
sI339
F-46.942363479620795
sI341
F-12.814197435364164
sI342
F-44.809990399467935
sI343
F-22.534110584998714
sI346
F-21.949807961817044
sI347
F-20.103142425073486
sI348
F-17.082819731747065
sI350
F-9.0937977110223471
sI354
F-26.935562565300089
sI356
F-0.84683961559176169
sI360
F9.1007844423529889
sI362
F1.5335394990022451
sI363
F-22.019887129433783
sI366
F-29.653109659938565
sI369
F5.719228095856721
sI371
F-11.859336126945209
sI373
F-17.437264105247181
sI374
F-18.154444725237937
sI375
F-9.4527098520076009
sI376
F1.9825928676759759
sI379
F-16.68617672330204
sI380
F-31.637627780981106
sI383
F-32.965970959610431
sI386
F-28.321934730702154
sI387
F7.5992120257797637
sI389
F-9.8025709037239892
sI391
F1.0226464552727919
sI392
F9.4114315618012512
sI394
F-8.9085281476215528
sI395
F-31.135473822670278
sI397
F1.6024064385310055
sI398
F-16.478646950288848
sI401
F-20.007811698245817
sI404
F-1.1901730369445147
sI405
F-17.897279103438024
sI406
F-18.397044063574256
sI407
F-9.4864053783187217
sI408
F-20.253024275748089
sI410
F-35.373969776239306
sI412
F-17.304409987253294
sI415
F-12.44285083086362
sI416
F-20.850737963351293
sI417
F-34.841950030616871
sI419
F8.439578292760018
sI420
F-23.863235308919499
sI421
F-21.45969151487536
sI422
F-10.164643577310443
sI423
F-17.569687992380466
sI424
F-23.602316471278655
sI427
F-16.812589652574758
sI428
F-21.148037936521703
sI429
F-32.33130869405251
sI432
F-23.209377425259831
sI433
F-28.906793850048004
sI434
F-19.967372132233123
sI435
F-27.801731719722468
sI436
F-19.570729479451856
sI438
F-20.03366087680493
sI439
F-20.88911350314207
sI440
F-15.853878108472628
sI442
F-33.595729491752962
sI443
F3.6539349478781276
sI444
F-17.574480568616679
sI445
F-17.014255832780734
sI446
F-31.174454498023437
sI448
F-11.144988636413728
sI450
F-13.597065579612362
sI451
F-20.727916858741338
sI453
F-34.924829281939978
sI454
F-21.773042805544804
sI456
F4.0080782381324269
sI457
F-15.507236681576188
sI459
F-18.302683094422491
sI460
F-23.27842372625166
sI469
F-22.713060603939354
sI471
F-24.144316259965592
sI472
F-40.98940807899811
sI473
F-29.937349174039042
sI474
F-18.017064066668453
sI475
F-22.832740687582969
sI477
F-18.695812901195026
sI478
F-28.394328590561088
sI479
F-17.415172469248702
sI480
F-40.204474484549422
sI481
F-26.179064246127382
sI482
F-17.042136103805561
sI484
F-22.299667928015879
sI487
F-37.376481731284343
sI490
F-27.602106383664193
sI491
F-27.310732229729268
sI492
F-23.005325881560111
sI497
F-19.436601796624018
sI499
F-20.907419648042691
sI500
F-22.287386126119046
sI502
F-25.170133444472995
sI503
F-22.148279722796204
sI504
F-17.912318309643453
sI505
F-24.143408203975682
sI506
F-23.426803304507544
sI508
F-19.892604201826714
sI509
F-19.937505727071297
sI510
F-44.857854985487108
sI512
F-20.572395119006401
sI513
F-21.923893446823982
sI516
F-42.398056464093173
sI517
F-18.908952896882028
sI518
F-21.050916820267631
sI520
F-15.083260165363669
sI522
F-15.980935864245495
sI523
F-25.991626155789973
sI524
F-30.898625914421231
sI526
F-20.503165577411309
sI527
F-20.236830849226351
sI528
F-24.413121810242075
sI531
F-24.755966543734402
sI533
F-24.971215975526178
sI538
F-27.853614749129179
sI539
F-4.0503581007367586
sI540
F-23.496411469252592
sI544
F-25.467446890522979
sI546
F5.2407145548735343
sI547
F-10.804617213709818
sI548
F-22.37823511534387
sI549
F-19.316449096045787
sI551
F-21.520044954741095
sI552
F4.0605183437865264
sI553
F-37.527778445925534
sI555
F7.2265539814455053
sI556
F3.2959567147248094
sI557
F-25.970153279334497
sI558
F-29.270363378771521
sI561
F-2.9945927059056601
sI563
F7.0638522770987038
sI564
F-19.436032213186976
sI565
F3.6368599147939449
sI566
F-24.006366321056305
sI567
F-21.972409936013335
sI568
F-23.255459364872124
sI569
F-30.996355369659469
sI570
F3.9903504045452109
sI575
F8.2622292062102503
sI576
F-21.914192909422042
sI577
F-21.131493028388789
sI578
F-7.4773066730589903
sI580
F-19.852701179947616
sI581
F8.4869716545506293
sI582
F-10.037466462975956
sI584
F9.3754387281967269
sI585
F-27.716897130189921
sI586
F-20.539162039725696
sI588
F-8.8929553315547878
sI590
F9.9556533736660811
sI592
F-21.010155107862346
sI593
F6.4365632818338554
sI594
F-19.064142213748539
sI597
F-20.129025406047873
sI598
F-28.155976352978186
sI599
F-20.038746208497102
sI600
F-14.298556364738744
sI601
F-8.7820188445320184
sI602
F-21.87270257329493
sI604
F4.4113380840196612
sI605
F-26.240882877165262
sI608
F-6.5967013703941149
sI609
F-22.761951716936608
sI610
F-21.287749188862989
sI611
F-18.421649869710222
sI612
F-31.913276820997908
sI613
F-21.450740811241261
sI614
F-27.051453569656104
sI615
F2.9657750195498522
sI616
F-11.012395573614597
sI617
F-16.942800638480833
sI620
F-18.717623992851117
sI622
F-31.179320187829305
sI624
F-13.460982053159157
sI625
F-15.679487452456556
sI626
F-28.127030716925077
sI627
F-8.7251772645205534
sI630
F-24.773170018975733
sI631
F0.87903910881217939
sI632
F-10.396618232930905
sI633
F-21.96811072043036
sI635
F-22.868326837267418
sI636
F-19.7505021900553
sI637
F-34.169482391366046
sI639
F-22.972660144638837
sI640
F-23.371417484224537
sI641
F-12.20843149533701
sI642
F-13.872200085790581
sI643
F10.37197890027204
sI644
F-30.63991017540971
sI645
F-10.441057240154336
sI646
F-12.043424970068926
sI648
F-17.405430116492397
sI649
F-18.611270095016025
sI651
F-19.486920814634686
sI652
F-20.931856492313671
sI653
F-34.130235175897681
sI654
F-21.281893753557142
sI655
F-27.255308414565491
sI656
F-19.520311642022392
sI657
F-15.337759299819481
sI658
F-24.565833578220889
sI660
F-17.724051009331546
sI662
F9.5362323748708491
sI667
F-22.622228193594296
sI668
F-5.3697570309454932
sI669
F-25.255460974497112
sI670
F-12.935096176861748
sI671
F9.0409403155974815
sI672
F-19.878056340700908
sI674
F-18.208973213265395
sI675
F-31.905824587129871
sI676
F-20.432632150374559
sI677
F-20.841068115823219
sI679
F-16.548724881717817
sI680
F-19.304299370343514
sI681
F-27.708675402613792
sI682
F-23.013713380512556
sI685
F-17.417060693295696
sI687
F-20.167395885076544
sI690
F0.80833888634759887
s.