(lp1
I216
aI240
aI262
aI263
aI220
aI229
aI237
aI397
aI200
aI196
aI173
aI199
aI169
aI195
aI197
aI191
aI304
aI354
aI370
aI387
aI342
aI358
aI327
aI359
aI393
aI362
aI378
aI331
aI284
aI316
aI332
aI367
aI20
aI55
aI104
aI94
aI136
aI89
aI138
aI131
aI111
aI369
aI385
aI356
aI388
aI373
aI374
aI379
aI364
aI278
aI224
aI272
aI235
aI217
aI258
aI172
aI264
aI247
aI42
aI68
aI57
aI137
aI380
aI383
aI30
aI366
aI386
aI392
aI163
aI171
aI167
aI343
aI398
aI160
aI98
aI311
aI329
aI298
aI349
aI303
aI128
aI145
aI117
aI87
aI11
aI23
aI36
aI46
aI1
aI49
aI51
aI286
aI96
aI209
aI236
aI280
aI4
aI12
aI16
aI32
aI337
aI39
aI9
aI27
aI54
aI71
aI17
aI31
aI50
aI67
aI377
aI79
aI245
aI185
aI193
aI186
aI187
aI181
aI182
aI307
aI292
aI299
aI285
aI152
aI93
aI155
aI82
aI86
aI102
aI140
aI127
aI158
aI143
aI129
aI103
aI305
aI291
aI328
aI345
aI399
aI3
aI22
aI26
aI59
aI248
aI206
aI256
aI275
aI251
aI281
aI269
aI223
aI179
aI402
aI105
aI141
aI149
aI13
aI28
aI72
aI100
aI352
aI110
aI382
aI144
aI293
aI315
aI134
aI353
aI403
aI376
aI361
aI363
aI161
aI190
aI125
aI126
aI135
aI265
aI214
aI294
aI390
aI58
aI18
aI37
aI61
aI2
aI38
aI40
aI48
aI210
aI267
aI238
aI271
aI282
aI21
aI70
aI114
aI122
aI83
aI123
aI14
aI33
aI225
aI226
aI211
aI184
aI268
aI175
aI183
aI320
aI289
aI321
aI341
aI297
aI314
aI381
aI78
aI319
aI115
aI151
aI228
aI384
aI325
aI310
aI375
aI24
aI66
aI153
aI113
aI75
aI246
aI178
aI166
aI306
aI350
aI146
aI133
aI351
aI84
aI108
aI120
aI73
aI106
aI157
aI41
aI202
aI174
aI336
aI154
aI132
aI159
aI34
aI43
aI177
aI365
aI368
aI52
aI60
aI62
aI244
aI213
aI253
aI207
aI162
aI357
aI53
aI260
aI233
aI254
aI7
aI69
aI232
aI257
aI396
aI252
aI395
aI230
aI308
aI334
aI101
aI121
aI148
aI156
aI150
aI355
aI242
aI300
aI15
aI77
aI261
aI212
aI215
aI239
aI6
aI92
aI95
aI344
aI318
aI8
aI64
aI63
aI255
aI97
aI288
aI139
aI47
aI241
aI259
aI324
aI333
aI112
aI109
aI90
aI99
aI119
aI142
aI208
aI219
aI274
aI279
aI170
aI326
aI176
aI194
aI203
aI204
aI205
aI19
aI107
aI234
aI322
aI323
aI339
aI56
aI277
aI309
aI347
aI287
aI10
aI35
aI192
aI165
aI76
aI85
aI74
aI180
aI394
aI270
aI371
aI91
aI88
aI400
aI295
aI312
aI346
aI317
aI118
aI330
aI65
aI249
aI218
aI250
aI5
aI168
aI201
aI401
aI389
aI391
aI29
aI243
aI227
aI266
aI372
aI276
aI221
aI198
aI231
aI81
aI25
aI44
aI313
aI188
aI340
aI348
aI301
aI338
aI189
aI290
aI80
aI116
aI130
aI283
aI335
aI273
aI360
aI45
aI124
aI222
aI296
a.