(dp1
I1421
I278
sI1425
I278
sI1426
I278
sI1429
I278
sI1431
I278
sI1433
I206
sI1435
I161
sI1438
I226
sI1443
I213
sI1444
I253
sI1445
I225
sI1447
I212
sI1448
I225
sI1449
I261
sI1453
I257
sI1454
I261
sI1455
I261
sI1456
I215
sI1457
I215
sI1458
I244
sI1459
I244
sI1460
I257
sI1461
I269
sI1464
I215
sI1465
I215
sI1466
I266
sI1467
I171
sI1468
I220
sI1469
I249
sI1470
I218
sI1473
I215
sI1476
I249
sI1477
I224
sI1478
I220
sI1479
I224
sI1480
I227
sI1481
I215
sI1482
I249
sI1483
I215
sI1484
I275
sI1486
I209
sI1487
I171
sI1489
I269
sI1490
I224
sI1491
I227
sI1492
I220
sI1493
I224
sI1494
I171
sI1495
I236
sI1496
I245
sI1497
I269
sI1499
I167
sI1502
I236
sI1503
I236
sI1508
I233
sI1509
I230
sI1510
I223
sI1511
I239
sI1513
I230
sI1514
I241
sI1515
I230
sI1516
I205
sI1517
I274
sI1518
I277
sI1520
I241
sI1521
I394
sI1523
I230
sI1527
I223
sI1528
I239
sI1531
I241
sI1532
I205
sI1533
I279
sI1535
I394
sI1536
I200
sI1538
I277
sI1542
I394
sI1544
I205
sI1545
I239
sI1546
I239
sI1547
I174
sI1556
I200
sI1562
I200
sI1563
I185
sI1564
I214
sI1565
I210
sI1567
I185
sI1568
I214
sI1569
I174
sI1573
I184
sI1578
I174
sI1579
I170
sI1581
I214
sI1583
I214
sI1584
I185
sI1585
I214
sI1590
I195
sI1592
I185
sI1596
I210
sI1597
I201
sI1599
I185
sI1600
I191
sI1601
I217
sI1602
I195
sI1607
I174
sI1609
I172
sI1611
I168
sI1612
I189
sI1613
I183
sI1615
I189
sI1620
I195
sI1622
I195
sI1623
I172
sI1624
I185
sI1628
I172
sI1630
I183
sI1632
I166
sI1635
I162
sI1637
I166
sI1642
I177
sI1643
I326
sI1644
I326
sI1645
I339
sI1646
I347
sI1647
I339
sI1648
I323
sI1650
I312
sI1651
I330
sI1652
I312
sI1653
I330
sI1655
I330
sI1656
I312
sI1658
I330
sI1660
I301
sI1663
I367
sI1668
I290
sI1669
I292
sI1673
I290
sI1674
I307
sI1677
I301
sI1679
I307
sI1680
I335
sI1681
I331
sI1686
I398
sI1688
I370
sI1691
I398
sI1694
I341
sI1696
I307
sI1699
I357
sI1703
I105
sI1704
I398
sI1707
I387
sI1708
I398
sI1711
I384
sI1714
I69
sI1715
I105
sI1717
I304
sI1718
I91
sI1721
I105
sI1722
I341
sI1723
I357
sI1725
I69
sI1729
I95
sI1730
I19
sI1731
I69
sI1732
I105
sI1734
I125
sI1736
I95
sI1737
I97
sI1739
I124
sI1740
I384
sI1741
I308
sI1742
I69
sI1744
I285
sI1745
I105
sI1746
I80
sI1747
I95
sI1748
I20
sI1749
I20
sI1750
I160
sI1751
I12
sI1752
I127
sI1755
I125
sI1756
I329
sI1757
I282
sI1758
I127
sI1759
I325
sI1760
I105
sI1762
I365
sI1765
I308
sI1766
I300
sI1767
I20
sI1769
I97
sI1770
I69
sI1771
I159
sI1774
I98
sI1776
I24
sI1778
I125
sI1780
I146
sI1781
I159
sI1782
I12
sI1783
I282
sI1784
I12
sI1785
I329
sI1786
I102
sI1787
I380
sI1788
I311
sI1789
I55
sI1790
I365
sI1791
I6
sI1793
I311
sI1794
I81
sI1796
I137
sI1798
I159
sI1800
I30
sI1801
I93
sI1802
I116
sI1803
I24
sI1804
I283
sI1805
I12
sI1806
I311
sI1807
I303
sI1812
I94
sI1813
I383
sI1814
I303
sI1815
I9
sI1816
I129
sI1819
I131
sI1820
I390
sI1821
I21
sI1822
I93
sI1823
I66
sI1824
I131
sI1825
I133
sI1826
I368
sI1827
I133
sI1828
I365
sI1829
I93
sI1830
I303
sI1831
I9
sI1832
I318
sI1834
I333
sI1835
I365
sI1836
I129
sI1838
I24
sI1839
I9
sI1841
I94
sI1842
I129
sI1843
I9
sI1844
I30
sI1845
I368
sI1847
I333
sI1849
I351
sI1851
I345
sI1852
I318
sI1853
I94
sI1854
I368
sI1855
I136
sI1856
I318
sI1857
I116
sI1858
I113
sI1859
I9
sI1860
I9
sI1861
I360
sI1863
I319
sI1865
I58
sI1866
I351
sI1867
I368
sI1868
I129
sI1869
I9
sI1871
I360
sI1872
I31
sI1875
I296
sI1877
I30
sI1878
I128
sI1879
I31
sI1880
I345
sI1881
I72
sI1882
I345
sI1883
I145
sI1884
I58
sI1885
I72
sI1886
I319
sI1888
I351
sI1890
I52
sI1891
I293
sI1893
I83
sI1895
I138
sI1896
I345
sI1897
I351
sI1899
I52
sI1900
I113
sI1901
I138
sI1902
I399
sI1904
I53
sI1905
I58
sI1906
I10
sI1907
I53
sI1908
I72
sI1909
I83
sI1911
I351
sI1915
I75
sI1916
I293
sI1917
I75
sI1918
I83
sI1919
I52
sI1920
I293
sI1921
I119
sI1923
I1
sI1924
I101
sI1925
I399
sI1926
I1
sI1928
I52
sI1929
I53
sI1930
I35
sI1931
I120
sI1932
I34
sI1933
I121
sI1935
I122
sI1936
I101
sI1937
I121
sI1938
I58
sI1939
I1
sI1941
I392
sI1942
I1
sI1943
I392
sI1945
I100
sI1948
I18
sI1951
I392
sI1953
I34
sI1954
I1
sI1956
I100
sI1958
I77
sI1959
I148
sI1960
I63
sI1961
I121
sI1962
I84
sI1965
I37
sI1966
I392
sI1967
I100
sI1968
I134
sI1969
I3
sI1970
I84
sI1972
I5
sI1973
I134
sI1974
I156
sI1975
I63
sI1976
I37
sI1978
I33
sI1979
I353
sI1980
I3
sI1981
I156
sI1982
I134
sI1983
I388
sI1984
I353
sI1985
I134
sI1987
I63
sI1989
I84
sI1990
I388
sI1991
I388
sI1992
I3
sI1993
I5
sI1994
I5
sI1995
I100
sI1997
I353
sI1998
I48
sI1999
I353
sI2000
I377
sI2001
I356
sI2005
I388
sI2006
I96
sI2007
I377
sI2008
I3
sI2009
I377
sI2010
I353
sI2012
I48
sI2013
I33
sI2015
I96
sI2016
I40
sI2018
I48
sI2019
I361
sI2020
I356
sI2021
I356
sI2022
I40
sI2023
I361
sI2024
I361
sI2025
I40
sI2026
I40
s.