(dp1
I4098
I113
sI4099
I276
sI4104
I93
sI4110
I354
sI4115
I706
sI4116
I673
sI4117
I313
sI4120
I673
sI4121
I680
sI4126
I708
sI4130
I291
sI4133
I333
sI4135
I269
sI4137
I386
sI4138
I92
sI4149
I370
sI4155
I678
sI4158
I93
sI4165
I93
sI4178
I690
sI4183
I680
sI4186
I86
sI4187
I90
sI4194
I342
sI4201
I298
sI4206
I698
sI4214
I297
sI4217
I86
sI4220
I342
sI4221
I293
sI4223
I690
sI4225
I674
sI4235
I690
sI4238
I90
sI4241
I674
sI4247
I698
sI4248
I677
sI4252
I676
sI4253
I698
sI4261
I674
sI4262
I87
sI4264
I306
sI4267
I697
sI4273
I323
sI4280
I293
sI4282
I672
sI4287
I309
sI4290
I674
sI4292
I668
sI4296
I698
sI4298
I674
sI4300
I676
sI4304
I326
sI4305
I676
sI4306
I697
sI4309
I244
sI4311
I676
sI4329
I707
sI4330
I685
sI4338
I312
sI4340
I258
sI4342
I707
sI4344
I672
sI4348
I697
sI4350
I87
sI4356
I676
sI4366
I260
sI4372
I691
sI4378
I260
sI4379
I672
sI4381
I669
sI4382
I306
sI4383
I312
sI4386
I305
sI4390
I692
sI4398
I688
sI4403
I248
sI4407
I688
sI4408
I287
sI4410
I279
sI4413
I707
sI4415
I312
sI4430
I681
sI4433
I688
sI4437
I279
sI4439
I692
sI4444
I679
sI4450
I272
sI4451
I682
sI4468
I286
sI4469
I287
sI4470
I263
sI4480
I272
sI4485
I284
sI4491
I263
sI4502
I679
sI4503
I263
sI4505
I701
sI4510
I284
sI4515
I270
sI4517
I286
sI4526
I296
sI4529
I257
sI4533
I265
sI4542
I285
sI4544
I285
sI4550
I324
sI4551
I285
sI4553
I280
sI4556
I280
sI4560
I254
sI4565
I308
sI4569
I254
sI4572
I262
sI4578
I277
sI4580
I262
sI4583
I277
sI4584
I254
sI4587
I249
sI4590
I847
sI2798
I212
sI2802
I197
sI2803
I197
sI2804
I235
sI2806
I242
sI2808
I218
sI2811
I235
sI2812
I183
sI2814
I218
sI2815
I197
sI2816
I242
sI2817
I603
sI2818
I603
sI2821
I218
sI2822
I661
sI2824
I205
sI2826
I235
sI2829
I200
sI2830
I198
sI2831
I188
sI2834
I192
sI2837
I650
sI2838
I227
sI2841
I602
sI2842
I650
sI2843
I662
sI2844
I641
sI2845
I188
sI2846
I203
sI2847
I238
sI2851
I238
sI2854
I200
sI2855
I239
sI2857
I238
sI2859
I223
sI2860
I208
sI2863
I610
sI2865
I635
sI2867
I211
sI2870
I203
sI2871
I238
sI2872
I234
sI2875
I609
sI2877
I214
sI2886
I240
sI2888
I619
sI2889
I195
sI2891
I209
sI2893
I609
sI2897
I617
sI2898
I613
sI2899
I195
sI2907
I636
sI2909
I660
sI2911
I619
sI2916
I632
sI2918
I228
sI2919
I599
sI2922
I632
sI2926
I206
sI2928
I186
sI2929
I191
sI2930
I201
sI2931
I614
sI2934
I231
sI2939
I201
sI2941
I420
sI2942
I627
sI2945
I186
sI2946
I629
sI2948
I601
sI2949
I722
sI2950
I599
sI2952
I646
sI2953
I667
sI2954
I629
sI2956
I201
sI2958
I233
sI2967
I213
sI2972
I420
sI2976
I629
sI2977
I231
sI2979
I722
sI2984
I627
sI2985
I631
sI2987
I762
sI2988
I655
sI2993
I648
sI2997
I742
sI2999
I435
sI3004
I762
sI3005
I647
sI3008
I231
sI3012
I762
sI3013
I638
sI3014
I665
sI3015
I219
sI3016
I665
sI3018
I620
sI3019
I663
sI3022
I395
sI3025
I758
sI3026
I736
sI3027
I395
sI3028
I762
sI3030
I400
sI3033
I447
sI3036
I606
sI3040
I395
sI3042
I620
sI3043
I651
sI3044
I441
sI3056
I415
sI3071
I749
sI3072
I800
sI3073
I398
sI3076
I398
sI3077
I600
sI3078
I439
sI3079
I659
sI3082
I442
sI3088
I755
sI3089
I733
sI3097
I621
sI3099
I735
sI3100
I800
sI3101
I750
sI3103
I398
sI3112
I718
sI3113
I414
sI3115
I776
sI3118
I776
sI3122
I749
sI3125
I776
sI3132
I407
sI3133
I827
sI3137
I844
sI3138
I809
sI3143
I841
sI3146
I448
sI3148
I813
sI3149
I809
sI3157
I437
sI3158
I750
sI3159
I456
sI3160
I518
sI3161
I776
sI3162
I715
sI3165
I407
sI3168
I776
sI3181
I437
sI3189
I467
sI3192
I829
sI3204
I467
sI3210
I407
sI3212
I806
sI3215
I413
sI3229
I403
sI3230
I464
sI3233
I759
sI3241
I427
sI3247
I459
sI3248
I464
sI3251
I773
sI3255
I818
sI3258
I427
sI3261
I845
sI3263
I759
sI3265
I522
sI3268
I427
sI3274
I838
sI3275
I769
sI3276
I833
sI3279
I789
sI3280
I509
sI3283
I738
sI3284
I774
sI3285
I845
sI3286
I775
sI3295
I412
sI3296
I753
sI3297
I402
sI3298
I497
sI3299
I786
sI3304
I754
sI3305
I716
sI3306
I464
sI3310
I828
sI3311
I512
sI3315
I169
sI3317
I473
sI3321
I717
sI3322
I774
sI3323
I473
sI3328
I732
sI3334
I402
sI3338
I732
sI3340
I754
sI3343
I406
sI3346
I428
sI3348
I720
sI3351
I832
sI3355
I832
sI3362
I745
sI3363
I473
sI3365
I493
sI3366
I402
sI3367
I769
sI3368
I837
sI3370
I839
sI3374
I99
sI3378
I730
sI3387
I747
sI3388
I524
sI3389
I428
sI3391
I826
sI3395
I720
sI3398
I804
sI3400
I403
sI3401
I524
sI3402
I721
sI3405
I720
sI3406
I169
sI3408
I555
sI3409
I728
sI3410
I533
sI3411
I832
sI3413
I843
sI3414
I484
sI3417
I581
sI3418
I714
sI3419
I720
sI3420
I782
sI3429
I520
sI3432
I462
sI3437
I581
sI3441
I579
sI3442
I555
sI3447
I531
sI3448
I167
sI3450
I810
sI3451
I520
sI3453
I581
sI3454
I807
sI3460
I807
sI3463
I794
sI3467
I737
sI3469
I166
sI3470
I555
sI3472
I581
sI3475
I765
sI3477
I484
sI3479
I173
sI3481
I763
sI3482
I765
sI3483
I579
sI3484
I507
sI3487
I348
sI3488
I462
sI3490
I713
sI3495
I516
sI3496
I356
sI3503
I178
sI3504
I713
sI3505
I178
sI3506
I794
sI3511
I579
sI3514
I846
sI3516
I356
sI3517
I581
sI3519
I167
sI3520
I356
sI3522
I737
sI3524
I520
sI3525
I582
sI3528
I582
sI3531
I348
sI3535
I356
sI3536
I140
sI3541
I568
sI3543
I582
sI3544
I765
sI3546
I517
sI3548
I516
sI3550
I495
sI3552
I568
sI3553
I577
sI3554
I713
sI3556
I778
sI3558
I182
sI3559
I174
sI3560
I506
sI3565
I582
sI3567
I356
sI3576
I73
sI3577
I798
sI3578
I105
sI3579
I122
sI3581
I34
sI3586
I574
sI3587
I122
sI3589
I56
sI3590
I359
sI3592
I124
sI3594
I577
sI3600
I498
sI3601
I105
sI3604
I105
sI3606
I393
sI3608
I359
sI3616
I470
sI3620
I118
sI3621
I174
sI3627
I37
sI3628
I498
sI3632
I385
sI3639
I16
sI3642
I54
sI3650
I590
sI3652
I359
sI3653
I38
sI3654
I556
sI3659
I393
sI3662
I393
sI3663
I540
sI3669
I71
sI3673
I556
sI3674
I540
sI3675
I85
sI3687
I39
sI3690
I76
sI3691
I84
sI3692
I549
sI3694
I100
sI3699
I168
sI3702
I357
sI3705
I372
sI3706
I38
sI3709
I546
sI3710
I560
sI3713
I346
sI3716
I3
sI3721
I363
sI3723
I347
sI3724
I128
sI3726
I177
sI3731
I545
sI3733
I18
sI3737
I137
sI3738
I98
sI3740
I345
sI3742
I117
sI3751
I375
sI3754
I369
sI3757
I344
sI3760
I589
sI3761
I353
sI3763
I550
sI3764
I559
sI3768
I2
sI3772
I66
sI3776
I66
sI3779
I143
sI3780
I175
sI3783
I371
sI3785
I589
sI3786
I157
sI3787
I336
sI3788
I543
sI3790
I153
sI3795
I125
sI3796
I567
sI3798
I117
sI3801
I55
sI3806
I353
sI3808
I25
sI3810
I572
sI3812
I131
sI3814
I572
sI3816
I387
sI3820
I66
sI3821
I381
sI3823
I543
sI3824
I368
sI3825
I381
sI3827
I557
sI3829
I43
sI3831
I9
sI3833
I143
sI3834
I27
sI3836
I110
sI3840
I350
sI3844
I569
sI3845
I572
sI3847
I587
sI3852
I125
sI3853
I377
sI3856
I21
sI3859
I141
sI3861
I170
sI3862
I7
sI3863
I65
sI3864
I10
sI3865
I381
sI3867
I125
sI3868
I141
sI3869
I542
sI3871
I0
sI3873
I44
sI3875
I33
sI3877
I10
sI3882
I141
sI3885
I17
sI3886
I131
sI3887
I387
sI3892
I78
sI3896
I563
sI3898
I542
sI3900
I77
sI3901
I108
sI3904
I35
sI3908
I340
sI3909
I374
sI3911
I17
sI3913
I78
sI3917
I563
sI3920
I19
sI3921
I58
sI3922
I374
sI3925
I59
sI3931
I578
sI3932
I563
sI3936
I17
sI3937
I159
sI3938
I338
sI3939
I563
sI3942
I46
sI3943
I116
sI3945
I164
sI3947
I61
sI3948
I255
sI3949
I376
sI3952
I586
sI3953
I103
sI3955
I17
sI3960
I380
sI3962
I112
sI3972
I565
sI3974
I586
sI3979
I88
sI3980
I46
sI3982
I116
sI3987
I119
sI3989
I251
sI3993
I88
sI3997
I390
sI4004
I255
sI4008
I111
sI4010
I686
sI4016
I129
sI4019
I255
sI4020
I586
sI4021
I251
sI4024
I708
sI4027
I686
sI4030
I686
sI4031
I687
sI4033
I113
sI4035
I269
sI4037
I686
sI4038
I705
sI4040
I318
sI4044
I708
sI4046
I670
sI4047
I670
sI4050
I670
sI4052
I318
sI4056
I703
sI4057
I687
sI4059
I678
sI4062
I318
sI4067
I386
sI4069
I269
sI4070
I92
sI4072
I111
sI4079
I708
sI4080
I670
sI4082
I91
sI4083
I670
sI4085
I670
sI4089
I708
sI4090
I673
sI4095
I370
s.