(dp1
I1
(lp2
F-39.182178488199469
aF-21.375959829387
aF-19.444797638961901
aF-24.24522486388949
aF-10.637271705125144
aF-18.451547117446424
aF-20.859028015861711
aF-13.834183841142078
asI2
(lp3
F-12.494846435992855
aF-17.377456589476296
aF-20.284509712345198
aF-21.387296704324726
aF-34.9169019225547
asI3
(lp4
F-17.043966070355665
aF-26.359029441551726
aF-22.518186803261386
aF-20.035215108047254
aF-23.071301668149133
asI4
(lp5
F-21.556253040019612
aF-26.4359589930026
aF-15.783382645833882
aF-24.347417182263214
aF-16.318922894593271
aF-20.945810043188189
aF-19.297814945549305
aF-33.860125711426249
aF-22.886503950506579
asI5
(lp6
F-31.612350842268341
aF-25.904632649056083
aF-17.206530061613307
aF-18.660635567896051
aF-16.882869934491382
aF-21.897062311968739
aF-21.987789368464291
aF-9.4315695219063969
aF-18.822414413181178
aF-24.300064203245427
aF-23.372882410461216
asI6
(lp7
F-10.967920180053369
aF-19.291775791896512
aF-23.390967416536483
aF-22.394236717034971
asI7
(lp8
F-37.285170520628611
aF-20.473101043696488
aF-20.189094978445581
aF-24.88465384556423
aF-10.331490109436601
aF-18.890869899394545
aF-21.003696881916326
aF-13.468651032376812
asI8
(lp9
F-19.519820080505525
aF-28.638635820688279
aF-16.305572062727379
aF-23.21162403113388
aF-18.358069800167172
aF-21.810397372645724
aF-20.025031613081978
aF-17.097382785457
asI9
(lp10
F-18.699566911694546
aF-30.295246321958146
aF-9.7429573212876619
aF-19.885127151590652
aF-16.053807647772146
asI10
(lp11
F-21.576426457080089
aF-21.037735178282105
aF-32.748757879059809
aF-18.934540213824931
aF-24.031607603580696
aF-31.838155906513833
aF-16.906037901248581
asI11
(lp12
F-15.278461469101345
aF-22.206326942127021
aF-10.699098619902728
aF-19.019033324853638
aF-20.884916810406466
aF-19.603330283398392
aF-22.903424190715157
asI12
(lp13
F-24.47577503542152
aF-10.432334428480956
aF-20.891726214140661
aF-26.656703013454731
aF-18.889607512657449
asI13
(lp14
F-22.656694534007386
aF-18.771105874080433
aF-27.097444894460352
aF-27.103229831375984
aF-19.640330020362285
aF-40.252505737516955
aF-23.826685668390567
aF-19.33755717971178
aF-19.491623268707201
aF-18.495945778561477
aF-14.251112044994244
asI14
(lp15
F-12.125073682056694
aF-30.763800319351958
aF-21.058780842968716
aF-22.56515053472981
aF-23.118342133477526
aF-17.646808125591008
asI15
(lp16
F-20.434832050229602
aF-22.723609776083293
aF-24.316599631902889
aF-34.903265929551281
aF-26.907802295638831
aF-20.102696942295708
aF-18.785919910489056
aF-20.189500574877002
aF-20.975805431246329
aF-13.609422291067773
asI16
(lp17
F-20.22149411202335
aF-22.976215789022646
aF-15.284987136319344
aF-21.290245846339332
aF-28.738146804245218
aF-19.416605994856113
aF-12.864825538331615
aF-21.551457771086774
aF-19.806984909771259
asI17
(lp18
F-9.8745958635766442
aF-23.255562495840408
aF-21.645464350877091
aF-19.334704656509302
aF-19.428984765735962
aF-21.664661836540759
aF-16.286011714819352
aF-8.6273288224896305
aF-25.436480994540744
asI18
(lp19
F-16.839689797170024
aF-29.163735503840329
aF-22.34734519802565
aF-19.910476745864997
aF-20.425141070831984
aF-22.235408889467223
aF-20.922786007290284
aF-22.597161092150955
aF-7.300161289521327
aF-18.838889665460727
aF-26.8889499462787
aF-20.708571300212768
asI19
(lp20
F-18.905830284976616
aF-34.171611898014788
aF-18.500812287373748
aF-19.111820380808112
aF-23.426718680386799
aF-24.345010463024963
asI20
(lp21
F-21.23444662218472
aF-22.483989300370467
aF-14.89101373999523
aF-25.111578087312907
asI21
(lp22
F-18.390562667599951
aF-24.887115734581045
aF-17.503397075191046
aF-42.807600580216672
aF-18.590488560750089
aF-19.648671660736412
aF-18.574241309979726
asI22
(lp23
F-24.246516276597305
aF-16.265586024827627
aF-22.310304957562465
aF-22.641193962498818
aF-18.483141213577625
aF-18.585264280304756
aF-20.366703834104442
aF-22.374181963352356
asI23
(lp24
F-13.31695680249689
aF-22.916243401021191
aF-19.772867550239411
aF-13.615066369293302
aF-19.683075489842906
asI24
(lp25
F-16.490865824221686
aF-28.641723283205351
aF-14.157497264977849
aF-31.090952472505876
aF-26.772564625605327
aF-8.8793786010482165
aF-17.198999837086774
asI25
(lp26
F-20.280763402479892
aF-27.022819612644241
asI26
(lp27
F-20.177290111244005
aF-15.287322347414715
aF-16.916184628522316
aF-19.561682475572354
aF-23.716463282497401
aF-21.838979520210657
aF-15.805593312696857
aF-11.788901621184024
aF-27.188359594030686
asI27
(lp28
F-35.159527548330871
aF-18.967356769387948
aF-9.5693099146142089
aF-24.009618393770296
aF-16.987656471146835
aF-18.646359717267813
asI28
(lp29
F-18.033049395522482
aF-26.062741331011551
aF-22.067260086072793
aF-19.706732154658837
aF-19.303897520238337
aF-23.686428780970999
aF-20.026444647595895
aF-24.264722995473818
aF-6.8178439344832782
aF-19.343089923322637
aF-25.795030141560375
aF-21.708865061959258
asI29
(lp30
F-29.22978559156924
aF-18.801565565220073
aF-10.355439339467864
aF-29.076010944591928
aF-18.368920258752041
asI30
(lp31
F-36.491972400593028
aF-20.929688038119423
aF-18.940849061186796
aF-15.736181058406217
aF-19.750836269997336
aF-18.729739370172638
aF-18.559703176482785
aF-19.817219658448991
aF-24.502936220311966
aF-19.618249218759061
aF-22.230458223400433
aF-20.169028624400937
aF-16.936837570444496
asI31
(lp32
F-20.242396578846709
aF-20.451443299316708
aF-20.671290275797432
aF-27.948511118993025
aF-19.748155707126756
aF-9.2730846519929457
aF-25.310564135182517
asI32
(lp33
F-19.85805398967895
aF-18.966947779755003
aF-20.175321474831989
aF-27.856417844290633
aF-18.096766622017753
aF-25.999022144677937
aF-25.571269000174411
aF-34.042443181942716
aF-25.040134598363835
asI33
(lp34
F-21.64477540933251
aF-21.314192483375606
aF-15.636963622131645
aF-14.185993765152091
aF-19.811199606802134
asI34
(lp35
F-15.579667132169561
aF-25.508524074259199
aF-20.516288020572773
aF-19.696606725201647
aF-17.302695249136633
aF-22.734394268247399
aF-18.513933951083231
asI35
(lp36
F-25.428551143359329
aF-22.740982698409667
aF-19.456009009237363
aF-16.225483539639768
aF-19.172484481879039
aF-18.596011598970534
aF-22.43721478386783
aF-22.53272854965185
aF-24.473986073868389
aF-21.431811338652722
asI36
(lp37
F-19.467528030777089
aF-15.627278440173853
aF-15.139054194104148
aF-22.193535155030204
aF-18.290573363190248
aF-25.992863556319918
asI37
(lp38
F-20.448506599433628
aF-15.493172484839789
aF-24.137580039228538
aF-16.998737586771938
aF-26.41341168124606
aF-19.557619145905718
aF-17.991160816156366
asI38
(lp39
F-20.481044466208175
aF-21.472437548466445
aF-18.277370657132849
aF-17.797690105437582
aF-21.864814869187086
asI39
(lp40
F-21.905164859858999
aF-21.947623653245358
aF-15.629374586189897
aF2.0360414637112143
aF-30.708411885891167
aF-19.504884065702129
aF-10.064106441493507
asI40
(lp41
F-19.569465841996362
aF-23.564150525479562
aF-18.000487168515292
aF-34.110030637889025
aF-18.841897835015047
aF-14.319963289611735
aF-19.233171552256408
aF-32.020469635637255
asI41
(lp42
F-25.343038492575062
aF-16.83965547416345
aF-40.806297142837863
aF-18.534399093850681
aF-19.806447240338656
asI42
(lp43
F-10.3081050464653
aF-22.530572763014902
aF-22.198575470197682
aF-20.339497321817674
aF-28.990390172473639
aF-24.327724716083111
asI43
(lp44
F-22.129437856053059
aF-19.518641768571342
aF-18.127645105739134
aF-16.083848279915884
aF-19.508684801248705
aF-38.193024677771433
aF-18.978710020546941
aF-19.276158667169696
aF-24.324787209724406
aF-19.801492300975539
asI44
(lp45
F-22.473016073647983
aF-18.799684624064895
aF-20.347791309361142
aF-25.709150809245358
aF-20.739116653453564
aF-28.246663077313144
aF-24.805950758762918
aF-10.416742414764627
aF-18.87777379580227
aF-24.326139999432286
aF-18.677997678939462
aF-18.3679894853192
asI45
(lp46
F-23.884457864828903
aF-10.798828279348655
aF-20.263138944667972
aF-28.513779905067054
asI46
(lp47
F-19.457404338540272
aF-21.53732527717122
aF-18.913800776717395
aF-42.32637989928827
aF-19.374459931664163
aF-23.911990263321343
aF-21.565694699912299
aF-11.39519016045719
aF-23.404609320327594
aF-20.201510684110147
aF-18.38120911432577
aF-14.028345616427174
asI47
(lp48
F-24.678556037112742
aF-32.079651255744537
aF-25.805158289429514
aF-15.540622920854616
aF-20.155372898330057
asI48
(lp49
F-25.45389839429339
aF-33.272471531429346
aF-25.912996154907532
aF-14.969712715046668
aF-20.612688649126113
aF-11.666949531117979
asI49
(lp50
F-20.433519749009633
aF-20.456078045479401
aF-25.283520973674285
aF-32.566087470590176
aF-19.20185851839949
aF-24.019767871324106
aF-11.665734402249996
aF-1.7889367927189426
aF-11.598771488196945
asI50
(lp51
F-24.193323348035946
aF-17.475441294908364
aF-9.3454209868957889
aF-15.900505416873585
aF-16.380825155439481
aF-3.7065421374267373
aF-30.942212733847086
aF-33.298921035694974
asI51
(lp52
F-26.358582668841052
aF-27.065529489788304
aF-22.169538852309131
aF-31.30389527003679
aF-28.282282652982488
aF-11.120530405245404
aF-23.943379258756067
aF-21.610798810529246
aF-15.732910949910263
asI52
(lp53
F-25.581187518042498
aF-18.323457234917981
aF-10.778903732662783
aF-17.199212021588664
aF-18.811467434824493
aF-24.722375133246416
aF-20.675480172584969
aF-24.945518465374647
aF-31.438377393332004
aF-17.094160187037176
asI53
(lp54
F-16.287143093451277
aF-21.156576315189255
aF-23.390288226171265
aF-34.367554161497054
aF-29.026213210949152
aF-13.679915490716979
aF-3.5506313894565835
asI54
(lp55
F-21.655915523750394
aF-19.497483773401768
aF-23.079373215167223
asI55
(lp56
F-26.811868895676042
aF-37.462240967066919
aF-27.570536424005198
aF-24.846221859277364
aF-21.799924724151253
aF-18.507328822187446
aF-20.819009782148839
aF-23.503682758560004
asI56
(lp57
F-18.346808484329728
aF-18.27795138390708
aF-24.304413442451846
aF-20.58346942440653
aF-25.517840255047489
aF-24.547409689983397
aF-21.104366413035905
aF-33.504274840666639
aF-3.555132836784253
aF-23.037609745895068
aF-18.597937064365752
asI57
(lp58
F-18.26508254602625
aF-25.563737415944445
aF-21.549953052964071
aF-25.189834761538776
aF-23.482428283904767
aF-22.170686182307634
aF-30.382145630529038
aF-3.6561831711382098
aF-22.291064261825639
asI58
(lp59
F-22.522554679037
aF-12.195250569509312
aF-23.489847024044593
aF-23.963089737376364
aF-9.8123804619152537
aF-18.207891859047422
aF-20.353449153517801
aF-24.694852487541851
asI59
(lp60
F-23.277380532758485
aF-20.257459975701948
aF-23.023638941725409
aF-36.937315892717237
aF-30.453266016989176
aF-17.363685740335058
aF-20.474777062270277
aF-23.706472761569074
asI60
(lp61
F-16.291725292745767
aF-18.216778015840802
aF-21.082612698784345
aF-19.948965211972762
aF-20.5014570125727
aF-20.295498223368213
aF-18.983749987206394
aF-23.905647645136867
aF-19.577585792087405
aF-27.780542766831445
asI61
(lp62
F-15.097868723842822
aF-40.234801746443026
aF-24.785524240980607
aF-21.150752589590212
aF-18.332126632614091
aF-17.020070609848204
aF-19.649627264909952
aF-19.567307029703215
aF-16.812775277481791
aF-16.855860469916621
asI62
(lp63
F-25.870558409930439
aF-21.933281001236082
asI63
(lp64
F-18.222630536849536
aF-24.14255327319151
aF5.0470141350545248
aF-20.606176119817462
aF-18.607077781292631
aF-20.887325641670557
aF-18.447171861527295
aF-18.846551382218934
aF-20.973742747013006
aF-19.349845312220239
aF-30.000201871819385
aF-25.925423759780671
aF-33.339447554822314
aF-14.391175698209707
aF-22.877175492983156
aF-18.9163754857599
asI64
(lp65
F-18.72990189607583
aF-18.993938783505769
aF-19.590408185301328
aF-18.337975189375058
aF-19.714039034973013
aF-22.586468431454549
aF-29.213449621773066
aF-22.167487472381083
aF-23.823428796062998
aF-16.585201301642513
aF-20.04145681655713
aF-26.450294295225433
aF-22.93593061369215
asI65
(lp66
F-26.294812543623792
aF-22.78404669310973
aF-19.292131549474959
aF-17.824901703691722
aF-22.463000108563747
aF-12.031895416447895
aF-24.101591057367827
aF-16.906814250631044
asI66
(lp67
F-22.302210891852738
aF-30.45801421861529
aF-28.261250561135256
aF-27.481610081597807
asI67
(lp68
F-18.823672942034165
aF-30.040648376058584
aF-31.538316990455286
aF-21.079203776639972
aF-23.592676374982389
aF-26.705959968315113
aF-19.28569096781483
aF-10.621925788074719
aF-20.668355879701181
aF-19.493247312002808
asI68
(lp69
F-24.433086369431635
aF-5.1207345783690101
aF-20.981447796947876
asI69
(lp70
F-11.697631967745451
aF-19.51983973916478
aF-21.017774757194957
aF-18.501300428411895
aF-19.731749947230099
aF-22.593497271301771
aF-21.833085632836301
aF-41.485256311277425
aF-17.385634705097445
aF-23.762048311948462
aF-18.777895943975238
aF-17.012653672057951
asI70
(lp71
F-13.634856404769621
aF-22.957663365078062
aF-24.359757828078003
aF-23.357593546718022
aF-22.261073678987671
aF-16.264716703223499
aF-18.761311975740739
aF-19.798324496862534
aF-23.149916149754475
aF-18.675483522507733
aF-24.394773211871097
aF-25.425442517797933
aF-25.658972423510235
aF-14.483162218564473
asI71
(lp72
F-10.310717001373149
aF-20.69857147005925
aF-22.780374645281924
aF-18.639815732617606
aF-20.527129649095144
aF-23.038575813393322
aF-22.089722016734939
aF-35.491483576951381
aF-16.181523469073682
aF-21.695676465415815
aF-18.325395136257839
aF-16.11609853508881
asI72
(lp73
F-31.980762034589389
aF-22.776978584359668
aF-19.342932313174657
aF-20.751263548863477
aF-19.992532191686934
aF-18.872265834973575
aF-18.030196367355614
aF-19.561517078691026
aF-15.362735748390477
aF-23.203559573739682
asI73
(lp74
F-19.388586057529338
aF-25.619410384070278
aF-15.68908994355148
aF-34.356887688733934
aF-22.158182520481176
aF-3.2312754466854585
asI74
(lp75
F-22.80519384328008
aF-19.832707198321373
aF-31.024191433972732
aF-13.85041320054853
aF-23.972977625738793
aF-20.627363570317456
asI75
(lp76
F-18.655152624139248
aF-30.154279475280219
aF-30.605618032466694
aF-17.221252692392767
aF-18.945425508072319
aF-22.361072952868113
aF-20.266830674227748
aF-18.63915679773794
aF-18.459577589079984
aF-14.575138556313192
aF-22.300665619196266
aF-11.84579833417456
aF-21.492430458135772
asI76
(lp77
F-19.142115972919726
aF-18.539683628317945
aF-23.397081309644832
aF-18.394261244022132
aF-18.855058969619023
aF-19.374917470338403
aF-25.897377967091217
aF-36.170157202820391
aF-21.784754341643549
asI77
(lp78
F-25.76218339704343
aF-24.969234546029682
aF-21.433218276049786
aF-20.518978832702018
aF-18.837007393273495
aF-38.509405786287303
aF-23.379872906915494
aF-18.618603396101108
aF-18.587539930196883
asI78
(lp79
F-21.726181192504583
aF-22.453247334054652
aF-19.755637214091678
aF-18.853241851998831
aF-19.766959061991599
aF-25.053209059412367
aF-17.80556735071751
aF-20.051022231518331
aF-14.102137577129184
aF-5.6357275666771471
aF-18.761826424068133
asI79
(lp80
F-46.526202961349696
aF-27.34833966003859
aF-22.803094145701351
asI80
(lp81
F-13.826885800988165
aF-21.337759340686929
aF-26.460647903134429
aF-30.900409421330139
aF-27.473706291357161
aF-29.637594486912505
asI81
(lp82
F-32.499060712194932
aF-27.31928746863548
aF-21.090966429778518
aF-24.099426792123282
aF-18.496439075958705
asI82
(lp83
F-17.647494254838449
aF-22.470308261690121
aF-25.834787314792806
aF-35.063131756096169
aF-18.544459097005173
aF-23.673288246146143
aF-28.373055183461858
aF-37.524330124651328
aF-28.104755706285445
asI83
(lp84
F-29.531320689854965
aF-20.275058284663544
aF-16.99837448825977
aF-25.470942264253381
aF-24.848098399137001
aF-20.233963326731811
aF-19.76953800285537
aF-4.9349369352862169
aF-10.60942637196122
aF-21.309920908639015
asI84
(lp85
F-18.6769686158338
aF-26.514966820759156
aF-18.5498935319617
aF-17.532952235371738
aF-27.232892279127171
aF-29.797002020687771
aF-20.926638217125529
aF-2.7641302154124219
aF-12.437552779226849
aF-19.758852373156003
aF-15.611478498613423
asI85
(lp86
F-23.191944165077757
aF-31.257137674156724
aF-20.079336738689051
aF-22.955576963968156
aF-20.581170324047747
aF-18.782439009767131
aF-17.675984025850056
aF-20.909244780002027
asI86
(lp87
F7.036001323468426
aF-31.694490069330627
aF-24.302059211607826
aF-21.62523859908427
aF-18.9365066294488
asI87
(lp88
F-27.210978700576632
aF-30.55373779411147
aF-29.167428563685093
aF-22.390486447866039
aF-19.865522827202284
aF-20.621465519136862
aF-21.653513182110302
asI88
(lp89
F-25.685337936917264
aF-29.45194009768889
aF-31.524010393247281
aF-22.545140515175746
aF-19.255102665297827
aF-20.425641968030817
aF-20.751331382371063
asI89
(lp90
F-18.329447920262936
aF-17.076558205516591
aF-21.020677411199387
aF-25.925439064983053
aF-16.203926974378987
aF-30.614616683937285
aF-21.085575325463566
aF-17.464041433978267
aF-19.285867200725733
asI90
(lp91
F-21.006887242830743
aF-23.011595806037604
aF-18.446991884460303
aF-17.283645892430414
aF-24.589226989956387
aF-40.954681231801487
asI91
(lp92
F0.76551371804646351
aF-33.060222621702039
aF-24.895014887072378
aF-27.254663061650689
aF-15.599875713043431
aF-21.828467794944615
aF-19.84232009055296
aF-22.218340374827562
aF-12.062070279606687
aF-19.632435503495032
aF-21.441948115155469
asI92
(lp93
F-22.175981087299846
aF-26.295883716534547
aF-32.457804575212307
aF-33.628101033832394
asI93
(lp94
F-20.237695290657456
aF-22.200091138603014
aF-20.847768280642413
aF-18.533774504223061
aF-18.401375820165157
aF-30.551397033500905
aF-29.062472793539797
asI94
(lp95
F-15.612103640487263
aF-19.938305813253038
aF0.19907556812205485
aF-23.231627168414008
aF-18.577724480700894
aF-21.128669294583858
aF-26.508207982073728
aF-38.232966597853661
aF-30.484227386115776
aF-18.920637650356042
aF-23.128809832053037
aF-27.71317653653567
aF-16.591942903911956
aF-23.177185927351232
asI95
(lp96
F-18.964337127253856
aF-30.759642763330049
aF-19.620675288675542
aF-18.783641647560515
asI96
(lp97
F-15.856488730244365
aF-17.57133433612826
aF-14.563705091181745
aF-21.611733519840811
aF-32.351989465459994
aF-15.8676439443243
aF-25.37415397119311
aF-13.719697280655879
aF-18.906300125632697
asI97
(lp98
F-24.573450204727962
aF-32.127852953352559
aF-19.161102348275435
aF-23.869454761221391
aF-21.582998854697223
aF-20.259307060232842
aF-19.036165093182376
aF-17.805205569475277
aF-10.612787657743823
aF-21.589371813250111
asI98
(lp99
F-32.183984058951211
aF-28.172490983599602
aF-31.508403402942008
asI99
(lp100
F-36.0598051812823
aF-27.220165850107406
aF-21.452198804103134
aF-15.709727309232647
aF-20.257097747042678
aF-31.656464499807541
asI100
(lp101
F-17.19621007642894
aF-35.598560988510158
asI101
(lp102
F-27.23345212715094
aF-24.394273116014062
aF-22.488490659630912
aF-30.707570189697833
aF-8.398094332554237
aF-11.809352414088181
aF-18.932738371025664
aF-17.579749511030684
asI102
(lp103
F-21.053000648805209
aF-21.31510954851484
aF-19.703061877592717
aF-22.196591744224918
aF-30.803176154471885
aF-21.980981573041561
aF-28.127997527658792
aF-18.728190766661072
aF-22.429393488598976
asI103
(lp104
F-9.439135482432377
aF-23.446161809102733
aF-24.313536970235987
aF-23.836291690511459
aF-10.353541778098304
aF-19.010611816913496
aF-36.333687547759126
aF-18.194781493372332
aF-18.310701775864317
asI104
(lp105
F-25.134554181065326
aF-19.159438202004537
aF-31.026784839172819
aF-21.49846095710096
aF-25.139688589154105
aF-20.312129657246373
aF-20.921905211455396
aF-19.051529990594361
aF-14.406383186188833
asI105
(lp106
F-22.272731421407457
aF-27.489628397347602
aF-21.249398352232618
aF-20.996689241243303
aF-20.077593356088641
aF-26.442693119075457
aF-32.716254597860896
asI106
(lp107
F-20.753944220579172
aF-30.309483250828109
aF-35.198813189342758
aF-26.467713564486218
asI107
(lp108
F-24.899573417962301
aF-19.122789975527155
aF-22.736581848056829
aF-18.605957803468428
aF-23.565807575799383
aF-19.76312281998986
aF-25.048435679908494
aF-21.434572760113753
aF-19.587689264248212
aF-22.174022960906697
aF-30.515506422467922
aF-11.112365688846879
aF-25.276878106076424
asI108
(lp109
F-17.903671222768139
aF-32.959812387214654
aF-24.435037146106609
aF-20.018609582282267
aF-19.149403545450525
aF-22.87238810878759
aF-11.921434111292172
asI109
(lp110
F-28.495235841619063
aF-39.12905427782465
aF-25.70018871462878
aF-23.960539504627121
aF-23.287747438391605
aF-19.413116311062183
aF-20.453965449846734
aF-22.783244059435759
asI110
(lp111
F-22.760281732392571
aF-21.923725527529427
aF-19.532707988421564
aF-18.692348845181797
aF-22.643970757038574
aF-22.342600032545207
aF-21.23358038738462
aF-7.6927069595803061
aF-31.815391792621668
aF-35.523193264758618
aF-25.493816076625649
aF-21.495665132144552
asI111
(lp112
F-20.330122754266029
aF-21.366509083195311
aF-22.070972033041841
aF-23.395391403452123
aF-21.178452769556202
aF-32.741658774077692
aF-18.561763204923963
aF-23.115092853662702
aF-16.212863621862454
aF-19.766284746081169
asI112
(lp113
F-19.949117983172698
aF-19.006016102832561
aF-21.391147335969038
aF-18.744055732335752
aF-21.668080726895624
aF-25.172055633924685
aF-16.796287294788826
aF-20.769575651878824
aF-15.599865478297048
aF-3.5229291675178445
asI113
(lp114
F-20.710647777801455
aF-26.906516000973156
aF-33.673140445669986
aF-22.816471990915119
aF-18.764856668450221
aF-19.802587403649326
asI114
(lp115
F-17.18144044272853
aF-15.314043635032235
aF-20.535077955987077
aF-26.447847724542029
aF-24.388346329756232
aF-20.105576942037885
aF-28.393747148901809
aF-20.672293565515218
asI115
(lp116
F-28.739436619570469
aF-22.041754235499496
aF-7.2199058424175178
aF-36.72310511496292
aF-25.597474880246253
asI116
(lp117
F-18.344099449229418
aF-20.394290708690363
aF-27.552406415865718
asI117
(lp118
F-12.21040610197042
aF-24.549487862042412
aF-22.916740586131226
asI118
(lp119
F-20.888414062861301
aF-26.642531690653456
aF-23.068319402939295
aF-9.9729877891730609
asI119
(lp120
F-23.597026635315913
aF-23.210269915924499
aF-31.773372315677435
aF-14.378245764312084
asI120
(lp121
F-18.623743591057533
aF-19.603543177350019
aF-15.817405837204603
aF-23.47441635128915
aF-15.641163320833613
aF-23.105103857028269
aF-29.546316184301588
aF5.7704603051724916
asI121
(lp122
F-19.151561974168857
aF-22.499930819722351
aF-31.418422421280212
aF-20.119422265728787
aF-23.281125897365115
aF-13.078087693046015
aF5.3023027235242495
aF-17.954757752285246
asI122
(lp123
F-19.494378962709675
aF-25.508950233835023
aF-15.652391168586107
aF-15.214800082745072
aF-10.759041551138537
aF-28.875236559057015
asI123
(lp124
F-25.875790210320076
aF-18.478379344646441
aF-8.0182766969750787
aF-20.944770504898258
asI124
(lp125
F-22.637806146475683
aF-9.1730539940961791
aF-21.156362408920245
aF-19.182025280557468
aF-20.315410002783551
aF-18.756062192876286
aF-20.867491229524077
aF-15.714997654943147
asI125
(lp126
F-13.787407915825554
aF-25.779393592248042
aF-16.393836910372514
aF-25.315863495294721
aF-1.6576571032108092
asI126
(lp127
F-23.198550047691015
aF-21.022753899646858
aF-29.303039649619265
aF-15.705806290441473
aF-17.728157409792288
aF-33.307847523485748
aF-20.233729125227654
asI127
(lp128
F-22.701683576674185
aF-20.637685794148993
aF-22.44210619300641
aF-31.264110106984077
aF-22.024682939607004
aF-21.445998297914585
aF-12.068567871217681
aF-19.089010003736661
asI128
(lp129
F-37.731357644627252
aF-12.824199967359604
aF-21.664412736440525
aF-10.026229318933872
aF-14.181934253006247
asI129
(lp130
F-10.224939894916162
aF-33.613621147151136
aF-11.732588039720127
aF-23.23724275439497
aF-20.647381838439415
aF-23.067317342317637
aF-18.537952030731731
aF-18.399883889557628
asI130
(lp131
F-20.742911351729191
aF-18.695642601640685
aF-17.495158885156201
aF-27.019574594519895
aF-12.505658837078045
aF-24.335326657136022
aF-22.493366865533062
aF-20.23749346049803
asI131
(lp132
F-20.628014920514516
aF-26.705531667958553
aF-29.362942560866784
aF-26.678592706700698
aF-18.892856127657126
aF-15.800338912518185
asI132
(lp133
F-23.384213566767471
aF-19.069668210394795
aF-36.365252899660504
aF-19.07786994199347
aF-14.510980010868465
aF-17.187850662139383
aF-17.51734244056658
asI133
(lp134
F-20.291877006025757
aF-14.06032173893162
aF-10.272624626311995
aF-19.788976950789817
aF-24.059214058742313
asI134
(lp135
F-18.477447112614797
aF-41.344717766822185
aF-15.778861827841197
aF-13.528409312702252
aF-20.668133114427661
aF-13.858289726383987
aF-22.971466676544935
aF-26.03980095882946
asI135
(lp136
F-16.424510827135776
aF-20.919523658192816
aF-22.650623170785906
aF-12.242073159765354
aF-28.230981948770022
aF-15.654545293037586
asI136
(lp137
F-22.664381921321706
aF-19.628475337122595
aF-21.85701736756107
aF-25.704772791042316
aF-22.110569439101312
aF-23.660409546522288
asI137
(lp138
F-24.491843965097104
aF-23.326258582407547
aF-16.785501206920287
aF-15.796154482563523
aF-34.192847267819928
aF-21.974136677958356
aF-17.486318676691724
asI138
(lp139
F-25.326932926105442
aF-28.427024410060753
aF-19.037926106829346
aF-27.779879152632233
aF-24.177934395981495
aF-11.822904287395005
aF-16.168864686393732
asI139
(lp140
F-26.599509199905398
aF-23.101812569059732
aF-11.147638279369033
aF-24.218281891950085
asI140
(lp141
F-19.279197891343628
aF-15.584875198481114
aF-23.104393353286966
aF-11.290117057116277
aF-27.583558502979216
asI141
(lp142
F-20.533563056779215
aF-18.716720058005876
aF-24.311771609465652
aF-23.030903620821221
aF-10.062825214596671
asI142
(lp143
F-24.052642189562818
aF-20.881337047556741
aF-15.843635737088462
aF-19.295016045211554
aF-19.215024787545758
aF-24.586718775400797
aF-19.753484696478012
aF-20.499004265111921
asI143
(lp144
F-24.935941583814923
aF-22.832650372452093
aF-19.338375568332282
aF-19.156643540996811
aF-25.251697470386588
aF-24.166030877330115
asI144
(lp145
F-29.400656266861489
aF-28.077731284250092
aF-17.450561975908727
aF-21.733697677504864
aF-19.023586856453818
aF-13.891664225497635
aF-25.050341439837553
aF-18.452907384271938
aF-23.013884624577614
asI145
(lp146
F-22.705365332664471
aF-20.748402880375451
aF-20.161347871615135
aF-24.150129651707772
aF-23.141207103934406
asI146
(lp147
F-20.32477388439267
aF-29.620831263744165
aF-24.878946965047234
aF-18.326272771999115
aF-15.875721805806009
aF-20.433215301202864
aF-30.546134932924559
aF-15.469687969389724
asI147
(lp148
F-19.033523023854769
aF-24.518186730358011
aF-22.911839074714621
aF-14.079190552278561
aF-38.954524801296401
aF-16.641641173804857
asI148
(lp149
F-33.516940712681645
aF-19.086541657208784
aF-16.621667325254109
aF-12.225793171627942
aF-23.952766361454948
aF-12.058513522553625
aF-16.772913453446307
asI149
(lp150
F-23.36821307962343
aF-18.936958422449351
aF-39.653748864256471
aF-20.386028049316451
aF-19.527707499701222
aF-22.248711218760576
aF-18.021379216283208
asI150
(lp151
F-26.410550777397233
aF-15.147580466121227
aF-14.271999884568771
asI151
(lp152
F-18.451185813757348
aF-25.368305657933959
aF-21.417837507615673
aF-20.465598899657351
aF-14.371105705239302
aF-25.332736920598052
aF-23.795543886619626
asI152
(lp153
F-18.901255445581739
aF-26.886093624526865
aF-18.310842195888341
aF-20.985577081948563
aF-12.852746392067118
asI153
(lp154
F-21.293772254387378
aF-15.662824362921896
aF-19.7126230645855
aF-17.227225541586648
aF-15.513458595572942
aF-18.796202522076186
asI154
(lp155
F-18.824575090647571
aF-28.970263206328013
aF-18.704909185682226
aF-11.959160529733481
aF-13.665334006650781
aF-23.84102881390443
asI155
(lp156
F-18.236187993512715
aF-28.619802245713714
aF-19.37544537251901
aF-15.438915327270607
aF7.3301804735425264
aF-24.530045064953157
asI156
(lp157
F-22.363734874458643
aF-28.847778198010388
aF-15.516409234793855
aF-16.311346612066103
asI157
(lp158
F-25.798177304610959
aF-27.659745762836181
aF-25.442205613177649
aF-25.525892082328369
asI158
(lp159
F-19.092160660754814
aF-29.980588819956466
aF-30.50647830993961
aF-26.35839427670507
aF-23.587231625729117
asI159
(lp160
F-21.288200755512065
aF-20.720001671525125
aF-23.273753691456704
aF-19.177609153570529
aF-24.208659532750517
aF-16.310892614374254
aF-19.881820151777589
aF-20.093609324282923
aF-22.979727015603999
asI160
(lp161
F-23.629411842473218
aF-20.929857662488573
aF-21.199094686643747
aF-22.382945984876784
aF-9.5133531289718007
aF-26.394794096258039
aF-22.129287309640432
aF-29.961385772580286
asI161
(lp162
F-25.881876425395632
aF-19.685409885262885
aF-25.253887190386479
aF-18.651518406622387
aF-20.38910505663236
asI162
(lp163
F-24.658791485372873
aF-20.923581667888726
aF-21.153046421708154
aF-26.572527959176227
aF-31.642064145288188
aF-15.965771130610506
asI163
(lp164
F-13.357845605726041
aF-20.387763615588341
aF-19.274461493645106
aF1.2455954725378291
aF-16.077643819471731
asI164
(lp165
F-18.138297997456775
aF-26.34796768715286
aF-21.165791565065575
aF-24.055019505443497
aF-39.136941767052477
aF-19.279070396276978
aF-19.569333951657626
aF-27.512427287172031
aF-9.3406701289128762
aF-9.6654264865182711
asI165
(lp166
F-14.191090460733932
aF-22.989363553547008
aF-33.218941343796814
aF-16.002856962609741
aF-9.3093914536589466
aF-20.195903325388059
aF-22.577525034383683
asI166
(lp167
F-11.533446325900641
aF-31.449795637066984
aF-25.887968414725307
aF-25.433590568231537
aF-20.721239878743404
aF-9.8640686807978284
aF-15.889585310317699
aF-20.56091160938017
aF-20.881750720642529
aF-0.7733646498465987
aF-17.27029929704716
aF-21.669898730563645
aF-19.392929776497255
aF-26.397432261838247
asI167
(lp168
F-18.542211054245911
aF-18.54729358844466
aF-21.747692604925106
aF-27.676844087941603
aF-23.91847896841243
aF5.2329830221753184
aF-10.860875973610845
aF-21.767464884002422
asI168
(lp169
F-17.315809984312239
aF-19.438522819538335
aF-16.563789530046478
aF-24.598291497839824
aF-22.249519937002674
aF-18.863858872500728
aF-36.162688566634003
asI169
(lp170
F-28.142795445044229
aF-21.970926165112587
aF-30.979215716029245
aF-22.272086721018312
aF-22.862407550411234
aF-16.856623461765849
asI170
(lp171
F-24.909286785612863
aF-21.134058533230487
aF-16.122284577197675
aF-9.9922039633241013
aF-19.381216429468523
aF-24.438925922690572
aF-18.994664481882239
aF-23.64529701276193
aF-20.306810895446063
aF-3.0576228815090758
asI171
(lp172
F-18.043808025119432
aF-22.322097261061202
aF-27.01946796662574
aF-19.927137291577324
aF-25.97542158472784
aF-14.083676886123285
aF-9.3326860531283842
aF-17.034583616848394
aF-14.144515241689817
aF-16.623336084841867
aF-12.435292332516269
asI172
(lp173
F-9.635697581017908
aF-26.776037682004599
aF-34.8240828655603
aF-23.529565967956188
aF-19.752970364878806
aF-18.588653155696392
aF-15.321024671436803
asI173
(lp174
F-21.289451055641365
aF-25.241446456655723
aF-19.207029758619882
aF-28.095730891586243
aF-28.403925379290641
aF-18.599382888807327
aF-20.936762598846371
aF-19.930992980744747
aF-24.037925516988508
aF-7.2554740727906619
asI174
(lp175
F-26.137781610137381
aF-34.783940909193376
aF-13.739178537133625
aF-21.893143515854504
aF4.080461467132352
aF-9.4466148794077327
aF-24.164488450674895
asI175
(lp176
F-20.007614939303977
aF-22.934055349648162
aF-19.273197965217975
aF-11.050820916217049
aF-18.281604768395567
aF-26.306391182359192
aF-19.718036649376117
aF-19.369035874274459
aF-23.10661981086956
asI176
(lp177
F-22.076800966335128
aF-29.906140855414236
aF-19.70271202541737
aF-22.898370229562332
aF-7.7882602035569732
aF-20.031312176621213
asI177
(lp178
F-28.83872594420292
aF-17.01810036473556
aF-18.685630076689037
aF-25.975315543402928
aF-14.180363559166963
aF-20.616181103118151
aF-18.650357335243712
aF-29.522341801972502
aF-20.849313559726312
aF-17.949360610830823
asI178
(lp179
F-15.523463757693833
aF-18.928944532452647
aF-21.854951625388281
aF-14.942626689391489
aF-15.662317156076469
aF-11.403740983162521
aF-21.132863649015277
aF-26.662255249499822
aF-16.58098540881123
aF-19.285763710955464
asI179
(lp180
F-14.557906195828394
aF-26.305135411657446
aF-22.2902967078833
aF-21.09671154807782
aF-18.644515057669395
aF-8.9400887811336531
aF-32.005616057271013
aF-27.443642579479416
aF-30.87499025918541
asI180
(lp181
F-23.967526822549701
aF-23.01116303204202
aF-18.759315678437545
aF-21.553380306631965
aF-21.092071827940259
aF-20.855831555129498
aF-7.4536845309498005
aF-30.491543481479852
aF-34.405707538648798
aF-25.879877330811183
aF-21.756269986477747
asI181
(lp182
F-20.08129897443024
aF-26.141192147052891
aF6.6974590739830973
aF-19.350184873090825
aF-18.874472468106859
aF-20.547092595282322
aF-17.981404546129099
aF-26.366039633272379
aF-26.234250798687953
aF-28.815591507569692
aF-13.152829382544411
aF-28.384758520031852
asI182
(lp183
F-14.821627392764015
aF-25.791181628666777
aF-21.149408542679197
aF-17.219313082959161
aF-20.864167762959468
aF-22.56639527746367
aF-17.024457914598059
aF-19.809002215349068
aF-21.632013736732404
aF-23.250763285244403
asI183
(lp184
F-18.15113163405114
aF-39.661258898636675
aF-25.1137743308458
aF-19.714800335430994
aF-23.699932931864467
aF6.2639913789582664
aF-13.424974460820053
aF-21.361575738238429
aF-19.343844623587728
asI184
(lp185
F-16.884383666893655
aF-22.398386182897866
aF-24.672053025572779
aF-24.825121795225712
aF-15.928177911555906
aF-15.657359366360438
aF1.5945541177451616
aF-12.408557163009391
asI185
(lp186
F-23.69879084524888
aF-19.00706519353264
aF5.4146319269298999
aF-22.562041425237936
aF-12.394637313238277
aF-18.679011121703866
asI186
(lp187
F-23.992501089117312
aF-21.606009247566902
aF-17.350505786353679
aF-16.051957169867848
aF-40.686226732040893
aF-17.333051971902577
asI187
(lp188
F-32.192678938874934
aF-18.107736042631842
aF-15.507174540998562
aF-18.370936663477224
aF-22.319348600131306
aF-12.076536394967661
aF-25.725542400595089
aF-19.943909550142308
aF-20.36889560592995
aF-26.242868973087681
asI188
(lp189
F-18.726735247370527
aF-22.779141381174725
aF-18.727588259344969
aF-27.377356126118457
aF-20.572296096664701
aF-18.642952103964191
aF-16.198375205925203
aF-16.130678104590856
asI189
(lp190
F-18.744567498094241
aF-24.456601154847561
aF-25.882139193615942
aF-21.698442079236713
aF-32.467063837110757
aF-29.130094903653131
aF-11.635640862871554
aF-25.28059801645415
aF-18.641922004617413
aF-22.892763624247465
aF-16.54438059151812
asI190
(lp191
F-23.69282725027557
aF-19.692109381751052
aF-25.023315571776195
aF-19.307279470714491
aF-28.79999888529467
aF-21.47987858029704
aF-27.634718422606028
aF-9.286237858783025
aF-15.769473374486523
aF-20.648059549553423
asI191
(lp192
F-22.384088311259973
aF-19.976083721682116
aF-25.35836605055448
aF-18.380805648933688
aF-26.201262534144334
aF-22.649184925336172
aF-26.331790684343673
aF-18.312061093087536
aF-21.782947058282886
asI192
(lp193
F-16.542659868452148
aF-17.864335396258127
aF-17.059723182388154
aF-15.369996334523933
aF-30.063165865109383
aF-24.293994816810226
aF-20.839172920372505
aF-10.962500879486356
asI193
(lp194
F-20.394130103641658
aF-23.747964667573541
aF-25.569681844471745
aF-19.348812010301856
aF-20.758543293157373
aF-26.36549140323163
aF-35.219227113392222
aF-21.914150277120314
aF-6.9016779954219203
aF-18.447868745941861
aF-21.922898647777998
aF-19.950921318586012
asI194
(lp195
F-14.597052987648766
aF-23.25982459047259
aF-23.239032583573106
aF-28.137649299754443
aF-16.594648495698749
aF-14.393845633101876
aF-15.113159094492275
asI195
(lp196
F-24.568010441096561
aF-38.672040772442045
aF0.075692245185308593
aF-18.829001739052543
asI196
(lp197
F-19.219466035521492
aF-17.054746549511734
aF-18.409341782149255
aF-30.967105390090595
aF7.4898805353693376
aF-8.5977767294993441
aF-24.571627927359941
asI197
(lp198
F-35.196616409037176
aF-22.183695162202127
aF-23.591224006409504
aF-19.454294324239882
aF-21.663512213046516
aF-17.938041835722757
aF-25.987424127821953
aF-16.695628884864618
aF-23.949136189772489
asI198
(lp199
F-16.772771412193379
aF-15.835823040315063
aF-24.072123440282354
aF-21.940790050053607
aF-25.08060471851492
aF-25.42806400628038
aF-14.056317980172579
aF-16.290099649186359
asI199
(lp200
F-27.302209456293951
aF-18.771358154547599
aF-18.649317382745195
aF-32.239378278378581
aF-20.511078483946392
aF-16.768080924830755
aF-21.106446998993079
aF-21.097961220407853
aF-19.420865889736902
aF-19.43823749483515
aF-13.70392252173113
aF-20.62220752939308
aF-18.719570137114289
asI200
(lp201
F-26.893917903935261
aF-20.275215582630096
aF-19.613336237561214
aF-20.075481111995941
aF-17.124643567476539
aF-21.667818857955979
aF-22.995472601361925
aF-22.204123198492809
aF-14.39784437091204
aF-22.967643302201793
aF-32.298975977561781
aF-20.907758453249073
aF-17.613633546011073
aF-22.453611548490073
asI201
(lp202
F-14.795884342221598
aF-23.156378582264466
aF-21.489849240696657
aF-18.098728395333524
aF-21.944248335807202
aF-32.218369692651891
aF-11.492827435283459
aF-19.164992927143373
aF-20.709426325182264
aF-8.7258956454888477
aF-13.698875866445121
asI202
(lp203
F-20.891416134200284
aF-22.625035891516589
aF-13.546791641964248
aF-22.560165524271213
aF-6.2180101607049352
asI203
(lp204
F-19.047867517946585
aF-19.896044805436247
aF-10.839437922592907
aF-19.186691088236003
aF-36.378939666076462
aF-29.452221761541523
aF-14.880767973441692
aF-4.8240600543748968
asI204
(lp205
F-18.424231058330122
aF-21.80090242494785
aF-16.485073328969918
aF-21.619883505979132
aF-17.062769911062588
aF-18.404547730885923
aF-14.582404659940607
aF-28.035455807861382
aF-25.127278746638467
aF-14.547731314556643
asI205
(lp206
F-20.913109288934947
aF-25.421468536043051
aF-22.593538142883148
aF-36.755224393119263
aF-6.752217782296654
aF-14.094513627904846
asI206
(lp207
F-21.641895074647849
aF-15.703605549343735
aF-18.283107560866327
aF-18.548277726602208
aF-18.462607691199395
aF-18.649187413449198
aF-9.622665484087463
aF-28.062131187779983
aF-22.849445243441778
aF-18.956420244676508
aF-21.372718327874139
asI207
(lp208
F-17.136978063998598
aF-18.477593447066312
aF-19.896818787706479
aF-13.893637833793804
aF-24.105537707423238
aF-19.063911418963016
aF-23.435243654242811
aF-20.109637499772944
aF-29.516399135808086
aF-20.992714287831603
aF-23.075293708581768
aF-19.240661132998426
aF-23.152423864283634
asI208
(lp209
F-13.521664425554249
aF-20.198456843828069
aF-16.565009871703978
aF-23.323742125895819
aF-15.397587971844985
aF-18.497780599188957
aF-22.812752345213198
aF-23.793735745755029
aF-20.37089166970722
aF-20.21218764212631
aF-14.812278547936927
aF-42.859033452193941
aF-20.190640574657124
aF-28.066845928748307
aF-28.593078376306096
aF-26.008159497222877
asI209
(lp210
F-23.114010193095368
aF-30.154587333887605
aF-12.957235586360483
aF-20.142112657413676
aF-22.639295915999412
aF-27.937023370033444
aF-25.662212000380762
asI210
(lp211
F-13.825927142581293
aF-30.587330036780457
aF-15.603223190277831
aF-22.676816815383802
aF-19.952400985195979
aF-19.115509754880108
aF-19.373507079444295
aF-19.716519320651884
aF-20.248196029363271
aF-11.302765964512218
asI211
(lp212
F-22.679566894820795
aF-23.238375629886576
aF-18.427605912515361
aF-14.705789975787823
aF-20.980797423145475
aF-16.4173703413027
aF-24.692743276231099
aF-20.571004844076583
aF-24.27960053211514
asI212
(lp213
F-28.387954935702027
aF-20.220926439471384
aF-14.384602340239695
aF-24.668059585542295
aF-11.102822194402847
asI213
(lp214
F-17.568787281077405
aF-24.821621330706677
aF-21.095818116534588
aF-18.604234180561633
aF-27.777167146765521
aF-13.561775798301312
aF-18.667919156734882
aF-24.271040855062665
aF-22.541575795139181
aF-21.491013122023645
aF-16.388229001206042
aF-17.371428256236698
aF1.4139987529135283
aF-19.188422619274959
asI214
(lp215
F-15.566147555094048
aF-10.758988580390081
aF-20.575399126837254
aF-18.802747027542011
aF-16.547573254718088
aF-22.374642824203249
aF-18.750574238977066
aF-24.902502719680058
aF-24.230109296214692
aF-27.647793154707145
aF-20.157312614187958
aF-16.976676232194791
aF-25.430062583896472
asI215
(lp216
F-19.703993083834135
aF-18.33135193720338
aF-19.42552863877917
aF-18.599680847413339
aF-20.212474109288223
aF-22.447457439978493
aF-29.704529794229558
aF-20.792784757751974
aF-19.91808226919008
aF-15.60393396676298
aF-21.224381517363042
aF-29.041009430227675
aF-23.587594445702933
asI216
(lp217
F-20.447644186088951
aF-22.858405633595254
aF-28.396611558803755
aF-21.376686792526513
aF-29.342473370981679
aF-21.121118076668267
aF-14.298015404355752
aF-18.739631089656953
aF-23.621951165567054
asI217
(lp218
F-11.062011043666004
aF-26.076392781411442
aF-20.591150301799885
aF-17.899256498742517
aF-22.77167546789191
aF-19.505154491077064
aF-15.824456048770415
aF-8.357721863617229
aF-26.426385259670084
aF-24.815913565955896
aF-21.189476674557085
aF-40.119156465035104
asI218
(lp219
F-24.360753088963094
aF-20.069590863008457
aF-15.581002710242529
aF-13.132537341577262
aF-18.562263863222128
aF-22.91731144898246
aF-10.871289013444169
aF-37.155660807598849
asI219
(lp220
F-23.742311058770227
aF-25.830171773919986
aF-20.289956826768147
aF-22.064425695488865
aF-26.482613350293121
aF-18.982784602044362
aF-10.251957045196718
aF-20.900814076097944
aF-25.056043492454137
asI220
(lp221
F-31.120371461299513
aF4.4218835238887664
aF-18.53129106179334
aF-21.005612480708962
aF-29.025318445332317
aF-17.94412338444792
aF-22.708150998266078
aF-11.958688680646802
aF-16.263355400777456
aF-18.885510068334582
aF-24.509048642506741
asI221
(lp222
F-23.185428155410932
aF-17.549824712268247
aF-16.465642088417724
aF-18.64480691362121
aF-21.919871012750008
aF-19.71383469002123
aF-27.652400071013886
aF-23.944057642900702
aF-21.088803365808985
aF-11.416156095681856
aF-28.123003781431663
aF-35.490762664880123
aF-23.470453633371164
asI222
(lp223
F-26.205898789182243
aF-24.916666558580957
aF-33.438687389620981
aF-22.945632767707295
aF-18.469770058373669
aF-22.163244363863583
aF-21.294903046795781
aF-20.440074900374697
aF-14.213904386426179
aF-9.1650683822182231
aF-21.432968296307962
asI223
(lp224
F-17.137280749287982
aF-18.676308027485874
aF-29.912071990228455
aF5.1126809906211292
aF-20.02286300537051
asI224
(lp225
F-9.4374979492863389
aF-21.42794005285667
aF-24.232447533850632
aF-11.02074727663981
aF-23.7748379566588
aF-46.793002163956032
aF-27.689959396961967
aF-20.696880878269724
aF-20.681495094755377
asI225
(lp226
F-22.251491842465072
aF-23.470395280834708
aF-20.764888580634135
aF-23.568253253074275
aF-20.395189606803669
aF-29.714158906234033
aF-29.855772345096682
aF-18.869413562608912
aF-19.423280139595363
asI226
(lp227
F-14.063570177315313
aF-21.684179839923331
aF-24.775126850217859
aF-22.714183651713739
aF-22.461128036981734
aF-15.910425585387202
aF-24.594723563065969
aF-23.267642843001312
aF-23.603081863137163
aF-27.526575910253868
aF-13.652030138645344
asI227
(lp228
F-28.643631864881698
aF-33.744109080727085
aF-19.502053154500288
aF-19.821865887061506
aF-22.455418901287331
aF-24.141906998576758
aF-18.723459079271635
aF-19.048032299827128
aF-12.12981831003961
aF-21.785862596744167
aF-21.41811002933747
asI228
(lp229
F-34.127672742944341
aF-18.912454933015198
aF-20.416527177299031
aF-20.209097074332647
aF-22.175776334129125
aF-23.149039155775611
aF-23.35581266834302
aF-23.12154836574507
aF-11.326877678641893
aF-7.9958777525820892
aF-19.903471800762063
aF-26.604002269651104
aF-21.08619350934066
aF-16.20139126215642
asI229
(lp230
F-16.925425943543701
aF-18.799506758139401
aF0.43506376514562817
aF-27.675686522568796
aF-22.819298590097532
aF-27.451852164352928
aF-20.768138496395281
aF-20.781671594790652
aF-32.413200301988823
aF-28.252664080318596
aF-23.389179434624268
aF-10.248944999428289
aF-17.567297900190624
aF-21.23870007208464
asI230
(lp231
F-15.571513663389808
aF-22.34032513125571
aF-21.730233632521418
aF-18.874460975757302
aF-21.493899632224242
aF-13.637368259988094
aF-35.788772750253315
aF-18.929034214537353
aF-14.271774585008416
aF-30.028376334185538
asI231
(lp232
F-20.039034019705184
aF-20.266573155366103
aF-16.951036683408859
aF-23.481257415874779
aF-23.921605656103978
aF-16.52710548952814
aF-20.914847014205804
aF-18.490027206297668
aF-13.955131687777552
aF-9.4743336087047112
aF0.5811170062505937
asI232
(lp233
F-24.904718317342287
aF-34.005922504914324
aF-17.206706945072682
aF-20.354470282707581
aF-21.891917986066261
aF-21.57903081377313
aF-20.760317284703405
aF-15.077132545599312
aF-20.952698159411995
aF-23.233503427215766
asI233
(lp234
F-24.260009640169173
aF-27.302165867471075
aF-28.839189592013497
aF-19.289849100248645
aF-13.92876089335428
aF-20.482633251099259
aF-20.569103713852158
aF-22.130945098557049
aF-18.391317851539469
aF-17.190971587958302
aF-7.0704374276041477
aF-24.334363968680947
aF-14.21994760617892
asI234
(lp235
F-16.748431297294502
aF-22.515418614856628
aF-20.559556649744835
aF-11.99760530593764
aF-31.149516777608397
aF-22.256652366958619
aF-18.386807812546394
aF-20.46447957131187
aF-25.082078571967642
asI235
(lp236
F-21.490127123291643
aF-20.865565691124331
aF-16.355769518890185
aF-21.209592880054913
aF-18.678349092833685
aF-22.316831930946364
aF-40.70416442880645
aF-30.038265721392847
aF-9.6754494794098491
aF-10.30144866296834
aF-23.80095050340141
aF-26.816802588540114
aF-19.439541426511823
aF-17.711416772773006
aF0.53186889444030783
aF-18.772066768734618
asI236
(lp237
F-11.846892548113374
aF-15.824132017665107
aF-19.99150561690827
aF-19.463867269819843
aF-18.595159692004756
aF-17.414528614008248
aF-14.628834358422779
aF-6.7859081069225624
aF-19.931027186850443
aF-44.651441537908141
aF-14.167923975129142
aF-23.551098917914118
asI237
(lp238
F-19.307153509254107
aF-22.171354657586733
aF-9.4140672259845104
aF-17.373064593910499
aF-20.625362749815991
aF-30.649099285395792
aF-13.284021128920941
aF-12.854132327775972
asI238
(lp239
F-18.313740264948109
aF-23.278600915470136
aF-36.124412362303957
aF-29.916916347186529
aF-20.653956706847424
aF-22.785835021813966
aF-6.3597691423681937
aF-6.6835049340666046
aF-21.298987629258079
aF-26.059072439460849
asI239
(lp240
F-21.440709507766627
aF-19.744261849980191
aF-18.562600589170273
aF-23.263018797014666
aF-22.050510109733807
aF-13.503557193106047
aF-20.898570485727049
aF-9.8433632961423143
asI240
(lp241
F-16.252935080305051
aF-19.737185458914055
aF-21.037907633026933
aF-18.535740188116534
aF-15.845490519662945
aF-20.247245814873224
aF-22.611475709758693
aF-29.697685369219883
aF-20.599116184122607
aF-23.921813862306379
asI241
(lp242
F-13.733375171212074
aF-22.639887193745366
aF-12.221654044301587
aF-19.106890518708425
aF-12.027511483575694
aF-23.438333845511593
aF-16.215615507388861
aF-21.343463686900236
aF-29.459327335950917
aF-19.007581752918981
aF-11.526715422412721
aF-28.904864622942881
asI242
(lp243
F-28.390043178067799
aF-14.025319749611953
asI243
(lp244
F-19.058756401169177
aF-19.410479536946198
aF-21.777513058451291
asI244
(lp245
F-13.942782310034929
aF-24.323964726338829
aF-18.668625328747382
aF-11.83684187544462
aF-20.846808732324504
aF-29.096451309457137
asI245
(lp246
F-30.119750612473666
aF-11.862706195655434
aF-9.82741055936674
aF-10.170950970750638
aF-9.7047926482416784
aF-19.061555040101624
aF-19.659264004054961
aF-26.070658097694846
asI246
(lp247
F-27.577327265615367
aF-25.477033989979887
aF-20.116335834024255
asI247
(lp248
F-22.678408029056925
aF-17.920223754697844
aF-18.488745519556289
aF-42.803786313474561
asI248
(lp249
F-20.69257019501589
aF-27.09792484986599
aF-22.548311955069181
aF-26.082224346404843
aF-26.20293211201097
asI249
(lp250
F-19.340528488574279
aF-21.42551163462997
aF-31.52584292386608
aF-23.204688278762575
aF-19.91246227220077
aF-21.760319590780853
asI250
(lp251
F-19.398800480372486
aF-18.596397890903603
aF-30.342546639415957
aF-24.975903457106241
aF-19.977580058623829
aF-27.565437391685236
aF-21.91097458940105
aF-19.235167311995951
aF-20.935644741765273
aF-11.279430864754104
asI251
(lp252
F-23.943422152105086
aF-26.037091905777075
aF-22.84689694119426
aF-20.439263942622489
aF-19.08650674749066
aF-24.334098112485933
asI252
(lp253
F-23.927757315383928
aF-20.255150486207441
aF-22.913662051209499
aF-21.036621930435444
aF-21.537078338622621
aF-13.770966571812892
aF-10.430957860549057
aF-19.913484244748247
aF-23.417847264088294
asI253
(lp254
F-20.154354001491072
aF-40.678733358208291
aF-15.753173498083669
aF-23.059616962016591
aF-25.458766992002893
aF-19.114161241353997
aF-21.249620712247861
aF-19.979430094884776
aF-10.44795955026423
aF-26.14489550167221
asI254
(lp255
F-25.087425278001731
aF-21.246994124456748
aF-22.368083073358434
aF-19.709229374803016
aF-20.663266390005319
aF-9.7674345802095957
aF-17.211935326245765
aF-16.021254274150976
aF-25.893562110315145
aF-19.603982394532935
aF-10.383208945798202
aF-30.16280256231417
asI255
(lp256
F-25.414322470958879
aF-19.702658533585989
aF-21.847279761413262
aF-21.241779409261866
aF-19.805174690663463
aF-22.174403676595716
aF-29.667631991523251
asI256
(lp257
F-13.73613886131767
aF-22.508227409432195
aF-10.707364523364717
aF-20.140611125213042
aF-10.673466215429684
aF-28.990781305562848
aF-17.994200263147462
aF-16.666708538387269
aF-25.03655913423087
aF-12.826603753445198
aF-27.101124554893346
asI257
(lp258
F-20.266695842169113
aF-10.490847213752943
aF-21.004282506262314
aF-21.621949597307989
aF-11.294512381649866
aF-33.876042542949804
aF-24.351420417689781
asI258
(lp259
F-19.429355814145339
aF-18.657321827151549
aF-30.201035695219957
aF-25.108430789583352
aF-19.934344086893447
aF-27.616680977584664
aF-21.890025775598218
aF-19.226555109992944
aF-20.93869608218003
aF-11.327041843189647
asI259
(lp260
F-23.966441939727289
aF-26.483127602699028
aF-15.9677033909648
aF-28.602727467617925
aF-20.862842531975247
aF-22.897029871005316
aF-22.644102991944251
asI260
(lp261
F-32.633674307894637
aF-14.065626621248384
aF-14.403959450862928
aF-22.713724734098406
aF-20.855555324537036
aF-17.955116823403131
aF-13.055773586136638
aF-22.189354314836237
aF-16.634498642243798
aF-32.90472153949068
asI261
(lp262
F-20.918689712003896
aF-26.67540338703256
aF-20.071835885242479
aF-11.65119921786696
aF-21.95187844754733
aF-20.276374449122386
aF-20.758461017878176
asI262
(lp263
F-16.262421352482221
aF-19.995383364643345
aF-26.675966210574046
aF-23.514146038622897
asI263
(lp264
F-18.270899682224353
aF-25.113395914916126
aF-19.532600174017972
aF-26.522062516352307
asI264
(lp265
F-23.38565631053325
aF-21.125741493757886
aF-20.413938949666459
aF-19.447218017394107
aF-21.678810754933664
aF-23.008098370315253
aF-29.303664275457919
asI265
(lp266
F-23.043030549365525
aF-33.387110369930497
aF-18.958488165402059
aF-21.814082236619825
aF-13.699566868412418
asI266
(lp267
F-25.457470353967807
aF-19.702547060406673
aF-16.983226758236157
aF-18.801515854742462
aF-21.884405099174131
aF-20.679697213614176
aF-21.432539863954332
aF-24.423514868987922
aF-9.3261032450055836
aF-37.55118119562961
aF-23.319583164870124
asI267
(lp268
F-35.011772185329761
aF-9.700668714341603
aF-11.568584071180055
aF-31.565167014417256
aF-9.8333950316668393
aF-19.27432881313743
aF-23.437991870482648
asI268
(lp269
F-31.538377081694591
aF-25.293859153583242
asI269
(lp270
F-23.167946663592403
aF-26.145291521859235
aF-16.298588991674308
aF-1.1454146168837411
asI270
(lp271
F-31.608098178776203
aF-19.977234744744621
aF-18.797378416904735
aF-20.886383135148733
aF-13.117247649919562
asI271
(lp272
F-20.910762084741549
aF-21.548363405031338
aF-25.344387466555588
aF-35.059771726444339
aF-28.73771185252771
aF-20.91417242951718
aF-18.422086520560171
aF-19.952823116424355
aF-20.411004484376633
aF-13.797349290864801
asI272
(lp273
F-18.3748978720146
aF-22.089915313250657
aF-31.933047419906345
aF-19.60142018851073
aF-23.163033190888342
aF-21.057852203284909
aF-10.369943182198696
aF-19.158066443276837
aF-21.416531654801759
aF-21.902301549972179
aF-19.002090242133534
aF-12.24645970883364
asI273
(lp274
F-19.357434745300026
aF-23.942214466297685
aF-18.341210386705171
aF-13.388389109446919
aF-25.550120300883776
aF-19.226667474384627
aF-26.427265263281896
aF-31.1575652239503
aF-14.580161178292755
asI274
(lp275
F-14.016142119435273
aF-23.083999653015752
aF-24.706207260084369
aF-24.071306739988373
asI275
(lp276
F-23.362294126136206
aF-24.437514052840271
aF-21.495989357616196
aF-36.954584959029688
aF-19.619962667665206
aF-21.087995679929605
aF-15.52679616877397
asI276
(lp277
F-43.642332602109391
aF-18.615377601003672
aF-19.165817421027185
aF-18.518191984917905
aF-15.543735594903012
asI277
(lp278
F-27.048925389755681
aF-26.255682848478756
aF-16.607939802207113
aF-22.939218579995043
aF-18.867357525096708
aF-13.928713811307858
aF-24.250593390931371
aF-19.148494985442397
aF-24.121616723339486
asI278
(lp279
F-13.482747055701012
aF-27.626684567150491
aF-18.22042089707935
aF-19.817142204276138
aF-20.505149886494962
aF-26.687794213048093
aF-20.830158611763181
asI279
(lp280
F-21.232754870871872
aF-19.184166071625384
aF-19.160311398311222
aF-26.967432126144146
aF-21.432043240228836
aF-31.043729816514627
aF-24.853674054708534
aF-9.8797255107877504
aF-18.860467665979868
aF-22.783424766118173
aF-19.80600321253894
aF-15.921940823996351
asI280
(lp281
F-17.605240933606609
aF-31.431195223158539
aF-10.347746455867139
aF-21.674952453590706
aF-16.466087318385917
aF-11.658819535196926
aF-20.08823005454208
aF-20.19324944274274
aF-20.009891842684738
asI281
(lp282
F-19.282188861730688
aF-21.504297615867074
aF-31.509848172890472
aF-23.118092694761842
aF-19.883844073668456
aF-21.693323044252196
asI282
(lp283
F-18.742182201246166
aF-13.970893055117713
aF-20.663445319971743
aF-20.883413367940079
aF-26.030966375363249
aF-13.398031876749258
aF-30.879421310456067
aF-23.267936672185144
aF-27.761594705137995
as.