(dp1
I2051
I175
sI2058
I133
sI2066
I1
sI2072
I203
sI2080
I105
sI2082
I175
sI2084
I147
sI2086
I147
sI2092
I15
sI2096
I167
sI2097
I175
sI2099
I180
sI2101
I106
sI2102
I139
sI2110
I197
sI2114
I16
sI2119
I95
sI2121
I174
sI2122
I106
sI2125
I167
sI2126
I106
sI2129
I21
sI2131
I197
sI2132
I100
sI2135
I197
sI2140
I2
sI2141
I21
sI2143
I158
sI2149
I197
sI2150
I132
sI2154
I146
sI2159
I8
sI2161
I132
sI2166
I201
sI2167
I201
sI2171
I201
sI2172
I132
sI1898
I36
sI2178
I191
sI2183
I192
sI2185
I177
sI2186
I202
sI2192
I194
sI2193
I6
sI1987
I212
sI2197
I142
sI2202
I186
sI2204
I6
sI2206
I23
sI2207
I192
sI2213
I120
sI2218
I172
sI2221
I178
sI2222
I178
sI2228
I97
sI2229
I102
sI2231
I172
sI2235
I125
sI2237
I124
sI2239
I172
sI2242
I178
sI2244
I120
sI2250
I172
sI2252
I142
sI2256
I113
sI2258
I29
sI2260
I140
sI2262
I140
sI2268
I120
sI2275
I123
sI1830
I61
sI2293
I109
sI2298
I130
sI2309
I112
sI1801
I75
sI2314
I137
sI1804
I78
sI1805
I85
sI2318
I29
sI1809
I39
sI1812
I48
sI1813
I232
sI2328
I130
sI1819
I232
sI1820
I85
sI1821
I232
sI1822
I48
sI1824
I61
sI1826
I232
sI2340
I112
sI1902
I233
sI2342
I127
sI1834
I40
sI2347
I12
sI1837
I88
sI1839
I40
sI1840
I232
sI2353
I18
sI1846
I62
sI2359
I29
sI1848
I40
sI2015
I188
sI1854
I40
sI2367
I104
sI2371
I127
sI1886
I79
sI2374
I104
sI1816
I85
sI1866
I54
sI2379
I104
sI1872
I223
sI1875
I36
sI1876
I36
sI1881
I233
sI2394
I18
sI1884
I210
sI2398
I104
sI1889
I55
sI1890
I209
sI2403
I14
sI1892
I230
sI1896
I230
sI2410
I14
sI2411
I14
sI2414
I7
sI2426
I31
sI1916
I35
sI1924
I230
sI1928
I80
sI1930
I73
sI1933
I219
sI2447
I4
sI1936
I225
sI1938
I37
sI1859
I223
sI2454
I14
sI2455
I4
sI1948
I70
sI1950
I76
sI2464
I216
sI1955
I226
sI1862
I62
sI2474
I4
sI1966
I176
sI1969
I226
sI2482
I216
sI2489
I4
sI1980
I83
sI1982
I176
sI1985
I176
sI1986
I83
sI2499
I4
sI2500
I216
sI1989
I51
sI1992
I83
sI1993
I188
sI2506
I4
sI1995
I166
sI2515
I216
sI2007
I176
sI2008
I93
sI1891
I233
sI2013
I93
sI1957
I80
sI2016
I47
sI2019
I1
sI2020
I195
sI2022
I149
sI2023
I1
sI2026
I44
sI2029
I195
sI2031
I166
sI1977
I81
sI2034
I175
sI2037
I32
sI2042
I195
sI2043
I229
sI2044
I196
s.