(dp1
I0
(lp2
F-20.801274266748408
aF-19.5935693679412
aF-24.229358851133995
aF-8.9031772505880156
aF-22.056616938937452
aF-10.837914924813148
aF-21.467587430360993
aF-7.1316183446690502
aF-19.066202268646848
aF-28.155575553392225
aF-18.560411569422911
aF-17.598201726471387
aF-30.218882630183558
aF-30.416500673078517
aF-21.607043085415825
aF-28.08424472174093
asI1
(lp3
F-34.299531882262357
aF-12.437238299832273
aF-20.91304648919521
aF-18.07178798897651
aF-14.639640259494399
aF-15.514347636562718
asI2
(lp4
F-25.229005538308314
aF-21.75743420783138
aF-13.317052885269916
aF-20.738458584377042
aF-9.4326315245867249
aF-8.3840891664765422
aF-18.319076259936878
aF-21.778023246773017
aF-22.133635033420589
aF-21.900818050896547
aF-22.4988377207778
aF-33.044666099966335
aF-28.429938182361894
aF-22.44072376021677
asI3
(lp5
F-22.951151909739551
aF-19.467760849698593
aF-25.276537750625579
aF-10.714163155101289
aF-15.811381051358268
aF-17.646215142062999
aF-16.814339795589149
aF-13.946523870828386
aF-18.732708380579652
asI4
(lp6
F-14.975159056333325
aF-19.562674268376725
aF-18.657386200478655
aF-11.324937598023695
aF-6.2770084920677078
asI5
(lp7
F-40.899626830397168
aF-13.698327910588461
aF-22.120114390326364
aF-17.079600057732961
aF-13.039103694454241
aF-14.400324472971732
asI6
(lp8
F-18.463098865872595
aF-23.965861672317104
aF-18.329949900506762
aF-32.229279529672993
aF-8.9948696488753797
aF-26.83360880245904
aF-21.977344335595575
aF-19.158925178038018
aF-9.0562802257665282
aF-18.390838268544712
aF-20.680305926925499
aF-24.84906145893045
aF-15.468698502691112
aF-18.675075994584034
aF-29.631741093578455
aF-24.21042472606689
aF-19.120831261779628
aF-46.181814013045837
asI7
(lp9
F-22.307871317402714
aF-36.18219097064717
aF-22.422975702798169
aF-21.527254526157549
aF-18.478320907884452
aF10.798535092810283
aF-26.62356919861071
asI8
(lp10
F-31.416542694308148
aF-19.010527960541879
aF-16.195617665986177
aF-16.718560417841147
aF-20.547694495003128
aF-18.759738028866522
aF-26.855803018261923
asI9
(lp11
F-19.551630074054756
aF-19.045226660238256
aF-27.43733659274136
aF-16.1514672438866
aF-16.268876909405236
aF-19.344368377930053
aF-19.044811610202913
aF-19.074305516674485
aF-17.497392044072086
aF-17.703334199685955
aF-11.096384691784223
aF-19.474367526659563
aF-19.448676983476801
asI10
(lp12
F-20.249094999107413
aF-38.154551556189332
aF-27.310365029094015
aF-18.749024561646593
aF-6.5888462082699135
aF9.5472947158784791
aF-20.30126640543773
asI11
(lp13
F-22.957473117804909
aF-17.002036138219907
aF-27.474229477311169
aF-26.838096015493505
asI12
(lp14
F-21.514606316548381
aF-24.71562502072544
aF-25.579539878199824
aF-36.353233131752333
aF-18.794219313309185
aF-28.754067971907517
aF-25.748418035463402
aF-17.062891344096442
aF-23.689144719348278
aF-15.599433313906189
aF-21.848540611188838
aF-19.490422754940255
aF-21.744795872903524
aF-18.587202682242832
aF-20.370585550654368
asI13
(lp15
F-23.837273422076564
aF-20.267809301140417
aF-19.467766111870475
aF-21.209569566692267
aF-21.548063458598506
aF-14.733812718956571
aF-25.812102585698938
aF-21.712163580149792
aF-20.068973033721846
aF-20.606844009521581
aF-19.388499924107009
aF-18.867116639164124
asI14
(lp16
F-24.203909749361074
aF-19.238821845346223
aF-16.738350601051451
aF-24.263771976527764
aF-23.016716191227403
aF-18.579210100228579
asI15
(lp17
F-23.047138398246332
aF-18.967483014337375
aF-16.265157576651916
aF-26.19706457910489
aF-23.382684980558807
aF-18.612262587712522
aF-19.226220882176179
asI16
(lp18
F-19.743035232429662
aF-19.323676874440267
aF-13.368966838519142
aF-19.889741635775721
aF-18.13237771659368
aF-22.553680969791685
aF-22.607410534513349
aF-19.561828552356076
aF-30.861200936891336
aF-19.197079785903085
aF-31.1998652238658
aF-27.550387265336482
aF-18.235868815170051
aF-18.524705133478619
aF-21.440192417142327
aF-20.085998142080484
aF-20.832326046643999
aF-23.346825540629524
asI17
(lp19
F-21.791870071776287
aF-17.646127210305409
aF-17.554141626725709
aF-19.765786591133832
aF-19.392643098771146
aF-17.859943569910129
aF-23.683738970146322
aF-23.996314796968917
aF-32.075280669601696
aF-23.342290716074629
aF-22.873790465423042
aF-22.212376938116918
aF-19.878904319602668
aF-25.039940884133387
aF-24.707150817667525
aF-23.774465793303364
aF-19.020096122821684
asI18
(lp20
F-20.951296653664684
aF-13.206216908676879
aF-26.823955185933812
aF-20.13371287406089
aF-22.909653833588322
aF-25.587284280359043
aF-6.6312751481786734
asI19
(lp21
F-18.486376097753237
aF-22.035266665835451
aF-21.537487354447961
aF-21.676435692271255
aF-13.490441039560437
aF-19.288094531388197
aF-25.182147762137134
aF-21.075295054685824
aF-15.779969654624296
aF-24.044532488145151
aF-35.566779359806603
aF-32.040524371072451
aF-21.029048671227216
aF-19.720861968833532
aF-24.15432928498376
asI20
(lp22
F-17.836844753868917
aF-22.604470171793764
aF-16.274525697585361
aF-21.033906032310185
aF-20.777956418090255
aF-16.559392206164617
aF-21.360770783578943
aF-20.357108366834865
aF-25.333995898585755
aF-15.282873252777136
aF-22.916540498605372
aF-32.867017224048908
aF-16.373550083275703
aF-21.235676088671084
aF-26.669238369681722
aF-20.353507609406307
aF-20.090322783156296
aF-30.548667349859073
asI21
(lp23
F-14.134713222336714
aF-19.341661211786928
aF-6.6924641793702051
aF-23.28293041031651
aF-19.675252302245966
aF-21.927180791700422
aF-10.56692627382597
aF-19.97177822425374
aF-19.682550234467357
aF-19.810884815771317
aF-23.013670155788887
aF-35.981967974854953
aF-20.503284055776959
aF-21.258737767645556
aF-27.856243197481831
aF-25.47649323717728
asI22
(lp24
F-24.936717018960621
aF-21.893680984740925
aF-23.130216030535209
aF-14.259990490616147
aF-20.009525356048329
aF-20.447069306587579
aF-20.296015492074446
aF-20.097582849514026
aF-20.567806359400223
aF-22.662039030676567
aF-20.795769681488849
aF-25.54566841041617
aF-25.112662476353975
aF-35.712671400670189
aF-30.168164487961377
aF-23.974441493377881
aF-21.437147280297538
aF-20.571794874270225
asI23
(lp25
F-25.532136628857302
aF-12.796444631454705
aF-9.6066024440893472
aF-20.133472578313203
aF-26.930144774622761
aF-25.124326385991466
aF-26.376941422721558
asI24
(lp26
F-25.796195004377225
aF-12.73569320837646
aF-9.7421314643301571
aF-19.972280282327944
aF-26.990123777459573
aF-25.318010765240103
aF-25.148022897718533
asI25
(lp27
F-31.575683335661111
aF-10.430454859713251
aF-13.298375567834881
aF-16.423852714789689
aF-26.342360320282012
aF-20.288779669461206
aF-29.491899838001416
aF-13.564741524218121
asI26
(lp28
F-22.662401892218583
aF-25.407952574781518
aF-21.969207692488197
aF-31.043646643752908
aF-18.902622114431608
aF-26.116139681319254
aF-21.610173827685884
aF-15.744944420242319
aF-18.15005939150376
aF-16.409225449061751
aF-20.041752564268492
aF-6.9697263135488186
aF-21.930979216992327
aF-20.061447259019218
aF-19.545285683476223
aF-29.079778674607482
aF-21.47766821856888
aF-31.575852936201372
aF-19.521690661735903
aF-26.826370134318154
aF-25.043531719755848
aF-15.385963235094721
asI27
(lp29
F-19.825094615511006
aF-21.027311843519641
aF-26.068733070896513
aF-28.979330986333835
aF-21.464632984604748
aF-27.430552433152371
aF-19.828663229698591
aF-14.134468202488449
aF-20.304170533797787
aF-21.908613098039893
aF-19.621135815004251
aF-21.854509987754355
aF-19.32774856732722
aF-28.618735791489556
aF-18.024485923194021
aF-26.799821956791035
aF-30.782601875476757
aF-29.295963746328169
aF-18.266302466057908
asI28
(lp30
F-13.293474408830619
aF-36.079563362161338
aF-26.86541917986375
aF-21.525928121221909
aF-19.752046940955111
aF-21.544240002183926
aF-22.430396544245781
aF-13.610889083986862
aF-18.424254698724042
aF-18.554565240702601
aF-29.467862975617152
aF-34.466041142733886
asI29
(lp31
F-30.30171723149617
aF-22.655138749574803
aF-15.899688022867579
aF-22.445846283019506
aF-31.182133077584567
aF-28.815844161932347
aF-20.398295523390459
aF-23.524194882722156
aF-15.438816788845557
aF-20.842135499932425
aF-7.9561208777579964
aF-17.515330102236106
aF-20.516947551085622
aF-21.090827631743252
aF-26.008856650849509
aF-16.42538909282959
aF-24.471469707238128
asI30
(lp32
F-19.343718476086877
aF-20.476587340731015
aF-27.483893464318896
aF-29.301031819016004
aF-22.71172940010004
aF-29.697375672320931
aF-19.944127781929581
aF-9.6869810847070141
aF-22.454375198290435
aF-23.707573339456161
aF-18.034554146882442
aF-21.323182715486695
aF-20.124510043409046
aF-25.960398786096917
aF-16.980778210293181
aF-24.710857080356107
aF-14.340685955335928
aF-27.786337737691753
aF-28.069160788278069
aF-18.182486011835948
asI31
(lp33
F-23.264059364553731
aF-19.323555616449852
aF-28.745023217932086
aF-20.523314213033274
aF-21.777088797224778
aF-24.845558436053238
aF-26.122198504686395
aF-32.103741557461404
aF-21.527776845077568
aF-25.150195527369419
aF-24.00137394146725
aF-19.400423371875149
aF-21.034382591712401
aF-15.189893840254427
aF-24.472609645084887
aF-19.89869754251734
aF-23.515109976133445
aF-20.209523052965906
asI32
(lp34
F-16.636838490559995
aF-37.53629653468812
aF-23.676271514611045
aF-29.0696222328814
aF-25.718691382498349
aF-13.143765765634853
aF-23.980295905152786
aF-25.575529401647188
aF-15.405521921747976
aF-22.108558647786438
aF-18.818988249312611
aF-22.546522339707749
aF-20.997146804696527
aF-15.449498212288859
aF-24.417750640762193
aF-27.26664013246932
aF-20.632940168063485
aF-15.364080231347231
asI33
(lp35
F-19.444198098093679
aF-20.932787735443583
aF-21.321978613553497
aF-16.310048535254168
aF-27.348778126147735
aF-19.577047749372554
aF-24.92231257864232
asI34
(lp36
F-12.243785672151617
aF-14.906146894349376
aF-22.638734549861823
aF-22.707076446427209
aF-19.830648337695834
aF-21.467033435338038
aF-18.943935863181807
aF-24.182628105001172
aF-19.258165645597131
aF-29.317953739203432
aF-22.802640040570097
aF-35.225493909617242
aF-31.083899561122578
aF-21.918893886102381
aF-27.724959001352786
aF-21.292080790037886
aF-19.01017383704189
asI35
(lp37
F-20.906024163528485
aF-20.757832712085417
aF-17.164415903027859
aF-19.179639218237497
aF-14.840308836142725
aF-25.443155334374708
aF-19.336089917776945
aF-23.017330480097343
aF-20.753105744803761
aF-18.550144152947581
aF-22.378807746264556
aF-21.062424507179841
aF-18.856924700340727
aF-27.382540851495705
aF-16.941946588155091
aF-13.783277639940195
aF-24.338810058656989
asI36
(lp38
F-28.633300719246662
aF-9.3420032448453014
aF-19.732384766090718
aF-20.551881232449432
aF-22.361404007299271
aF-20.907484334796493
aF-18.841892180926976
aF-27.101932898870402
aF-13.835520332752111
aF-29.730490975448433
aF-27.317963632720989
aF-29.059121710198099
aF-21.579015277633061
aF-19.298361547623244
asI37
(lp39
F-25.046279789547185
aF-14.649819795059756
aF-23.52550922312173
aF-22.90835541999158
aF-19.566217243662322
aF-17.243774484289062
aF-18.677043739820007
aF-26.154440697251829
aF-8.5441126109571996
aF-23.10685603956361
aF-37.405684886164394
aF-19.837121152080115
aF-26.515589148527852
asI38
(lp40
F-20.172263316597125
aF-13.509286440098208
aF-21.543665853502915
aF-22.163975950378031
aF-19.674983988975939
aF-19.078316821330162
aF-20.942338589971115
aF-15.466100171649828
aF-25.927593147914621
aF-9.3434164923565675
aF-18.448417832271559
aF-16.451299748997528
aF-30.691967985986835
aF-15.807558994331714
aF-37.468602868816546
aF-25.35795956024262
aF-19.719797204991835
asI39
(lp41
F-19.608314590249606
aF-16.276462483469416
aF-18.928653067734857
aF-22.370240893605413
aF-20.922485667534403
aF-19.57033657399576
aF-12.831800944014532
aF-20.762310828435545
aF-19.368622339150761
aF-25.514108217833808
aF-19.30780298658803
aF-22.024532780945108
aF-25.164982536190195
aF-24.07440641451646
asI40
(lp42
F-28.00134203825472
aF-10.352269364609853
aF-17.645226644182429
aF-17.304380563716748
aF-25.424345290984675
aF-20.406964101201424
aF-23.544956454404883
aF-21.232549905891489
aF-18.352311056927931
aF-27.449522461344358
aF-12.837736367678616
aF-34.311235537327377
aF-20.857642774225354
aF-29.801241794843691
asI41
(lp43
F-20.544643646527049
aF-18.968974386569499
aF-16.42890464112952
aF-21.266590108908744
aF-21.385312127766269
aF-22.613448121593876
aF-18.541654087889185
aF-22.342263275156441
aF-19.969167272566096
aF-17.90615807858228
aF-21.046724628349992
aF-12.116828301499055
aF-14.118849433287608
aF-32.817047212284095
aF-28.537410053807008
aF-17.090847049663296
asI42
(lp44
F-17.532793554956328
aF-32.816361181117912
aF-16.701186628915423
aF-22.20625526409404
aF-19.729523588736683
aF-25.077793718274648
aF-18.78079645524484
aF-21.764044933728826
aF-21.184957589281325
aF-23.395781325265673
aF-18.390520624045394
aF-25.656941259820854
aF-20.3575650279586
aF-32.064708903776804
aF-21.119176422832908
aF-13.819874829389022
asI43
(lp45
F-21.245072485610024
aF-28.654180084791093
aF-23.794759969823417
aF-15.993793269865023
aF-20.240489615051487
aF-21.836737909407034
aF-20.142599981958597
aF-21.613635966485504
aF-16.032319445601814
aF-19.306887393500318
aF-10.062824206279871
aF-10.155358978171478
aF-13.689321086719332
aF-26.072399206488285
aF-26.913348768944275
aF-16.095437854003066
asI44
(lp46
F-21.206509009602257
aF-27.069152142860858
aF-23.210735881392409
aF-18.891956952562822
aF-20.123220709630104
aF-21.866308656661317
aF-14.819918413661242
aF-24.954884532549926
aF-16.940778665167358
aF-18.944536630494326
aF-20.769434806647993
aF-24.941779932708286
asI45
(lp47
F-33.507881437128063
aF-17.784397671211224
aF-25.552268263611239
aF-20.044288962915658
aF-23.389252329489864
aF-10.775374403679848
aF-27.449687504119439
asI46
(lp48
F-16.145790634153386
aF-45.24629128017655
aF-25.165805064000651
aF-29.448788864952846
aF-19.759111177882033
aF-19.643529240823341
aF-19.399468740646014
aF-20.805684846559302
aF-20.30151703619515
aF-22.22735383968967
aF-18.760430350681446
aF-25.571529596443341
aF-21.223796953031069
asI47
(lp49
F-28.839429115209583
aF-28.803413262127819
aF-24.134677472610463
aF-13.553404608997738
aF-29.321267249877593
aF-18.341144687162441
aF-26.456722807020498
aF-19.409592796009093
aF-13.744267685334208
aF-20.845314806176816
aF-20.571654378408539
aF-10.791130774262115
aF-21.632802823496945
aF-22.152325744077146
aF-20.377935922451627
aF-17.90907433292314
asI48
(lp50
F-16.797774852756618
aF-33.857570064757908
aF-24.031208392843894
aF-35.397961351007226
aF-21.906963356914048
aF-9.4024554131220839
aF-20.926564450077151
aF-19.502027594298909
aF-21.79680664575946
aF-21.371690753630688
aF-16.72104064384196
aF-24.352636129397581
aF-19.72186046923531
asI49
(lp51
F-18.6359687478419
aF-31.534397958395147
aF-23.105977821804018
aF-27.436936030229532
aF-19.788681341927258
aF-20.079101218910097
aF-19.001075624040169
aF-16.590164031801379
aF-20.71369976674346
asI50
(lp52
F-24.398043665605186
aF-14.350478586632647
aF-43.466467188964799
aF-25.262961316934451
aF-21.169507548890721
aF-19.416824134783667
aF-14.587987736256196
aF-6.876199143583932
aF-13.883457452604077
aF-18.49834588305319
aF-21.396334645817618
asI51
(lp53
F-20.041838071810304
aF-26.494255183045766
aF-23.504856674590485
aF-19.474162509231348
aF-21.396157605549675
aF-32.312068976742736
aF-21.001974618284891
aF-19.284425906558667
aF-10.181236074839347
aF-7.8154114091595801
aF-23.40730420015629
aF-20.008852458355008
aF-20.964260500968521
aF-20.547508408300217
aF-20.009643003910213
asI52
(lp54
F-15.839731145515231
aF-26.283549115578495
aF-17.246124455488143
aF-34.46624976100405
aF-25.497014852540218
aF-17.683604502757703
aF-18.437676117993718
aF-13.275616962286264
aF-19.456552269243247
aF-19.213416896827567
asI53
(lp55
F-25.118628444774757
aF-8.5969766058976234
aF-30.885270824012025
aF-20.72816441652796
aF-11.81972586614647
aF-11.12403489839167
aF-20.081152605243176
aF-18.845707670485126
aF-20.039908944753861
asI54
(lp56
F-21.595979682605815
aF-20.044793784132239
aF-22.679337557458808
aF-25.12790660699109
aF-35.472381879984425
aF-16.137476232377722
aF-28.148344561831038
aF-15.317576510745496
aF-22.084184788183222
aF-19.502660669317862
aF-21.990639941487785
asI55
(lp57
F-7.8101395248436347
aF-16.712145246595725
aF-19.523652858719288
aF-23.244782974201911
aF-19.960826823056209
aF-56.67272408256656
aF-12.879919962063397
aF-10.938286412523922
aF-25.982938487990907
aF-23.135198471190378
aF-16.103864574606192
asI56
(lp58
F-18.489954709484735
aF-16.158856027272805
aF-20.20591375069128
aF-18.609265122576375
aF-19.790340708015805
aF-19.525493419238785
aF-18.203547080548603
aF-6.4728043558605464
aF-10.583911285244341
aF-21.75561461773971
aF-19.904221537577982
asI57
(lp59
F-20.98070396922904
aF-18.466898452678407
aF-22.778260016772705
aF-18.384032937429396
aF-20.646422576677111
aF-19.759219430994875
aF-24.054933411415874
aF-32.117484202744052
aF-23.465241186550145
aF-6.4832674077976122
aF-25.057296705258878
aF-28.378037866167347
aF-28.639904456547484
aF-18.667878391345894
aF-24.475096077455234
asI58
(lp60
F-15.903035968898024
aF-15.632327246972324
aF-19.73499584192578
aF-19.370563995824952
aF-23.403544656093203
aF-21.537586059508357
aF-13.243763812961873
aF-23.281959205715026
aF-21.320984860233352
aF-17.936949176874819
aF-23.508989366919764
asI59
(lp61
F-25.792006961590431
aF-16.047814149010406
aF-22.580278636780662
aF-19.26034973421423
aF-17.699309175119055
aF-19.486343378625264
aF-19.170842444888223
aF-19.894874012064804
aF-10.064501768348904
aF-10.423815801995403
aF-36.270412520952647
aF-17.543275087109578
asI60
(lp62
F-19.462424877311292
aF-10.20656784258054
aF-19.889492374395815
aF-19.188666413715524
aF-21.656132109845942
aF-19.440794796014274
aF-23.434737525826137
aF-15.120496463726255
aF-31.153409292514056
aF-17.204489362413071
aF-24.738874863303252
aF-19.278249912864823
aF-21.270199068319414
aF-30.854119356747759
aF-20.770355196504426
asI61
(lp63
F-27.199520075321487
aF-21.262201010099631
aF-11.328024803394499
aF-19.218030394302303
aF-22.064171186495216
aF-18.436638822090003
aF-19.873930608182846
aF-9.0072553711523682
aF-31.121072345228768
aF-24.963073248116132
aF-31.298206873747304
aF-35.002808345687171
asI62
(lp64
F-21.828182765253018
aF-16.685550944710101
aF-22.588383492051847
aF-3.283803025251359
aF-18.408890214932029
aF-20.004540826852022
aF-9.354903861466596
aF-16.19883341430122
aF-23.735422055320456
aF-18.303555035275366
aF-17.306500460797309
aF-34.593094043777214
asI63
(lp65
F-19.071409885118555
aF-13.190612090961707
aF-20.291576460203103
aF-23.180642803808908
aF-21.441713849665149
aF-21.576339571023738
aF-13.442250908589813
aF-25.976553721265674
aF-17.477119618143604
aF-22.488957539597351
aF-19.888732802712482
aF-42.229010271873619
aF-19.982830651221278
asI64
(lp66
F-32.675992901496983
aF-15.422124230911678
aF-22.625379301481487
aF-19.689519416970995
aF-21.793748101574167
aF-21.187325684669077
aF-20.953092042497104
aF-4.1177024141959038
aF-35.536977312143122
aF-16.045306247000369
asI65
(lp67
F-18.673614748613787
aF-15.907480804731989
aF-25.670496849942225
aF-26.067625353160352
aF-22.94747015324225
aF-22.185357266005695
aF-23.467318295237334
aF-20.63996628676847
aF-12.618975479689567
aF-20.425584734429151
aF-1.0519010351830644
aF-13.807325125940935
aF-20.906420740339826
aF-37.986129530201765
aF-18.341391134906559
asI66
(lp68
F-12.550215821093786
aF-23.476992025773285
aF-25.714331795150457
aF-19.231704612132503
aF-21.06646326942257
aF-20.400172337989176
aF-21.26723397024864
aF-16.697240200956131
aF-22.853345817138461
aF-31.538046078996928
aF-21.430525553937713
asI67
(lp69
F-20.736913893947246
aF-23.603694847967191
aF-17.265536558444609
aF-19.771572774901898
aF-18.513022968572272
aF-1.3837940756103961
aF-12.632691784188268
aF-23.771727578253021
aF-19.229770698243726
aF-22.099839878542127
aF-26.220531114050772
asI68
(lp70
F-28.013126436527443
aF-22.344433831047667
aF-19.174188000457335
aF-17.560422043945323
aF-23.562572214329094
aF-18.43621779786703
aF-13.572654521433833
aF-18.778781113523735
aF-8.5691105957717468
aF-24.842712493153527
aF-20.109005388444359
aF-22.633912974436612
aF-27.973992058501736
aF-19.807890415438806
asI69
(lp71
F-29.313717571876438
aF-21.935013936527895
aF-20.936094142779808
aF-36.801556458982233
aF-2.7795001005319051
aF-19.852305029651959
aF-26.580515690178004
aF-19.591873687008757
aF-15.865411401038273
aF-14.16391832088658
aF-19.540687142671345
asI70
(lp72
F-12.476621484230776
aF-25.55458000531705
aF-35.886858896478742
aF-21.748056650035977
aF-26.457142693473315
aF-11.683433528617115
aF-19.852648867406572
aF-22.872070299372083
aF-20.190234556837339
aF-20.617559057651832
asI71
(lp73
F-10.460737339034381
aF-29.426926148768246
aF-30.819193094675498
aF-23.559382164772629
aF-25.899388393753867
aF-12.09179930922889
aF-15.692068884539864
aF-18.886983913582839
aF-22.195560582892568
aF-20.127168391614504
aF-22.04349976197426
asI72
(lp74
F-20.456793805135192
aF-6.4027867803381042
aF-25.894957695762315
aF-20.866915452255085
aF-31.551262131946785
aF-22.422442283285847
aF-18.592006689493729
aF-11.286138419971678
aF-17.462150154785022
aF-19.239940975751722
aF-19.422690805193625
aF-25.441720487275646
asI73
(lp75
F-19.370022556194016
aF-16.242993062374012
aF-23.155684220704572
aF-33.720893779736386
aF-28.868160294293745
aF-22.723567635828147
aF-21.576136541327202
aF-21.327331337398874
aF-19.204619079026116
aF-10.508354933364728
aF-18.083283447576775
aF-18.951944670643883
aF-23.749910809124998
asI74
(lp76
F-26.408545459901688
aF-24.343512011866807
aF-18.483357305719608
aF-17.94537536928209
aF-20.348351339712863
aF-30.297220370238591
aF-21.366958159000987
aF-0.96228310817781448
aF-21.069726533116523
aF-18.690283156177387
aF-20.225118143303021
aF-20.25119527004486
aF-24.495421388261633
asI75
(lp77
F-25.799459284771871
aF-28.505588304343661
aF-13.53334365124698
aF-30.729759269117636
aF-25.248492173426698
aF-17.108951445880905
aF-19.531639273915516
aF-18.802098385543005
aF-19.720830941133059
aF-22.309214508790561
aF-23.434330268020233
asI76
(lp78
F-10.716283490163875
aF-21.452395466273373
aF-24.633802878439425
aF-21.794027797482926
aF-35.043433882414405
aF-16.423134515848261
aF-19.950127545537953
aF-22.940577097160045
aF-18.904677037577457
asI77
(lp79
F-18.701175246734607
aF-20.387474646176287
aF-22.941256758870011
aF-20.024913469614916
aF-22.190308223645957
aF-26.884744392818419
aF-23.854827088887788
aF-24.173855880448173
aF-21.154507128698953
aF-27.074638264242566
aF-43.73614156586342
aF-20.517132510695788
aF-23.32977829213587
aF-27.724531806686031
asI78
(lp80
F-19.35238706072046
aF-7.2363695297792532
aF-19.994423254884325
aF-23.816470239003053
aF-21.937540386422341
aF7.7252546226452807
aF-18.49890913600899
aF-25.56745396496845
aF-21.216569775528939
aF-27.484360742406054
aF-33.575554750078723
aF-20.69841818903474
aF-24.917675955429488
aF0.0071125200878441319
aF-5.5844365662321422
asI79
(lp81
F-13.394334028370366
aF-3.033136985517757
aF-19.620455351795428
aF-19.156170449077621
aF-21.373613408334108
aF-22.09125206606889
aF-18.63829930824852
aF-25.93238783457636
aF-20.464076512409861
aF-32.584441770172191
aF-19.940213672596457
aF-18.882955596566518
aF-22.012793936403128
aF-22.460180832644625
aF-27.826376544643779
aF-24.011855036959673
aF-24.916348845988949
asI80
(lp82
F-22.470224205932283
aF-25.389599427150699
aF-18.980661967670414
aF-19.849063417815699
aF-12.079902284691428
aF-19.576327853311213
aF-20.981005415748655
aF-20.623856263693057
aF-22.414869934191401
aF-19.086638012011349
aF-24.550525125325663
aF-19.746952891333009
aF-27.104746118690031
aF-20.573564949744252
aF-21.712098023337987
aF-36.475020823450478
aF-15.45517238292129
aF-29.108354845611288
aF-27.843958319841065
aF-9.4883795027205338
aF-21.209681429749466
asI81
(lp83
F-21.89925502637864
aF-18.839625415618798
aF8.7254054933656278
aF-20.433745072973892
aF-26.215175863200955
aF-19.790353525250566
aF-17.256040433948385
aF-31.772818023113842
aF-13.48720414245571
aF-1.79231614186493
asI82
(lp84
F-21.981157074715753
aF-18.046853827002678
aF-14.843240835198429
aF-25.202700371248724
aF-19.209242435111776
aF-20.252272256152622
aF-19.116490633577982
aF-20.567354679416297
aF-22.370916731714729
aF-13.35870111724509
aF-19.039181484061857
aF-23.564157473770791
aF-23.130674889307642
aF-25.156453924470185
aF-20.541367926030006
aF-32.777521614074161
aF-16.039314062277128
aF-16.441255801128847
aF-35.021818963915962
asI83
(lp85
F-35.703830918343414
aF-21.023392870992708
aF-25.541695141856579
aF-20.367053806677944
aF-20.427386455476039
aF-25.992615839032851
aF-20.363803823383591
aF-26.388918186568503
asI84
(lp86
F-31.412910410162709
aF-18.861269744007274
aF-22.387029654082568
aF-19.044227648876443
aF-19.402076104284561
aF-21.457948591502173
aF-21.873450455442992
aF-31.206158349914872
asI85
(lp87
F-17.435038208875369
aF2.8916604660246321
aF3.7939705684565013
aF-17.255522463231088
aF-19.246042187121162
aF-18.289013018019858
aF-19.886364842018381
aF-20.878630007793291
aF-18.789438238459013
aF-20.265007539174036
aF-3.6748957615419613
aF-7.5275271922107549
asI86
(lp88
F-21.727571461181981
aF-28.735218730090267
aF-18.415469088838364
aF-15.617061149128205
aF-26.686131850722404
aF-24.805805754210951
aF-27.38558070801929
aF-16.460748106491366
aF-18.64631246071086
aF-12.342026713928874
aF-16.278669401967107
aF-22.511036629661078
aF-16.1980458639853
aF-21.82908424603923
aF-23.89145453878605
aF-22.301643818026918
asI87
(lp89
F-27.524746066135833
aF-28.113433191289232
aF6.3432928741067229
aF-22.203455334474341
aF-22.241748086721259
aF-2.529901526984375
asI88
(lp90
F-3.9956872365062566
aF-28.582274873942353
aF-13.21720706281981
aF-31.820221845650593
aF-9.3178147862169425
aF-18.495999421012883
aF-22.690303567822212
aF-17.559499880066028
aF-20.004737607018072
aF-15.28841876343914
aF-20.762276118940349
aF-13.258629480897483
aF-17.587820905165046
aF-23.9583926366181
asI89
(lp91
F-15.394217347320932
aF-18.455100014100822
aF-24.037182597927213
aF-25.150296875202145
aF-21.57599942168855
aF-24.579187683918803
aF-16.9314884357658
asI90
(lp92
F-20.732248283748959
aF-15.652486832433766
aF-22.769900916154285
aF-28.13503309275589
aF-22.162563910013333
aF-23.369550859948319
aF-20.007662103761049
asI91
(lp93
F-18.895398798558659
aF-19.432507603880595
aF-11.024306753475031
aF-25.507521952545801
aF-20.827649086829979
aF-15.281560984808323
aF-18.225851669593297
aF-33.395160466449241
aF-16.517912465294543
asI92
(lp94
F-13.997614267404686
aF-18.525873252572097
aF-21.036288405479127
aF7.3104502871501467
aF-30.082822976851318
aF-18.433115755322532
aF-28.323212199193406
aF-20.290415402978795
aF-21.345105329241107
aF-23.752923118743396
asI93
(lp95
F-18.427363251833981
aF-18.953661854930061
aF-4.876800405989556
aF-20.098133037661711
aF-20.445513998139432
aF-25.007190311793337
aF-11.306097136523476
aF-24.801770174183105
aF-19.074775728037878
aF-24.197247359462864
asI94
(lp96
F-9.8468935866446259
aF-23.445979699406621
aF-3.7888640796839468
aF-23.484969767292
aF-18.883749476586161
aF-22.769520137227758
aF-19.55244746710224
aF-16.894477013732711
aF-25.960505074164445
aF-24.005142435959584
asI95
(lp97
F-21.954349441442957
aF-23.805276700063018
asI96
(lp98
F-29.084607480354549
aF-21.310222842813118
aF-14.327381441397861
aF-25.403306217077002
aF-17.969177206101918
asI97
(lp99
F-32.032045792683363
aF-10.654930696520154
aF-21.335429009575691
aF-21.658540017085485
aF-21.422864495496555
aF-26.187233643021841
aF-25.894011596977506
aF-19.553097551500727
asI98
(lp100
F-9.6548598048606635
aF-28.34771261318474
aF-26.747110751759436
aF-25.763597473651174
aF-23.451482888447202
aF-22.999963710109142
aF-11.17045899860139
aF-23.473953296165831
aF-18.356379327495716
aF-22.165457620701176
aF-22.048444039912198
aF-27.046658790836659
aF-28.439843855435953
aF-27.244019580462918
aF-23.05868808818235
asI99
(lp101
F-16.635241964085495
aF-19.899579314487141
aF-18.60251311236938
aF-31.942259556827111
aF-17.464812130739958
aF-24.577314698452383
aF-20.185497825896135
aF-21.174421065818649
aF-18.974105443815105
aF-24.283380166424337
aF-21.579827187297951
aF-18.867543547168225
aF-20.240243256014651
aF-28.681619963803016
asI100
(lp102
F-18.911384541962065
aF-24.704905365311703
aF-9.2733314374596603
aF-33.726894488794258
aF2.537072063930367
aF-20.054069320736403
aF-23.55016355256268
aF-17.563106395475586
aF-21.695354166376831
aF-21.913726740832658
asI101
(lp103
F-15.271698177603071
aF-34.103182794828172
aF-1.0455754142998472
aF-24.886086725054554
aF-26.967988150693941
aF-19.156989954111936
aF-23.271538487535594
aF-14.497073458974938
asI102
(lp104
F-22.410487665012113
aF-37.386673248510306
aF-20.374459639006716
aF-22.781019632439467
asI103
(lp105
F-22.940634322800491
aF-6.5935062428845725
aF-21.703908773246894
aF-20.413851170997617
aF-20.906385468471314
aF-21.686827065234354
aF-9.7609958386945976
aF-27.658742771015341
aF-18.492528349363241
aF-15.844685037587325
aF-19.264217116409526
aF-20.211603628750694
asI104
(lp106
F-23.507541981250142
aF-25.848834430766829
aF-20.138165147435416
aF-17.59637985994425
aF-21.41715185683104
aF-17.453887158683045
asI105
(lp107
F-20.275158582568622
aF-19.015389270700368
aF-31.719384354649421
aF-24.960610648205957
aF-26.924569839864802
aF-21.231858182188859
aF-18.445125676858027
aF-18.558754357110047
asI106
(lp108
F-21.64355188095756
aF-11.057063690237982
aF-23.103482397104685
aF-28.526357655227699
aF-30.189348413150839
aF-15.376743824019314
asI107
(lp109
F-20.944105158732754
aF-20.907321333666786
aF-26.686320493265214
aF-20.5833257209826
aF-20.281482079113999
aF-24.343146797800273
aF-15.414224361368099
aF-10.845713381262698
asI108
(lp110
F-18.777663327325286
aF-21.915448858296614
aF-24.315183454785569
aF-28.120248708433309
aF-2.1749762376428663
aF-28.320453393269872
aF-16.173919881725794
aF-23.358727895794061
asI109
(lp111
F-12.969878194151164
aF-22.370776862148475
aF-39.770833523373341
aF-21.333367583793702
aF-20.015457362889464
asI110
(lp112
F-20.501915375066687
aF-19.341707147162424
aF-27.153125036018153
aF-37.755632770810067
aF-23.646339690277969
aF-16.001407295231616
asI111
(lp113
F-14.838091336973861
aF-21.912099844223661
aF-32.820732493392725
asI112
(lp114
F-18.788036510401923
aF-4.0001276056829909
asI113
(lp115
F-30.882834490230678
aF-33.362516879113883
asI114
(lp116
F-21.694017794915027
asI115
(lp117
F-22.540577691234816
aF-18.504399933724727
aF-16.034200706334545
aF-19.512091587645983
aF-20.442664911708334
aF-8.9692304430367926
aF-25.361252571671443
aF-21.224141850967129
aF-29.486887943123634
aF-13.477391728401301
asI116
(lp118
F-18.656989124868872
aF-29.668300889292269
asI117
(lp119
F-8.8810926711992693
aF0.098551743065002029
asI118
(lp120
F-20.199356687364485
aF-27.219708772659317
asI119
(lp121
F-11.245257357305917
aF-33.292839060736043
asI120
(lp122
F-17.9876930221197
aF-17.523048955831513
aF-32.040298183384692
aF-15.336065911759306
aF-21.810683791127261
aF-9.3044521753406286
aF-19.641703693146525
aF-18.31829903117935
aF-28.091898466008359
asI121
(lp123
F-27.69080764777479
aF-30.950777156441291
aF-27.656977985638804
aF-24.718608083646743
aF-18.577260843853793
aF-13.321972065838395
aF-22.077470408404935
aF-21.496402198537595
aF-8.0347496209981415
aF-20.266297883638799
aF-25.925434242816664
aF-24.394587137482745
aF-21.728213523614656
asI122
(lp124
F-28.405099133172556
aF-16.586195539343933
aF-12.066024476613862
aF-24.775318344757892
asI123
(lp125
F-21.468282139230396
aF-24.168048105126928
aF-11.6479421002321
aF-16.648425818829253
asI124
(lp126
F-33.903109090560591
aF-19.331962084128321
aF-22.521323108759418
aF-22.99455231636928
aF-25.967890797348218
aF-25.051183019160788
aF-18.982628807356519
aF-21.191101072524646
aF-20.260060009590887
aF-20.544699536891244
aF-24.58217567086389
aF-20.246845350076825
aF-14.911529173980313
asI125
(lp127
F-25.835403530787531
aF-22.701304938754475
aF-19.529619710227877
aF-19.676123717594095
aF-22.070168869321606
aF-22.39365904726688
aF-20.73832121324341
aF-18.893811359195581
aF-22.593345734180744
aF-22.933301042810797
aF-11.562768432762766
asI126
(lp128
F-21.064750441020465
aF-29.968085806619982
aF-18.601828212318509
aF-18.177848960562585
aF-18.791887313973135
aF-21.885027059529847
asI127
(lp129
F-22.009635223677279
aF-32.130549450967806
aF-26.571819287992739
aF-22.166171761023634
aF-26.350436368555279
aF-16.036442746477491
aF-22.909196500412776
aF-23.543090519956849
aF-10.618114342533985
aF-20.915136834665589
aF-19.495208846034004
asI128
(lp130
F-17.512459937049726
aF-20.46172174018507
aF-23.894868296651168
aF-9.3179330455463969
aF-11.767572491294445
aF-18.436139750289982
aF-18.297653873901723
aF9.8595557739637911
asI129
(lp131
F-17.4928534551523
aF-8.6122307006046697
aF-23.700060313773804
aF-21.956952762790706
aF-19.986373815672721
asI130
(lp132
F-25.368167848259048
aF-43.197806247484834
aF-13.497890918903238
aF-20.972632673724604
aF-20.699138413106724
asI132
(lp133
F-23.011433181655832
aF-10.306476099060191
aF-20.775087939070886
aF-18.427321492127376
aF-41.295868059162856
aF-20.192198853272302
aF-22.126259532052131
aF-15.374943698265099
aF-23.064164161706728
aF-18.208738669709888
aF-18.961199932438561
aF-18.736100861985392
asI133
(lp134
F-19.123110401126112
aF-17.578637783688379
aF-22.983191184046916
aF-22.342002366927147
aF-19.42162873803764
aF-15.787300425930752
aF-14.701559564054833
asI134
(lp135
F-15.781738729186927
aF-20.074884059717036
aF-20.277812170587339
aF-12.763833056962966
aF-8.177263980730757
aF-13.906706895480781
aF-18.636114730292462
asI135
(lp136
F-25.429491157939054
aF-22.933890522648184
aF-20.556379558463505
aF-24.253194131366371
aF-15.996224755931024
asI136
(lp137
F-19.709855427588678
aF-12.102713754373056
aF-43.399172412138867
aF-14.354239821715566
aF-20.810473467060945
aF-18.982092066272756
asI137
(lp138
F-24.758215171988752
aF-22.791230335411385
aF-24.682371754822597
aF-29.278150443248364
aF-25.961881915850938
aF-19.158393140481905
aF-28.962721632514786
aF-26.681484026442661
aF-19.979093093295234
aF-25.043811268309426
aF-10.16054687532349
asI138
(lp139
F-15.61877277447266
aF-20.054157151707301
aF-9.5562325426787567
aF-20.324167294994723
aF-23.707397755461784
aF-15.30983511763209
aF-13.039831683400848
aF-23.555215052813224
aF-23.981739492355516
asI139
(lp140
F-10.486763150210152
aF-26.338076182703446
aF-33.954933486030171
aF-23.989853616573697
aF-14.334627178873319
asI140
(lp141
F-25.806331059355841
aF-11.74775376469529
aF-40.170359803099274
aF-25.474570235848745
aF-19.129825347937526
asI141
(lp142
F-21.728672348308805
aF-18.630800151830243
aF-18.980745509734604
aF-11.634387466307047
aF-10.499268499184325
aF-22.618453895477472
aF-10.390497367069401
aF-19.419460626411592
aF-21.610786820644307
aF-31.939242883857034
aF-19.956918643227553
aF-25.889308373547934
asI142
(lp143
F-20.281520626753291
aF-10.17720009804863
aF-16.73206474083554
aF-37.965753143982624
aF-21.383101805678933
aF-29.471402520645199
aF-21.733779636475191
asI143
(lp144
F-20.409522408544248
aF-22.936762980229119
aF-20.388130459668872
aF-18.474521952067931
aF-14.794759861026577
aF-24.988469152013849
aF-35.723098194598734
aF-15.466469310509808
aF-20.598647190829936
asI144
(lp145
F-19.436941829930475
aF-22.772383341524801
aF-23.872616892441641
aF-24.59588841892392
aF-10.57948258340933
aF-7.3492039015752653
aF-21.090257145782857
aF-19.295738816424148
aF-13.615976800771733
aF-10.452124017565708
aF-21.821430085360305
aF-15.578164979634934
aF-30.986657400756386
aF-24.402466531981858
asI145
(lp146
F-12.262174875904336
aF-19.139469662712301
aF-25.302044803339825
aF-20.425205764470533
aF-44.417678832885557
aF-24.34254587385044
aF-17.06519951456454
asI146
(lp147
F-18.451876724145308
aF-1.1711893773253905
aF-29.922726463052115
asI147
(lp148
F-19.69264166103207
aF-25.180300010825405
aF-17.277610974399622
aF-21.438952094958779
aF-19.600595295207398
aF2.7113185129443593
aF-9.027483462611599
aF-30.974655291749855
aF-20.23365436289005
aF-30.431165541605338
asI148
(lp149
F-25.698154426360276
aF-19.871278548309846
aF-20.518226552725338
aF-23.008036972413876
aF-19.767571714373034
aF-13.442785965325299
aF-19.902227025031223
aF-20.461604363257635
aF-19.487162581333067
aF-33.791326344242918
aF-21.701357208949162
asI149
(lp150
F-23.286263167706792
aF-13.712481775923123
aF-12.052700199844026
aF-19.199973995974489
aF-22.664558810384733
aF-29.301052912268233
aF-23.319404519685563
aF-47.412551132382589
aF-27.131697231075037
asI150
(lp151
F-27.350777234405115
aF-11.364572826359094
aF-20.951146821072854
aF-15.588317445081529
asI151
(lp152
F-20.514447499376701
aF-27.979183137234884
aF-15.038795195747838
aF-0.80218391651368393
aF-20.09318412729499
aF-19.235499262074711
aF-22.159819861521143
aF-17.144770155252615
aF-27.2675794908195
aF-18.302996283355341
aF-22.462846724997689
aF-17.383068487306787
asI152
(lp153
F-22.029712306171888
aF-22.312477994446496
aF-18.609596598270912
aF-18.375488032069512
aF-25.514943527346702
aF-23.684546932282871
aF-9.7011310322681084
aF-19.234493774917979
aF-20.752492347446648
aF-20.447129072678337
aF-19.657547156010082
aF-28.117821833207302
aF-19.022138735604344
aF-34.861052036725908
asI153
(lp154
F-21.331388240941124
aF-29.83879907117992
aF-16.458124362573216
aF-21.944127886547676
aF-22.660473170488132
aF7.3197577721139879
aF-32.37538480318473
aF-23.016074276927981
aF-26.83937474619465
asI154
(lp155
F-24.998077055233495
aF-32.367073161732563
aF-21.21711333997041
aF-27.749454375855962
aF-21.7384979829028
aF-24.688689281368127
aF-14.840852220505653
aF-8.382158264501129
aF-16.040699583157959
aF-18.309680938146556
aF-18.494782924734636
aF-30.895172426197632
aF-19.843611030207327
asI155
(lp156
F-34.711893071246237
aF-27.279671508077371
aF-19.135381802542383
aF-16.164757607155224
aF-21.797888766789157
aF-19.829158065392477
aF-20.016779511036788
aF-13.675566103180799
aF-19.954454069764566
aF-18.267985764473082
asI156
(lp157
F-34.184567498058868
aF-27.079423044994542
aF-19.049128370544977
aF-16.276651426183918
aF-21.715883515228796
aF-19.872621056141497
aF-20.060826214145706
aF-13.55694391792025
aF-19.855458170532756
asI157
(lp158
F-21.504565287886948
aF-19.368636439375763
aF-22.455728661450365
aF-12.619401082468357
aF-19.592562614206003
asI158
(lp159
F-26.255236753244759
aF-11.145977017597403
aF-23.855201272395206
aF-10.156138719165938
aF-10.865644433186404
aF-21.95449703747893
aF-22.874801670205329
aF-22.678360807929138
asI159
(lp160
F-25.464326594671803
aF-25.518260234375987
aF-25.583236367428611
aF-28.388541776431381
aF-15.610769629775334
aF-20.209868562318775
aF9.8372891560627238
aF-10.330247178561947
aF-22.425835655812563
aF-20.010506764046013
aF7.381187047315521
aF-32.598585605536414
asI160
(lp161
F-37.985148584637258
aF-23.871268940534534
aF-21.738570973791198
aF-20.826216845101612
aF-26.533424932533521
aF-18.535591081066315
aF-6.4114269732418165
aF-12.030843808752309
aF-18.425250564219198
aF-20.119925130525502
aF-20.092565842137276
aF-21.935149226482167
aF-29.707125064770295
asI161
(lp162
F-18.877013832212299
aF-20.917089162465032
aF-20.635054744392676
aF-19.94927912574596
aF-3.6507374698570771
aF-19.75838871564936
aF-19.315117923912837
aF-25.986234828730502
aF-24.580162962062133
aF-14.883190157069265
aF-19.07535740268699
asI162
(lp163
F-24.722459138364997
aF-33.560901859725107
aF-9.7336820288233525
aF-23.529222685298194
aF-25.414409216258463
aF-19.493285582115476
aF-17.109173440097123
aF-20.439826046314877
aF-19.10673765422959
aF-19.591180439409669
asI163
(lp164
F-25.563769457508499
aF-19.572860832558675
aF-27.161720930707673
aF-23.002978879985321
aF-20.728141655708228
asI164
(lp165
F-19.850019828433219
aF-19.173744585184892
aF-18.281164523452361
aF-35.752223441452188
aF-11.601724944571359
aF-18.073473805915569
aF-6.9409369874980484
aF-23.76156338609502
aF-21.478736543226859
aF-13.433901907040365
asI165
(lp166
F-22.351237148748055
aF-19.74006297854946
aF-21.154148442311026
aF-30.608029340245352
aF-23.431969133817645
aF-19.157326030277645
aF-34.592077553230538
aF-24.889887692306957
aF-24.781735631190315
aF-15.738608349617877
aF-21.349357940497327
aF-23.759998010279219
aF-19.916461404763226
aF-22.241459929305847
aF-16.136443651804939
asI166
(lp167
F-25.529797682946821
aF-9.4676780984819402
aF-20.054992484657021
aF-25.10322887978019
aF-20.216184996930252
aF-24.366480441100435
aF-26.361367222543095
aF-24.883749349619464
aF-21.420979797996068
aF-18.479200628191364
asI167
(lp168
F-26.18014764829158
aF-9.5342182520690812
aF-20.802599036837123
aF-23.890535628975726
aF-19.499027141382982
aF-25.463056369162047
aF-27.069614755508553
aF-24.658926650394875
aF-22.086345929192248
aF-19.000151614922601
asI168
(lp169
F-22.633082260230069
aF-19.225707997447699
aF-18.128567202736079
aF-22.985912365304699
aF-20.786871490757704
asI169
(lp170
F-19.981026952884463
aF-13.401760553802632
aF-24.702013260486623
aF-18.817879673883738
aF-21.566412903983803
aF-2.4294512496289258
aF-25.809643739242958
aF-29.016436371537793
aF-18.337137971214574
aF-20.936391793197586
aF-20.314600044048206
aF-18.638164760631909
aF-15.34009161495112
asI170
(lp171
F-22.205272173697736
aF-23.125651566270903
aF-10.102475224863952
aF-18.516350465411534
aF-26.024808722174015
aF-18.594351040532658
aF-23.771106961701904
aF-48.70088275657082
aF-19.465485614367083
aF-22.110368605355518
aF-21.561940306079748
aF-29.216360714233318
aF-21.16736267727785
aF-25.260227669882283
asI171
(lp172
F-20.069189227102854
aF-21.912069108829812
aF-15.78260252668224
aF-20.255650331033223
aF-22.539193304732422
aF-26.287832914437615
aF-22.10652684701472
aF-30.501092597752248
aF-21.364407620161316
aF-36.979626859053283
aF-20.79044128255677
aF-18.443864539590294
aF-19.727030804578163
aF-29.074001526036369
aF-25.029677533452315
aF-22.118864786797815
aF-16.952259030922434
asI172
(lp173
F-11.273927264428366
aF-15.56843130166807
aF-19.108824838075364
aF-25.606670023883936
aF-22.863291925346914
aF-15.002787535107458
aF-25.148125825905694
asI173
(lp174
F-17.511392627946449
aF-25.925491979051685
aF-20.976269968307037
aF-12.860275246868312
aF-26.642202547104418
aF-20.447799433423654
aF-37.000184721935938
aF-28.895585319657883
aF-19.531083765060899
aF-16.521378254083288
aF-21.978651299903731
aF-18.026578008375822
aF-17.230884408003462
asI174
(lp175
F-21.117649444814958
aF-23.74648046815571
aF-16.567552544783879
aF-19.6070105430165
aF-19.169797544587226
aF-16.927858710923289
aF-9.0140577021632282
aF-20.726114877818659
aF-20.892914140795682
aF-23.155020136460195
aF-18.784231868299486
aF-23.314552126206664
aF-15.576397026479341
asI175
(lp176
F-19.576462101095828
aF-22.606122308840625
aF-17.224430029813121
aF-26.75358010213202
aF-22.387298562621282
aF-29.707863536896312
aF-26.841881107428691
aF-18.951024073003424
aF-19.271764683107847
asI176
(lp177
F-11.010148536865103
aF-17.886522092963304
aF-22.558252343458349
aF-20.838967302528985
aF-19.447611898389496
aF-28.489905542957899
aF-19.266951716884051
aF-23.322693730409611
asI177
(lp178
F-19.015664265309539
aF-21.051948402003063
aF-20.504580615688425
aF-18.600221052766429
aF-20.510411438457993
aF-20.520641184035469
aF-26.305956670647234
aF-16.532048784192369
aF-20.100437033573087
aF-20.511841395032803
aF-27.786291712804896
aF-19.568186848947235
aF-27.039939029789565
asI178
(lp179
F-6.9254731258854889
aF-19.589939592366022
aF-21.497497327136387
aF1.8577111284967316
aF-21.00037281046383
aF-15.520699415681193
aF-23.181983325856052
aF-14.074369363278834
aF-33.710707960867452
asI179
(lp180
F-31.363297052477833
aF-19.350403233055872
aF0.62234019921476147
aF-25.138959079872734
aF-26.968984193477127
aF-26.806025919129681
asI180
(lp181
F-31.678240599618022
aF-16.001120371961576
aF-27.146850179361522
aF-20.20747675466788
aF-19.125482483968568
aF-23.655558062681038
aF-8.5229633503466289
aF-24.054446873774666
aF-22.609439358972736
aF-23.053643330233186
aF-23.506560812195119
aF-30.707977323504039
aF-22.675137514301014
aF-30.242484373321332
asI181
(lp182
F-18.810398561454122
aF-23.034908436290493
aF-20.80917695500024
aF-21.472568865134349
aF-33.311956675545588
aF-23.448340841156778
aF-21.638454572278818
asI182
(lp183
F-30.409067816609024
aF-22.524927207809469
aF-30.223767185822524
aF-15.33851021613863
aF-22.070926780289653
aF1.0453241904421731
aF-19.201055329688273
aF-5.1573976725039614
aF-29.586848007224688
aF-13.927730135949076
aF-22.512687937508503
asI183
(lp184
F-20.758363770340537
aF-18.521946456961629
aF-20.434796769895769
aF-20.177958236661553
aF-27.975493980837854
aF-21.539439031634103
aF-19.062093272765225
asI184
(lp185
F-20.822996822916039
aF-26.589803499820945
aF-23.68006357212569
aF-9.3379258413547745
aF-24.180908917241538
aF-1.7611925571249571
aF-20.888323698197254
aF-23.040483402876902
aF-22.04134655746816
asI185
(lp186
F-26.990963168211636
aF-23.36271407962505
aF-21.227776940308942
aF-21.281708054625625
asI186
(lp187
F-23.721840050146128
aF-19.374620636894022
aF-35.153330949218656
aF-18.176859689578123
aF-20.82187653978724
aF-23.043868043629956
aF-3.613013957536694
aF-20.45921663120464
aF-0.72821317075793957
aF-23.489375750827094
aF-18.663164923441187
aF-23.255923356018684
asI187
(lp188
F-31.679654375935655
aF-11.839697275013577
aF-28.833815091430779
aF-37.075694535397858
aF-8.9238325775840508
aF-18.96552612388416
aF-20.313193345115764
aF-18.313863925941774
aF-22.329214113929766
aF-21.941319876628242
aF-18.955678218376377
aF-25.479692582391749
asI188
(lp189
F-25.213017571046379
aF-29.393416167179041
aF-21.178581560548395
aF-36.568114896615498
aF-19.318384829846849
aF2.5283197100069685
aF-23.032036355556187
aF-2.3195523915152307
aF-20.021682240607547
aF-22.003636454364013
aF-18.669799874124692
aF-17.552768353865801
asI189
(lp190
F-21.120965168274836
aF-22.888637207880478
aF-25.125765386725206
aF-20.957554014455482
aF-32.054354993187417
aF-20.395740966434801
aF-20.65179870185554
aF-22.298607192645449
aF-18.65541902989608
asI190
(lp191
F-23.900435448050061
aF-18.632442739248219
aF-17.822735076105488
aF-19.387887204634552
aF-17.865250319010414
aF-21.199024201228241
asI191
(lp192
F-19.343609399338675
aF-45.647089632828326
aF-20.286622792763609
aF-21.181564351092476
aF-24.872229280138242
asI192
(lp193
F-29.138977144354953
aF-22.254347425809385
asI193
(lp194
F-17.523515108493626
aF-19.383503603430597
aF-23.614824118296326
aF-17.79347269335662
aF-19.202689854218463
aF-26.08836219674275
aF-17.887398312675927
aF-23.467145223077083
aF-21.077393528576437
aF-15.91193776627432
aF-19.309635819953016
asI194
(lp195
F-19.740387592229922
aF-19.282272453626703
aF-14.276446972933812
aF-27.916786396418559
aF1.2766138069079744
aF-23.751673300965976
aF-17.17771393993344
aF-24.810042819597172
aF-22.968431960718533
asI195
(lp196
F-20.892322965444677
aF-20.687306236920463
aF-20.7723793439107
aF-26.503606311444173
aF-16.260808039533913
aF-0.77536959097164981
aF-38.684967309607529
aF-27.027218587825743
asI196
(lp197
F-18.799197164318315
aF-16.807428427660227
aF-24.468182075255811
aF-21.841192668125956
aF-19.26819320333442
aF-23.360783882212317
aF-23.040678361590722
aF-24.783252743921366
asI197
(lp198
F-26.067940595339905
aF-20.910539551382271
aF-22.862760567691353
aF-30.261721135663393
aF-29.724513375517077
aF-33.871051291705569
aF-4.4328332820644931
asI198
(lp199
F-20.894229701760892
aF-22.854140704410383
asI199
(lp200
F-19.542980753856199
aF-21.953105648151052
aF-23.295393228608333
aF-20.272269079389503
aF-20.800524557461557
aF-18.462738544058169
aF-17.844519539890385
aF-25.550335886992869
aF-36.991683624792699
aF-21.154462074559959
asI200
(lp201
F-15.352861828854699
aF-31.481488370319184
aF-29.861829239342939
asI201
(lp202
F-13.790528036812589
aF-30.277293678843094
aF-24.836091689556781
asI202
(lp203
F-27.723739331749613
aF-21.887932533942944
aF-21.767413732639099
aF-29.158252601326993
aF-26.186550747425386
aF-36.360004437361198
aF-4.4134513109348745
asI203
(lp204
F-21.038202829340335
aF-23.586599243950275
aF-19.24778229323519
aF-0.58035660487752239
aF-19.538355875342546
aF-18.427873632932418
aF-21.645296649505212
aF-31.672093265182596
asI204
(lp205
F-31.717499548610206
aF-23.344391069638959
aF-23.018149496883723
aF-0.99352488005706618
aF-35.232091202058569
aF-32.557494487878088
asI205
(lp206
F-15.45238131002165
aF-36.355280395907656
aF-27.050934833568647
aF-18.493177410510441
aF-17.587946098110621
aF-4.4978812312082539
aF-19.935664372848549
aF-18.596259524867165
aF-24.542605337516349
aF-1.7691088333838394
asI206
(lp207
F-23.894003062669483
aF-37.22965944175364
aF-22.079386933302231
aF-15.344990146044523
aF-25.87012704837619
asI207
(lp208
F-34.543531603725029
asI208
(lp209
F-17.251377633570812
aF-25.72114983610895
aF-43.216608657243754
aF-16.644782319132034
aF-6.1794902588648029
aF-24.92077832829122
aF-16.090292445746144
aF-18.538610993158628
aF-22.219729057231788
aF-20.540228608497046
asI209
(lp210
F-21.904660389314984
aF-19.612927547770767
aF-19.250221030875878
aF-43.793803690436064
aF-7.8151584111948864
aF4.2781497181175041
aF-4.0245266641282598
asI210
(lp211
F-23.112752102302977
aF-21.772797606684648
aF-25.295508160752121
aF-17.735113554996019
aF-20.56164178456379
aF6.7868294691278521
aF-1.6110827734584348
aF-19.610765794090483
asI211
(lp212
F-19.95472317691582
aF-20.517958234467727
aF-42.305837334324224
aF-16.064349836724503
aF-18.488668008776585
asI212
(lp213
F-21.926190216382054
aF-3.7959216216618472
aF-32.540155090120081
aF-31.057181587923225
asI213
(lp214
F-20.951533415334353
aF-19.602027417737361
aF-17.884778539171165
aF-15.075066945564316
asI214
(lp215
F-19.294875083839088
aF-1.349700666049614
aF-26.053156394177577
aF-43.088751280947193
asI215
(lp216
F-21.492919445223464
aF-13.321921361800619
aF-6.4134853312272071
aF-15.714276281141395
aF-18.429802908230045
aF-22.401468177674985
asI216
(lp217
F-22.436857254448583
aF-28.390905152281533
aF-13.957859084334046
aF-20.590083030844568
aF-21.551192383761048
aF-17.036290877935357
aF-22.969491991833408
aF-18.380238926475855
aF-26.403042426565705
aF-19.36210326559268
asI217
(lp218
F-35.795696524721194
aF-24.784814199184723
aF-14.798246540551588
aF-25.683140186981575
aF-13.83978759470611
aF-20.855406137053322
aF-16.350018353976623
aF-13.905146017905707
aF-24.670617800670897
aF-31.865234230432421
asI218
(lp219
F-28.774100178480367
aF-33.166326337116104
aF-18.021102218719207
aF-11.063843072067243
aF-31.238467783524641
aF-17.745731037258437
aF-19.537980918382445
aF-19.040996894098669
aF-20.951033586483007
aF-13.642416602081283
aF-17.163131430095433
aF-20.374346967539225
aF-23.476938487272236
asI219
(lp220
F-27.4431078439423
aF-34.752072388794573
aF-18.702715858310768
aF-10.528814095346277
aF-30.907406557759387
aF-18.521518561712313
aF-19.533703760394786
aF-18.665592560780553
aF-21.321990114249715
aF-17.792138132236204
aF-19.857971770382662
aF-22.665167758972842
asI220
(lp221
F-20.007520080020925
aF-25.256942872056058
aF-16.960701015248048
aF-29.837676342002695
aF-22.736414450492134
aF-26.51398588566633
aF-19.746591858901638
aF-22.5596646932471
aF-18.373775845205245
aF-22.173562302038434
asI221
(lp222
F-19.451668602439838
aF-22.991664318271745
aF-26.49027722128767
aF-18.555581845149277
aF-21.069274015050198
aF-16.980971300340826
aF-24.919678840805247
aF-21.23364080375606
aF-19.657861249814374
aF-13.397837676164244
aF-19.140356615726404
aF-19.59990529495623
aF-17.14880153939626
asI222
(lp223
F-19.972253985880059
aF-23.982528139240443
aF-15.027905495471259
aF-23.238319710518653
aF-24.875007731627406
aF-32.658776556844686
aF-20.140142683643603
aF-27.552383616404228
aF-20.737721745801267
aF-21.066340323819787
aF-18.498966055876224
aF-20.3798026756605
aF-17.433813647639383
asI223
(lp224
F-19.105839594326028
aF-15.75836622921446
aF-25.114846466482916
aF-24.810085073926274
aF-24.0176364422951
aF-20.872962256889309
aF-24.171520108293379
aF-22.023490992318045
aF-14.423925926611631
aF-19.031645777813139
asI224
(lp225
F-18.680307311429686
aF-25.079923082062848
aF-21.542362173222202
aF-28.265914138061618
aF-20.87067149746585
asI225
(lp226
F-19.528876606474398
aF-17.945775133258479
aF-15.171635291228739
aF-9.4827391750188497
aF-23.603470249286204
aF-32.940981513214396
aF-18.690173986749869
aF-25.253748678638772
aF-19.059126298338839
aF-19.236290629263976
asI226
(lp227
F-18.838252531380107
aF-40.440677590326061
aF-4.855373702399703
asI227
(lp228
F-20.842516066779822
aF-24.236514083445712
aF-23.058667418111128
aF-22.013365125088853
asI228
(lp229
F-20.831895171501372
aF-18.352727086245551
aF-16.456145218061266
aF-17.940505267550293
aF-19.987090762750398
aF-32.329087596066216
aF-27.933571456611105
aF-32.646584528438837
aF-22.507300013328816
aF-27.947119416010622
aF-21.642933384667003
aF-12.994215276834183
asI229
(lp230
F-22.243749108636649
aF-12.127127256458976
aF-14.925653981982762
asI230
(lp231
F-21.556959907016108
aF-18.950049618902483
aF-18.292985993227049
aF-20.868595194558935
aF-29.379798942708931
aF-26.464445485724411
asI231
(lp232
F-22.140896132912573
aF-15.46341934038692
aF-19.827313385968552
aF-16.432272482729587
aF-19.601126695045693
aF-28.384620321275207
aF-28.667255634688502
aF-39.221269416092554
aF-22.931371429481828
aF-29.887652371463844
aF-22.147904114523612
aF-19.527221264438822
aF-14.599255127635956
asI232
(lp233
F-19.731309241068956
aF-13.877079015380957
aF-20.105812782058379
aF-19.031306850210484
aF-9.6743166947758965
aF-15.98717552777633
aF-30.451545143918167
aF-31.14608701008089
aF-23.815523623874583
aF-21.059545704306586
asI233
(lp234
F-4.7599543325661386
aF-14.922064218050465
aF-22.766074863805983
aF-6.9973214953319456
aF-23.829157686635497
asI234
(lp235
F-18.467398611308582
aF-18.413436065456068
aF-21.220266895790672
aF-14.398269708751997
aF-20.615453818800347
aF-13.911865717487686
aF-26.988349368075561
aF-22.39823389061138
aF-29.891105972162535
aF-25.40834832897194
asI235
(lp236
F-26.683281781367526
aF-23.073685765724349
aF-21.208877678027932
aF-19.29685472256611
aF-19.898354838912212
aF-26.370530978038175
aF-23.347103511661388
aF-31.461974057461561
aF-19.988399530459731
aF-18.319104966755447
aF-28.596800421317866
aF-20.682033503928892
aF-11.808341905628097
asI236
(lp237
F-19.470502569914217
aF-19.02244835431415
aF-16.636109111421348
aF-20.148578403167917
aF-24.054165738621521
aF-19.15814451928577
aF-31.474787597256295
aF-32.074420169517737
asI237
(lp238
F-4.0669310356214794
aF-19.581694148332758
aF-0.76708653650929648
asI238
(lp239
F-31.874859290874639
aF-13.630312645414278
aF-26.943180028766363
aF-19.788627028593595
aF-19.934991143151706
aF-19.929566300922019
aF-22.566732004521015
asI239
(lp240
F-30.593777661572034
aF-19.637051253024055
aF-16.233401678339106
aF-24.529268199997915
aF-14.38191410193906
aF-7.0109447182222482
aF-19.369754790068527
aF-16.236382196217662
aF-22.544980876717219
aF-24.260718278409314
aF-21.184277747642142
aF-23.725897439512423
aF-19.367847777872598
aF-22.953268626602423
asI240
(lp241
F-20.92322921921162
aF-21.698881183582245
aF-15.620463311593554
aF-11.330569839374704
aF-20.882691128230306
aF-10.005328259311227
aF-10.041073295586216
aF-4.8450742762163941
asI241
(lp242
F-22.890960596214228
aF-46.905956236565203
aF-12.266137058325029
aF-23.397781092481324
aF-23.488061820512712
aF-8.9603760890204285
aF-18.793204871656272
aF-20.823693278209646
aF-16.428656388817913
aF-22.744719278654216
asI242
(lp243
F-2.644871952167648
aF-45.44972123420618
aF-11.457376166401033
asI243
(lp244
F-26.321702284604982
aF-19.204333230008658
aF-26.663850693963909
aF-23.740546724491111
aF-16.629441483728726
aF-21.564473489355976
aF-21.165130874265486
aF-23.426364992161581
asI244
(lp245
F-22.252398645738822
aF-19.153206061884063
asI245
(lp246
F-28.787176896229155
aF-22.512822482781729
aF-19.764712672553415
aF-32.23214471369954
aF-15.096528220840327
aF-23.497702276252298
aF-19.870436415694996
aF-20.759466412663187
asI246
(lp247
F-24.751198308756102
aF-11.989992701874314
aF-19.906305236009516
aF-20.733061561317371
asI247
(lp248
F-20.228432893628849
aF-18.459988070278484
aF-16.330843017106304
aF-25.379170876096424
aF-19.11082578155731
aF-22.253708983473061
aF-14.659580568912773
aF-32.476161773625719
aF-19.694808659362693
aF-10.135529285321795
aF-10.754154984825718
asI248
(lp249
F-13.495963093145491
aF-25.718052850067835
aF-30.588348240881047
aF-13.206295788375172
asI249
(lp250
F-13.970805645679974
aF-22.373877033748158
aF-33.830560318940215
aF-14.309785273426925
asI250
(lp251
F-18.484673273401341
aF-20.18009185777251
aF-21.431771881216818
aF-22.515852419093434
aF-28.382069712088111
aF-13.398149602272127
aF-17.92443378395663
aF-18.582176550189502
aF-19.281396108036148
aF-16.151882378838494
asI251
(lp252
F-19.01223196879414
aF-20.101499728269857
aF-27.194450548166472
aF-7.6580812538660439
aF-12.760907420526323
asI252
(lp253
F-33.482056307256357
aF-16.698292922875041
aF-29.012832072988573
aF-6.7112226302733262
asI253
(lp254
F-22.844740134308822
aF-21.483785912957359
aF-19.862180391202926
aF-19.636862129636569
aF-28.610145864344972
aF-14.514679381715808
aF-25.65996912648059
asI254
(lp255
F-17.428087501252662
aF-10.281053917603984
aF-24.137294953142359
aF-27.011727026095585
asI255
(lp256
F-25.574896529431314
aF-19.689909391842647
aF-39.756079011343076
aF-20.42262156879903
aF-20.946424087969092
asI256
(lp257
F-23.498027361718215
aF-19.881797351158355
aF-23.535553294958277
aF-22.612646251144128
aF-29.296625891695186
aF-18.825364729699601
aF-23.659063007059544
asI257
(lp258
F-30.850453801488356
aF-24.526659962383519
aF-24.61954117146945
aF-9.4983070534974843
aF-16.884594948564128
aF-17.9917041428792
aF-23.511438885599361
aF-21.901181483153735
asI258
(lp259
F-13.783717002889688
aF-21.077879318244413
aF-18.803062211385168
aF-16.509047580085209
aF-28.737225371494034
aF-21.867990450465527
aF-24.420813479275424
asI259
(lp260
F-15.201556595289844
aF-20.795437566571508
aF-17.859528874410302
aF-17.842208623539449
aF-32.09908761604656
aF-10.086364533725543
aF-24.614414922941037
aF-16.104990738296891
asI260
(lp261
F-29.213325070863405
aF-23.566258674771319
aF-19.97806054036019
aF-9.8027849796038424
aF-16.917767379486477
aF-23.828373651575987
aF-22.359214029297334
asI261
(lp262
F-23.841413631311923
aF-24.0897216970247
aF-15.775844105081092
aF-22.269702066802054
aF-38.433540935878696
asI262
(lp263
F-25.158145198263881
aF-28.663619937697604
aF-22.171840512689769
aF-11.812663343973043
aF-23.684760640927493
asI263
(lp264
F-20.604384860483933
aF-18.660832905423334
aF-18.960447457523657
aF-9.4548521361079452
asI264
(lp265
F-20.345185370146751
aF-36.485601350807087
aF-22.080501160133721
aF-24.321501173435493
aF-30.590975520495647
aF-17.821481684444777
asI265
(lp266
F-35.943071245482884
asI266
(lp267
F-25.278115072801256
aF-16.598974433942104
asI267
(lp268
F-21.044520146395087
aF-25.861155228725664
aF-23.445550650168116
aF-7.1065523977893861
aF-21.210123153326293
aF-9.6134952174206489
aF-10.410550787690767
aF-21.234141713287144
aF-8.5136685549942399
asI268
(lp269
F-23.7150234121236
aF-27.933434341776632
aF-23.87846021562595
aF-24.583121198922399
aF-23.609221653724148
aF-18.376338450968461
aF-23.484725314995615
aF-19.521341250089591
asI269
(lp270
F-21.819896770685261
aF-14.298991987682641
aF-29.999482861537601
aF-8.9650989882323131
aF-19.548157839685359
asI270
(lp271
F-19.672111906122268
asI271
(lp272
F-20.220313612458426
aF-27.762086732517687
aF-13.425782571121488
aF-18.386249610617
aF-10.117302946349554
aF-11.078377629079768
aF-20.154551905523675
asI272
(lp273
F-23.952554159529399
asI273
(lp274
F-8.4967200260704487
asI274
(lp275
F-15.9265627799291
aF-26.997754816840839
aF-46.209284057226739
asI275
(lp276
F-27.435462483105397
aF-24.395782178452279
aF-31.040518314545551
aF-30.205351617506054
aF-26.62371236411235
asI276
(lp277
F-40.506767475877311
aF-19.627487760651064
asI277
(lp278
F-21.035787177720337
aF-13.920500832860995
aF-27.877728048420579
asI278
(lp279
F-13.371941561895227
aF-17.011113140724859
aF-22.096018591327251
aF-21.812789741192717
asI279
(lp280
F-21.544461579782308
aF-9.8505189569834783
aF-9.4778841067578554
asI280
(lp281
F-20.145035276509418
aF-25.201806168045593
aF-37.067679904690735
aF-17.404732044439385
aF-38.320748407646562
asI281
(lp282
F-19.452092506882138
aF-20.529778700587173
aF-19.848617522925338
aF-24.434063124277216
aF-20.34918344203497
aF-33.930357756074699
aF-22.872792724285802
aF-21.249157007893402
aF-12.181048301797475
asI282
(lp283
F-27.709613654892266
asI283
(lp284
F-13.335262062674531
aF-17.651528499179364
aF-10.728255882149597
aF-17.679116162183732
aF-34.693392464124415
asI284
(lp285
F-20.860986436890471
aF-19.714994278684159
aF-25.119761586492729
aF-28.76083154398421
aF-19.765317110622377
aF-39.126051436021655
aF-21.76796120029411
asI285
(lp286
F-31.738516652953862
aF-11.843424964569948
asI286
(lp287
F-40.054698553337587
asI287
(lp288
F-26.122100780820816
aF-8.8292163591596733
asI288
(lp289
F-9.4132077556741365
aF-27.257731434459401
asI289
(lp290
F-19.457944453038721
aF-22.85687499639269
aF-34.236683810448071
aF-35.414727947094235
asI290
(lp291
F-19.349301250711164
aF-18.89496990301366
aF-22.428749126866421
aF-28.02525070394276
aF-12.311301782043699
asI291
(lp292
F-20.041916290708016
aF-24.11828400146382
aF-32.222485852484255
aF-33.659279789117861
asI292
(lp293
F-22.629490152251591
aF-18.867791249989722
aF-26.138910063692677
aF-28.755205305479819
asI293
(lp294
F-21.562554041129076
aF-20.298318278832781
aF-20.863826025290408
aF-19.601216776938543
aF-16.141685271098396
aF-25.082280637501754
aF-19.84081842746744
asI294
(lp295
F-20.886966749223348
aF-20.07586972358574
aF-24.996911616727928
aF-33.280942175067963
aF-12.888692522957371
asI295
(lp296
F-27.407140892919486
aF-20.607299242661043
aF-8.3940249982947677
asI296
(lp297
F-22.346594129588439
aF-19.489676533189396
aF-19.426749934997531
aF-21.439325801687872
aF-18.239057631797891
aF-10.17754369939459
aF-20.880645773570109
asI297
(lp298
F-17.703603545833971
aF-29.760493344083287
aF-11.638760035805205
asI298
(lp299
F-23.359240355629282
aF-20.231833236539032
asI299
(lp300
F-21.66258596776791
aF-26.473730643162
aF-23.409353850982797
aF-14.992896495697082
asI300
(lp301
F-24.954815515993189
aF-19.720997632051848
asI301
(lp302
F-31.865189896440498
aF-9.5077287104360835
aF-21.311442537561263
aF-19.13445020318872
aF-22.700861924897509
asI302
(lp303
F-23.249194939505941
aF-16.825187231112977
aF-31.81914023948957
aF-19.440034812799951
aF-6.682967811284243
aF-26.453081454928764
asI303
(lp304
F-19.776670414961615
aF-23.133147598545833
aF-20.781005775203852
asI304
(lp305
F-20.836345742042553
aF-20.390405381897992
aF-30.654824838942815
aF-22.97586242808157
aF-8.8077045918093972
aF-24.704808890956684
asI305
(lp306
F-36.720560711796224
aF-25.728650971516657
asI306
(lp307
F-21.620572666472981
aF-33.202892471457531
aF-28.134895282416494
aF-26.59185720794099
aF-23.022799262781191
aF-21.78656439374052
aF-20.839416767786645
aF-9.781256959060272
aF-16.085901188931715
asI307
(lp308
F-16.678239280034717
aF-47.478732742079472
asI308
(lp309
F-21.420151028722685
aF-14.941449327726559
aF-21.219246867106492
aF-31.112511012859372
aF-17.13886031870436
aF-10.989431298905004
aF-19.322704379141996
asI309
(lp310
F-20.137390471909569
aF-35.781746545798143
asI310
(lp311
F-23.74693306334845
aF-20.987680774404652
aF-27.088969381276371
aF-22.020817086418049
aF-22.858233567525957
aF-46.722221934448982
aF-19.864891596230422
aF-20.146715934154514
aF-26.780835550395878
aF-15.589693086642853
asI311
(lp312
F-23.374214469178128
aF-20.894340539370688
aF-26.69496650956404
aF-22.023051369703097
aF-22.759034494999568
aF-47.906486112340303
aF-19.942662509356154
aF-20.181270333352501
aF-27.228261731195374
aF-15.896129491893078
asI312
(lp313
F-23.502437976579643
aF-20.560780811636647
aF-26.24148849810787
aF-21.60489040874134
aF-23.231649379897448
aF-42.50169634769739
aF-19.615417201383138
aF-20.527367616210199
aF-26.675163657330714
aF-16.275076451625068
asI313
(lp314
F-18.309574541431886
aF-27.037851900350859
aF-30.171123732824853
aF-19.733687993469573
aF-9.3565071014427872
asI314
(lp315
F-19.460445595147021
aF-25.874308362313229
aF-25.411458988255589
aF-32.316067573544075
aF-26.00933855177658
aF-27.77934450705331
aF-28.279659643488586
aF-10.687424512547892
aF-9.7370761285994831
asI315
(lp316
F-20.713682571302741
aF-23.763312585876761
aF-26.818457335531292
aF-26.974042926393395
aF-19.097142854911795
aF-30.359249093266826
aF-24.082679207102032
aF-32.39179456520867
aF-12.71884507370433
aF-9.3277367472669681
asI316
(lp317
F-22.683740929831743
aF-27.177978816738246
aF-22.996008611047984
aF-24.654138165921253
aF-20.957664982971863
asI317
(lp318
F-23.189855247628714
aF-23.55216823305787
aF-14.652635997442218
aF-21.105866289969001
aF-23.633958903665246
aF-21.831368395754211
asI318
(lp319
F-19.969310848669124
aF-18.040185164497231
aF-10.942336682896268
aF-22.985144227205936
aF-25.495454598014604
asI319
(lp320
F-31.247422469655689
aF-23.811172467418388
aF-28.660031749353777
aF-22.985749139087801
aF-19.492227290337809
asI320
(lp321
F-20.490903240376298
aF-28.940664849258496
aF-21.214706380825703
aF-39.193606826671683
aF-12.014138257271838
aF-19.123411354967772
asI321
(lp322
F-16.886845643019683
aF-11.86446609134407
aF-20.48535050160578
aF-27.983007235948591
aF-40.221134776022879
aF-29.422322705995072
asI322
(lp323
F-20.632227848563232
aF-20.518545355209142
aF-14.464281565405102
asI323
(lp324
F-25.976653143607777
aF-21.97281254813737
aF-18.762901346853056
aF-25.045295181214556
asI324
(lp325
F-22.269430021680932
aF-31.265736708330422
aF-12.656615184856051
asI325
(lp326
F-24.137670722324629
aF-18.44086931603178
aF-32.788505318044116
asI326
(lp327
F-31.884760103324581
aF-35.403971020542926
aF-22.548840322789431
asI327
(lp328
F-24.703740088436319
aF-18.738349633505777
aF-22.288692574397061
aF-25.007281879033997
aF-37.844585685170273
aF-7.4859572583963825
asI328
(lp329
F-26.836560449453728
aF-21.684616102982247
aF-21.663046515731764
aF-24.676043525363838
aF-18.885698525523992
aF-21.619675124224287
aF-20.442731365423086
asI329
(lp330
F-26.775385106401643
aF-21.30609975428645
aF-21.006360673254022
aF-24.661204356561811
aF-18.395671464199268
aF-19.357551073569965
aF-21.638035179044749
asI330
(lp331
F-33.56236245830182
aF-20.67171226748161
aF-24.884432969995942
aF-27.435420774867794
aF-43.930528534553432
asI331
(lp332
F-20.589875679864122
aF-25.757245333181118
aF-27.120608299734371
aF-18.426288965909563
aF-19.142864744019619
aF-28.779156251307512
aF-13.78049081716712
asI332
(lp333
F-31.833718510576361
aF-20.962606167657128
aF-21.090736354779594
aF-6.5089632997416231
aF-21.493487144447229
aF-27.821499745010669
aF-32.323139567393824
asI333
(lp334
F-28.687983751370908
aF-29.056297012587265
aF-26.347472445059225
aF-26.49023854064157
asI334
(lp335
F-41.541894963247699
aF-24.6284303696157
aF-21.789049914746016
asI335
(lp336
F-21.520532321542746
aF-28.419909233320254
as.