(lp1
I3
aI6
aI9
aI12
aI16
aI33
aI38
aI50
aI37
aI41
aI43
aI56
aI64
aI72
aI65
aI77
aI59
aI134
aI144
aI177
aI154
aI155
aI156
aI164
aI208
aI205
aI199
aI216
aI217
aI218
aI211
aI219
aI220
aI222
aI241
aI250
aI235
aI228
aI231
aI239
aI247
aI263
aI304
aI299
aI301
aI302
aI330
aI0
aI19
aI20
aI29
aI36
aI40
aI54
aI35
aI47
aI60
aI68
aI73
aI57
aI61
aI63
aI74
aI67
aI75
aI84
aI83
aI100
aI108
aI103
aI129
aI122
aI133
aI175
aI209
aI210
aI203
aI191
aI232
aI234
aI230
aI238
aI257
aI262
aI253
aI268
aI308
aI326
aI327
aI318
aI5
aI11
aI1
aI21
aI28
aI31
aI34
aI42
aI46
aI48
aI76
aI55
aI66
aI70
aI71
aI80
aI93
aI86
aI91
aI96
aI97
aI105
aI102
aI106
aI116
aI111
aI152
aI171
aI148
aI165
aI143
aI185
aI179
aI202
aI197
aI206
aI221
aI256
aI261
aI255
aI307
aI295
aI297
aI283
aI333
aI58
aI62
aI69
aI79
aI81
aI85
aI89
aI87
aI92
aI101
aI94
aI98
aI99
aI120
aI138
aI147
aI159
aI193
aI224
aI264
aI269
aI324
aI2
aI13
aI17
aI22
aI26
aI27
aI30
aI78
aI136
aI162
aI170
aI150
aI166
aI167
aI194
aI196
aI204
aI323
aI325
aI331
aI14
aI15
aI18
aI23
aI24
aI25
aI52
aI82
aI90
aI128
aI160
aI168
aI141
aI151
aI184
aI186
aI195
aI188
aI174
aI182
aI260
aI251
aI322
aI313
aI32
aI44
aI45
aI51
aI53
aI104
aI95
aI107
aI153
aI157
aI187
aI180
aI189
aI240
aI233
aI242
aI237
aI7
aI8
aI39
aI169
aI289
aI291
aI278
aI320
aI328
aI329
aI4
aI10
aI49
aI88
aI181
aI213
aI223
aI243
aI236
aI245
aI277
aI271
aI298
aI332
aI334
aI130
aI176
aI178
aI172
aI212
aI214
aI225
aI215
aI124
aI137
aI121
aI125
aI110
aI126
aI115
aI127
aI146
aI158
aI207
aI265
aI139
aI123
aI163
aI173
aI275
aI281
aI266
aI284
aI270
aI306
aI293
aI310
aI311
aI312
aI314
aI315
aI132
aI161
aI227
aI305
aI117
aI244
aI280
aI109
aI149
aI142
aI183
aI335
aI118
aI140
aI135
aI290
aI267
aI317
aI288
aI258
aI259
aI292
aI294
aI303
aI112
aI296
aI145
aI248
aI249
aI246
aI254
aI274
aI279
aI300
aI321
aI309
aI119
aI229
aI200
aI201
aI190
aI226
aI272
aI316
aI276
aI319
aI252
aI192
aI285
aI198
aI114
aI273
aI282
aI286
aI113
aI287
a.