(lp1
I604
aI562
aI545
aI410
aI663
aI451
aI453
aI673
aI768
aI809
aI698
aI241
aI286
aI100
aI59
aI273
aI243
aI9
aI92
aI35
aI74
aI95
aI322
aI370
aI340
aI405
aI342
aI306
aI391
aI330
aI380
aI200
aI228
aI215
aI289
aI280
aI229
aI245
aI238
aI385
aI142
aI181
aI230
aI479
aI577
aI611
aI584
aI532
aI450
aI452
aI523
aI435
aI430
aI646
aI617
aI658
aI691
aI665
aI827
aI735
aI746
aI716
aI276
aI293
aI14
aI226
aI189
aI323
aI327
aI105
aI360
aI397
aI350
aI356
aI329
aI333
aI586
aI590
aI527
aI606
aI449
aI690
aI662
aI437
aI407
aI455
aI425
aI677
aI779
aI723
aI801
aI807
aI719
aI266
aI23
aI70
aI118
aI87
aI91
aI236
aI270
aI13
aI44
aI304
aI349
aI365
aI307
aI224
aI530
aI578
aI543
aI525
aI412
aI434
aI618
aI615
aI661
aI632
aI771
aI125
aI793
aI258
aI45
aI353
aI298
aI316
aI227
aI157
aI148
aI152
aI202
aI203
aI213
aI135
aI218
aI480
aI498
aI483
aI484
aI489
aI475
aI509
aI608
aI515
aI582
aI533
aI548
aI432
aI436
aI468
aI441
aI409
aI458
aI783
aI756
aI785
aI277
aI113
aI38
aI104
aI41
aI11
aI191
aI223
aI138
aI497
aI473
aI583
aI580
aI597
aI574
aI460
aI683
aI823
aI671
aI800
aI820
aI65
aI109
aI12
aI30
aI48
aI60
aI72
aI120
aI73
aI102
aI401
aI324
aI406
aI312
aI344
aI315
aI359
aI300
aI334
aI216
aI589
aI535
aI566
aI553
aI462
aI789
aI733
aI251
aI639
aI248
aI15
aI16
aI71
aI287
aI375
aI382
aI400
aI338
aI358
aI301
aI368
aI386
aI309
aI297
aI348
aI346
aI383
aI747
aI740
aI799
aI268
aI269
aI291
aI139
aI367
aI170
aI517
aI522
aI588
aI536
aI569
aI538
aI555
aI571
aI418
aI422
aI657
aI650
aI660
aI664
aI656
aI804
aI813
aI836
aI647
aI685
aI688
aI285
aI636
aI6
aI50
aI124
aI126
aI290
aI271
aI486
aI168
aI143
aI195
aI504
aI587
aI542
aI547
aI695
aI644
aI624
aI686
aI76
aI69
aI86
aI103
aI21
aI355
aI389
aI39
aI49
aI390
aI222
aI159
aI199
aI177
aI182
aI526
aI516
aI446
aI429
aI649
aI641
aI707
aI614
aI255
aI640
aI257
aI2
aI62
aI64
aI106
aI42
aI46
aI43
aI147
aI163
aI317
aI567
aI551
aI592
aI529
aI603
aI601
aI666
aI757
aI700
aI769
aI726
aI84
aI704
aI770
aI710
aI778
aI55
aI57
aI5
aI20
aI52
aI96
aI119
aI146
aI305
aI294
aI313
aI314
aI171
aI461
aI775
aI651
aI692
aI10
aI835
aI274
aI155
aI173
aI205
aI379
aI185
aI130
aI558
aI570
aI440
aI655
aI627
aI696
aI111
aI765
aI766
aI25
aI108
aI93
aI259
aI114
aI34
aI116
aI1
aI115
aI512
aI361
aI411
aI413
aI659
aI621
aI4
aI7
aI246
aI279
aI404
aI474
aI579
aI602
aI518
aI557
aI423
aI426
aI419
aI443
aI637
aI833
aI684
aI825
aI737
aI741
aI821
aI808
aI17
aI94
aI98
aI110
aI75
aI392
aI402
aI575
aI433
aI457
aI417
aI438
aI456
aI674
aI703
aI729
aI782
aI728
aI794
aI742
aI717
aI750
aI758
aI54
aI828
aI89
aI211
aI204
aI212
aI454
aI676
aI645
aI619
aI61
aI85
aI364
aI335
aI378
aI396
aI321
aI395
aI687
aI670
aI773
aI826
aI731
aI225
aI357
aI326
aI303
aI319
aI399
aI576
aI464
aI466
aI815
aI369
aI331
aI153
aI160
aI337
aI594
aI563
aI420
aI467
aI424
aI803
aI759
aI668
aI711
aI78
aI539
aI581
aI381
aI231
aI559
aI595
aI681
aI633
aI428
aI748
aI764
aI265
aI288
aI18
aI188
aI165
aI150
aI179
aI550
aI599
aI556
aI416
aI714
aI709
aI28
aI51
aI40
aI302
aI169
aI403
aI790
aI267
aI631
aI832
aI174
aI388
aI393
aI394
aI598
aI463
aI694
aI725
aI822
aI63
aI510
aI354
aI521
aI561
aI541
aI439
aI605
aI675
aI781
aI292
aI0
aI29
aI68
aI47
aI318
aI387
aI308
aI374
aI325
aI341
aI554
aI519
aI752
aI272
aI196
aI134
aI194
aI373
aI524
aI448
aI697
aI753
aI117
aI80
aI128
aI81
aI240
aI247
aI336
aI209
aI220
aI507
aI347
aI140
aI149
aI151
aI471
aI528
aI560
aI564
aI654
aI721
aI760
aI19
aI33
aI178
aI234
aI190
aI217
aI210
aI198
aI154
aI214
aI137
aI623
aI652
aI442
aI667
aI88
aI112
aI83
aI162
aI233
aI745
aI777
aI237
aI796
aI278
aI56
aI363
aI158
aI487
aI472
aI376
aI508
aI511
aI622
aI626
aI629
aI242
aI712
aI715
aI256
aI281
aI90
aI24
aI101
aI372
aI499
aI311
aI377
aI219
aI500
aI610
aI531
aI708
aI284
aI492
aI477
aI520
aI596
aI465
aI672
aI351
aI384
aI161
aI207
aI513
aI415
aI678
aI774
aI834
aI262
aI328
aI445
aI444
aI431
aI642
aI706
aI260
aI123
aI299
aI332
aI398
aI689
aI264
aI201
aI129
aI193
aI427
aI408
aI32
aI3
aI58
aI77
aI79
aI738
aI720
aI805
aI295
aI366
aI263
aI82
aI482
aI478
aI514
aI459
aI253
aI469
aI502
aI495
aI634
aI625
aI67
aI249
aI275
aI141
aI831
aI565
aI573
aI447
aI679
aI792
aI37
aI490
aI607
aI127
aI184
aI496
aI506
aI501
aI470
aI788
aI744
aI682
aI830
aI22
aI481
aI635
aI680
aI693
aI53
aI164
aI310
aI669
aI795
aI8
aI362
aI175
aI491
aI593
aI812
aI183
aI345
aI485
aI488
aI585
aI648
aI814
aI66
aI493
aI612
aI643
aI727
aI180
aI166
aI537
aI616
aI232
aI568
aI609
aI371
aI754
aI762
aI244
aI187
aI736
aI97
aI121
aI122
aI136
aI186
aI132
aI786
aI221
aI767
aI254
aI343
aI261
aI339
aI749
aI282
aI250
aI320
aI613
aI829
aI252
a.