(dp1
I4096
I475
sI4099
I316
sI4102
I472
sI4103
I316
sI4108
I459
sI4109
I300
sI4116
I475
sI4123
I212
sI4128
I297
sI4129
I227
sI4130
I281
sI4131
I461
sI4133
I316
sI4134
I473
sI4140
I475
sI4141
I293
sI4143
I476
sI4148
I207
sI4149
I316
sI4153
I288
sI4158
I296
sI4160
I293
sI4166
I330
sI4167
I472
sI4168
I330
sI4169
I293
sI4170
I460
sI4171
I330
sI4172
I28
sI4174
I476
sI4175
I293
sI4179
I291
sI4184
I28
sI4186
I293
sI4188
I330
sI4189
I227
sI4190
I293
sI4193
I293
sI4196
I28
sI4197
I284
sI4202
I469
sI4204
I284
sI4205
I284
sI4210
I466
sI4212
I482
sI4215
I302
sI4217
I302
sI4226
I471
sI4234
I302
sI4238
I254
sI4240
I302
sI4242
I485
sI4247
I261
sI4248
I465
sI4249
I302
sI4250
I233
sI4251
I31
sI4252
I298
sI4253
I258
sI4254
I220
sI4255
I302
sI4256
I261
sI4257
I261
sI4259
I222
sI4260
I31
sI4266
I233
sI4273
I237
sI4278
I210
sI4280
I298
sI4284
I298
sI4289
I210
sI4294
I220
sI4297
I249
sI4300
I240
sI4306
I279
sI4317
I213
sI4322
I270
sI4325
I264
sI4333
I251
sI4337
I277
sI4338
I278
sI4347
I277
sI4348
I271
sI4352
I238
sI4357
I219
sI4358
I223
sI4360
I219
sI4366
I219
sI4369
I219
sI4371
I232
sI4376
I219
sI4377
I231
sI4378
I231
sI4382
I263
sI4384
I226
sI4388
I260
sI4389
I231
sI4390
I260
sI4391
I221
sI4392
I256
sI4402
I260
sI4403
I248
sI4404
I266
sI4405
I245
sI4406
I307
sI2704
I345
sI2705
I344
sI2706
I341
sI2707
I335
sI2708
I341
sI2709
I340
sI2710
I336
sI2712
I334
sI2713
I334
sI2729
I102
sI2730
I90
sI2735
I102
sI2740
I90
sI2746
I382
sI2747
I333
sI2752
I391
sI2753
I382
sI2757
I348
sI2761
I339
sI2765
I333
sI2768
I171
sI2773
I404
sI2775
I391
sI2779
I394
sI2780
I339
sI2781
I391
sI2784
I405
sI2785
I180
sI2791
I342
sI2793
I339
sI2798
I405
sI2799
I180
sI2801
I342
sI2803
I394
sI2806
I77
sI2807
I405
sI2811
I339
sI2812
I62
sI2816
I173
sI2817
I339
sI2821
I177
sI2823
I62
sI2827
I112
sI2828
I403
sI2829
I114
sI2832
I137
sI2833
I127
sI2834
I38
sI2839
I77
sI2840
I179
sI2841
I401
sI2844
I403
sI2845
I137
sI2846
I62
sI2848
I52
sI2849
I342
sI2850
I135
sI2851
I38
sI2853
I161
sI2854
I392
sI2856
I36
sI2861
I487
sI2863
I408
sI2864
I392
sI2865
I41
sI2866
I161
sI2868
I173
sI2871
I406
sI2872
I168
sI2873
I392
sI2874
I172
sI2876
I62
sI2882
I38
sI2884
I144
sI2889
I167
sI2890
I113
sI2891
I33
sI2894
I168
sI2895
I116
sI2897
I402
sI2898
I173
sI2899
I130
sI2901
I116
sI2902
I52
sI2906
I402
sI2907
I182
sI2909
I95
sI2912
I130
sI2915
I121
sI2916
I175
sI2917
I57
sI2919
I402
sI2920
I83
sI2923
I116
sI2925
I116
sI2926
I116
sI2928
I95
sI2929
I33
sI2930
I49
sI2932
I116
sI2936
I159
sI2939
I182
sI2945
I116
sI2946
I396
sI2947
I60
sI2949
I159
sI2952
I47
sI2955
I396
sI2960
I100
sI2961
I94
sI2962
I182
sI2967
I160
sI2968
I100
sI2970
I182
sI2973
I95
sI2977
I170
sI2978
I409
sI2980
I130
sI2981
I409
sI2983
I121
sI2984
I160
sI2985
I152
sI2987
I60
sI2991
I100
sI2992
I182
sI2993
I409
sI2994
I60
sI2996
I47
sI2997
I104
sI2998
I104
sI3001
I47
sI3005
I104
sI3006
I47
sI3011
I350
sI3019
I151
sI3020
I50
sI3021
I399
sI3023
I104
sI3024
I151
sI3025
I399
sI3027
I151
sI3032
I350
sI3035
I97
sI3036
I54
sI3038
I447
sI3042
I50
sI3043
I399
sI3044
I123
sI3050
I410
sI3053
I164
sI3057
I410
sI3060
I97
sI3061
I73
sI3063
I374
sI3064
I164
sI3065
I446
sI3070
I69
sI3079
I399
sI3081
I118
sI3082
I380
sI3083
I374
sI3084
I380
sI3086
I447
sI3088
I118
sI3091
I446
sI3099
I352
sI3100
I447
sI3101
I54
sI3102
I377
sI3105
I447
sI3108
I149
sI3109
I54
sI3110
I76
sI3122
I136
sI3123
I105
sI3125
I447
sI3128
I488
sI3131
I446
sI3134
I149
sI3137
I101
sI3138
I76
sI3139
I82
sI3140
I136
sI3146
I447
sI3147
I447
sI3150
I393
sI3152
I366
sI3156
I366
sI3157
I367
sI3160
I366
sI3161
I447
sI3166
I357
sI3167
I366
sI3168
I101
sI3173
I53
sI3182
I366
sI3183
I447
sI3191
I366
sI3194
I136
sI3198
I53
sI3199
I388
sI3203
I76
sI3206
I376
sI3207
I122
sI3209
I357
sI3210
I457
sI3212
I64
sI3218
I122
sI3221
I376
sI3222
I357
sI3224
I444
sI3225
I447
sI3227
I353
sI3228
I372
sI3229
I91
sI3230
I457
sI3235
I353
sI3237
I55
sI3242
I444
sI3248
I444
sI3249
I373
sI3251
I76
sI3257
I357
sI3258
I122
sI3261
I372
sI3263
I357
sI3264
I353
sI3265
I110
sI3268
I58
sI3269
I58
sI3272
I454
sI3276
I122
sI3278
I364
sI3279
I93
sI3281
I92
sI3284
I64
sI3285
I58
sI3288
I125
sI3294
I141
sI3295
I148
sI3298
I150
sI3300
I351
sI3301
I93
sI3303
I443
sI3307
I58
sI3309
I67
sI3311
I58
sI3313
I131
sI3315
I454
sI3316
I448
sI3317
I148
sI3318
I122
sI3320
I125
sI3326
I454
sI3327
I81
sI3328
I184
sI3329
I61
sI3330
I46
sI3338
I126
sI3340
I373
sI3341
I89
sI3343
I184
sI3345
I141
sI3350
I448
sI3355
I150
sI3356
I125
sI3357
I78
sI3359
I448
sI3362
I448
sI3363
I148
sI3365
I184
sI3367
I450
sI3368
I87
sI3370
I148
sI3374
I454
sI3380
I450
sI3383
I45
sI3384
I184
sI3386
I63
sI3387
I43
sI3390
I87
sI3391
I45
sI3392
I43
sI3396
I43
sI3397
I450
sI3401
I134
sI3403
I154
sI3404
I120
sI3406
I204
sI3408
I134
sI3413
I445
sI3416
I120
sI3417
I43
sI3421
I194
sI3426
I201
sI3427
I63
sI3428
I194
sI3433
I40
sI3435
I203
sI3436
I89
sI3437
I40
sI3443
I445
sI3445
I120
sI3447
I142
sI3448
I40
sI3450
I185
sI3458
I120
sI3459
I185
sI3474
I200
sI3478
I191
sI3480
I185
sI3491
I8
sI3495
I200
sI3496
I200
sI3502
I188
sI3504
I8
sI3511
I8
sI3512
I200
sI3518
I8
sI3522
I8
sI3526
I186
sI3528
I1
sI3536
I414
sI3537
I8
sI3539
I23
sI3552
I202
sI3553
I186
sI3554
I421
sI3561
I202
sI3562
I429
sI3563
I30
sI3565
I186
sI3566
I18
sI3573
I429
sI3574
I202
sI3575
I17
sI3576
I30
sI3579
I202
sI3580
I17
sI3581
I22
sI3584
I202
sI3585
I193
sI3587
I16
sI3589
I17
sI3590
I413
sI3591
I193
sI3595
I349
sI3596
I12
sI3598
I202
sI3599
I413
sI3600
I202
sI3602
I195
sI3606
I195
sI3609
I192
sI3610
I413
sI3611
I195
sI3612
I195
sI3613
I378
sI3620
I195
sI3622
I412
sI3624
I412
sI3626
I431
sI3629
I369
sI3633
I192
sI3639
I435
sI3648
I435
sI3651
I309
sI3663
I418
sI3666
I368
sI3671
I368
sI3672
I368
sI3682
I368
sI3685
I368
sI3688
I437
sI3691
I368
sI3692
I368
sI3694
I425
sI3701
I368
sI3702
I368
sI3703
I282
sI3705
I368
sI3707
I312
sI3728
I282
sI3734
I439
sI3739
I282
sI3747
I332
sI3750
I282
sI3752
I282
sI3754
I416
sI3776
I416
sI3777
I319
sI3805
I427
sI3810
I420
sI3862
I422
sI3882
I304
sI3884
I422
sI3885
I433
sI3893
I483
sI3894
I304
sI3900
I483
sI3903
I290
sI3906
I483
sI3907
I290
sI3908
I483
sI3912
I483
sI3922
I483
sI3923
I3
sI3925
I483
sI3932
I304
sI3933
I27
sI3935
I304
sI3936
I304
sI3938
I27
sI3943
I290
sI3947
I13
sI3954
I13
sI3959
I4
sI3961
I322
sI3982
I21
sI3984
I305
sI3987
I6
sI3988
I21
sI3992
I287
sI3994
I287
sI3999
I283
sI4008
I305
sI4012
I30
sI4020
I20
sI4024
I6
sI4025
I6
sI4027
I287
sI4032
I311
sI4039
I283
sI4040
I305
sI4041
I311
sI4043
I6
sI4044
I459
sI4045
I257
sI4047
I6
sI4052
I280
sI4055
I305
sI4056
I6
sI4057
I322
sI4059
I280
sI4071
I280
sI4086
I300
sI4089
I257
s.