(dp1
I512
F-22.444126819220543
sI514
F-38.754333702109832
sI519
F-16.593193476344524
sI520
F-23.391001051194678
sI522
F5.4293035592023955
sI523
F-24.069177904753005
sI528
F-21.56358256470979
sI536
F-2.4939750229138156
sI537
F-13.83229680566842
sI538
F-12.774013376872006
sI560
F-14.154475250770219
sI580
F2.0068004044257748
sI591
F-27.312444594256661
sI592
F-17.657226171484922
sI602
F-24.055181950944032
sI612
F-16.134840655379634
sI624
F-20.795012087289749
sI625
F-0.7119627029829303
sI626
F-3.1047847570953877
sI628
F-23.894654153388316
sI630
F-12.31569614480668
sI631
F-19.485533151747589
sI635
F-10.420228519032975
sI637
F-20.191504650391352
sI639
F-23.587347793776445
sI640
F-19.80310584939258
sI641
F-15.94890961673724
sI642
F-11.995989431711905
sI643
F9.9416031610342941
sI644
F-32.847320835339332
sI645
F-33.060890742080929
sI649
F-1.6339604082961046
sI650
F-26.76590487760194
sI651
F-31.212146513318658
sI653
F-30.485513074452598
sI655
F-23.0686478343261
sI24
F-11.082428247118017
sI658
F-25.204701172777476
sI659
F-19.817518568527447
sI660
F-22.305724999682496
sI661
F-18.633463692898431
sI662
F-11.993497877690174
sI663
F-15.244501611377885
sI665
F-21.820977091912681
sI667
F-13.856900247243786
sI669
F-17.53140029559961
sI671
F7.6606860702687385
sI673
F-37.584552809319035
sI674
F-12.251478979365316
sI675
F-21.983847851792007
sI677
F7.4566962982387111
sI679
F-9.2637246019257304
sI680
F-27.977681195059077
sI681
F-15.407956580707705
sI683
F-21.728290451527329
sI684
F3.5930779979699992
sI686
F-10.483563939656094
sI687
F-34.106157539820217
sI688
F-29.335335361685253
sI689
F-16.913230933471709
sI690
F-10.073440891036157
sI692
F-22.93179091138542
sI694
F-20.258661091175838
sI696
F1.2615093272238624
sI697
F-1.5732596961165228
sI698
F-19.577769283163093
sI700
F-12.623670992121077
sI702
F0.7273792897771898
sI703
F4.4970545650187148
sI704
F-28.004286850974907
sI705
F-21.085600750694965
sI709
F-5.8475930981539932
sI713
F-22.341965693256569
sI719
F-24.562843047591628
sI720
F-21.110373920015007
sI723
F-6.3493231946041959
sI726
F-16.642537182806407
sI727
F-10.215068686044702
sI728
F-38.098195167247852
sI729
F-22.550133245831034
sI731
F-0.91797680216666322
sI732
F-21.766946774840875
sI734
F-15.323476159907756
sI737
F-36.047819246386965
sI740
F-11.685345651141205
sI744
F-7.7689854075638607
sI745
F-15.422091085080424
sI746
F-9.9410647773140823
sI750
F-15.063353015243905
sI751
F-14.44128244300029
sI752
F-23.319333277495545
sI753
F4.0107953088150055
sI754
F-13.301780916323949
sI755
F-23.755553466450237
sI758
F-13.045891369662598
sI760
F4.8973937834982166
sI761
F-28.929429167763203
sI251
F-14.085617118517234
sI765
F-6.3023597444792046
sI766
F-16.576975173752999
sI767
F-16.442137887733452
sI768
F-20.888660418236242
sI771
F-22.162566719896972
sI775
F-9.8716355977884973
sI778
F-10.463397310253541
sI780
F-12.119745038876843
sI782
F-7.5116849961383565
sI783
F-22.865012683151349
sI784
F-26.882021671449593
sI785
F-25.929325486699838
sI786
F8.3331859146773581
sI787
F-29.545600117643261
sI790
F-29.029856318722082
sI791
F-40.66422686572875
sI794
F-18.72636843151075
sI795
F-8.1343357120989879
sI797
F-30.265927860112356
sI799
F-18.350017787873014
sI803
F-10.565602312056356
sI804
F-19.379033087280789
sI805
F-19.011992186636959
sI806
F-15.22438913047344
sI807
F-16.356914584113738
sI809
F-11.085528081975497
sI811
F-16.748777463625487
sI904
F-20.163636068252572
sI818
F-23.019148274916688
sI822
F-34.647995437127449
sI827
F-23.440001562246934
sI829
F7.4792823498260077
sI830
F-12.849124252513178
sI831
F-33.132456334299533
sI834
F-10.877002107371396
sI839
F-29.763054183561962
sI840
F-21.316171282175247
sI843
F-15.849034731757399
sI844
F-22.289673596039393
sI845
F-15.935195080003879
sI849
F-14.122472786408167
sI853
F-29.299027618291078
sI854
F-9.6094949604576811
sI858
F-31.148371044811668
sI861
F2.8474560845539543
sI870
F-18.641749314822349
sI873
F-22.126820360121599
sI874
F6.926397442692263
sI876
F5.2109959303761997
sI877
F-19.549190849034915
sI878
F2.2707854721106173
sI884
F-17.10733883068373
sI885
F-12.521871509206463
sI889
F-21.5840897022251
sI890
F-7.1618880028376708
sI891
F-9.6290373193017587
sI893
F0.58976729333112132
sI895
F-8.0076182625981716
sI896
F-19.956929085067216
sI903
F-17.878071963938609
sI392
F-16.354758695583456
sI905
F-7.5805591265168601
sI907
F8.6900647070086734
sI438
F-10.299673354905778
sI454
F-6.7093484397998679
sI459
F-34.99334185826855
sI461
F-31.052247783232417
sI465
F-19.582031146645392
sI467
F0.34331528013663615
sI469
F-19.536169796896843
sI470
F-32.309858614745238
sI472
F-11.119991691304449
sI473
F-25.819848497487158
sI475
F-34.920743294392409
sI477
F-14.22202962812635
sI478
F-22.255956335610847
sI479
F-1.3038511424796582
sI483
F-10.978529960435324
sI485
F5.9620328638907552
sI486
F-6.7138374990071839
sI487
F-17.605123080745045
sI491
F-22.803080857971338
sI492
F-44.507297854332862
sI494
F-18.80794102530983
sI495
F6.1885667327864269
sI496
F-21.707090457457738
sI497
F-17.207837547190252
sI500
F-9.9242431486241571
sI503
F-16.834610683062735
sI506
F-32.332436483198165
sI508
F-12.661202992527365
sI509
F-20.536369081547207
s.