(dp1
I2048
I626
sI2049
I523
sI2051
I485
sI2052
I697
sI2055
I775
sI2059
I783
sI2060
I454
sI2062
I479
sI2063
I697
sI2064
I783
sI2068
I506
sI2069
I744
sI2070
I679
sI2071
I628
sI2073
I469
sI2074
I523
sI2075
I744
sI2077
I509
sI2078
I694
sI2079
I491
sI2081
I791
sI2083
I783
sI2085
I470
sI2087
I765
sI2089
I784
sI2090
I794
sI2092
I746
sI2095
I470
sI2096
I523
sI2097
I746
sI2098
I794
sI2100
I454
sI2101
I506
sI2104
I791
sI2106
I631
sI2107
I795
sI2109
I469
sI2112
I662
sI2114
I641
sI2115
I746
sI2116
I625
sI2121
I639
sI2123
I787
sI2124
I483
sI2125
I483
sI2126
I631
sI2127
I795
sI2128
I641
sI2130
I794
sI2133
I778
sI2136
I807
sI2138
I472
sI2139
I580
sI2140
I795
sI2141
I662
sI2142
I765
sI2144
I795
sI2145
I767
sI2146
I795
sI2150
I683
sI2155
I885
sI2156
I624
sI2157
I472
sI2159
I795
sI2160
I807
sI2161
I580
sI2162
I805
sI2164
I767
sI2165
I719
sI2166
I885
sI2167
I494
sI2168
I681
sI2169
I734
sI2171
I734
sI2172
I649
sI2173
I760
sI2174
I734
sI2177
I624
sI2181
I785
sI2182
I761
sI2185
I683
sI2188
I885
sI2189
I560
sI2190
I719
sI2191
I681
sI2192
I472
sI2193
I760
sI2194
I761
sI2196
I649
sI2197
I799
sI2201
I659
sI2204
I767
sI2206
I785
sI2207
I637
sI2209
I467
sI2211
I903
sI2217
I785
sI2218
I760
sI2221
I750
sI2222
I467
sI2223
I467
sI2224
I661
sI2225
I799
sI2227
I503
sI2228
I799
sI2230
I503
sI2233
I644
sI2235
I830
sI2236
I750
sI2238
I750
sI2239
I467
sI2240
I753
sI2241
I705
sI2243
I637
sI2244
I719
sI2245
I661
sI2246
I612
sI2247
I840
sI2248
I705
sI2250
I661
sI2251
I758
sI2252
I890
sI2253
I874
sI2254
I806
sI2255
I799
sI2257
I874
sI2258
I768
sI2259
I503
sI2260
I830
sI2261
I896
sI2264
I768
sI2267
I876
sI2268
I752
sI2269
I877
sI2270
I700
sI2272
I893
sI2273
I700
sI2274
I768
sI2277
I667
sI2278
I874
sI2282
I876
sI2288
I667
sI2290
I700
sI2292
I731
sI2293
I839
sI2294
I905
sI2295
I752
sI2296
I709
sI2299
I829
sI2301
I905
sI2302
I731
sI2303
I751
sI2305
I780
sI2306
I893
sI2307
I904
sI2308
I905
sI2309
I782
sI2311
I827
sI2313
I754
sI2314
I904
sI2315
I834
sI2316
I829
sI2321
I884
sI2323
I723
sI2324
I790
sI2325
I829
sI2326
I723
sI2327
I834
sI2328
I895
sI2329
I873
sI2330
I904
sI2331
I745
sI2332
I723
sI2335
I895
sI2337
I861
sI2341
I811
sI2342
I702
sI2343
I884
sI2344
I844
sI2346
I853
sI2347
I702
sI2348
I809
sI2349
I843
sI2351
I873
sI2352
I803
sI2353
I878
sI2355
I713
sI2357
I861
sI2359
I786
sI2360
I873
sI2363
I702
sI2364
I809
sI2365
I803
sI2366
I870
sI2368
I878
sI2369
I786
sI2370
I713
sI2371
I891
sI2372
I803
sI2373
I891
sI2374
I728
sI2376
I870
sI2377
I797
sI2378
I822
sI2379
I698
sI2380
I536
sI2383
I728
sI2385
I704
sI2386
I891
sI2387
I755
sI2388
I728
sI2389
I870
sI2390
I845
sI2391
I728
sI2395
I720
sI2396
I392
sI2397
I392
sI2398
I845
sI2400
I755
sI2401
I755
sI2402
I728
sI2404
I849
sI2405
I726
sI2409
I538
sI2411
I392
sI2413
I732
sI2414
I703
sI2415
I438
sI2416
I727
sI2418
I703
sI2419
I703
sI2420
I251
sI2421
I727
sI2422
I24
sI1911
I642
sI1912
I508
sI1913
I688
sI1914
I660
sI1915
I688
sI1916
I642
sI1917
I655
sI1918
I508
sI1919
I650
sI1920
I655
sI1921
I514
sI1922
I643
sI1923
I663
sI1925
I500
sI1926
I478
sI1927
I643
sI1928
I653
sI1929
I497
sI1930
I478
sI1932
I500
sI1933
I635
sI1934
I635
sI1935
I497
sI1937
I687
sI1939
I686
sI1940
I528
sI1941
I677
sI1942
I520
sI1943
I635
sI1944
I669
sI1945
I687
sI1946
I522
sI1947
I677
sI1948
I677
sI1950
I677
sI1951
I684
sI1952
I522
sI1953
I461
sI1954
I528
sI1955
I680
sI1957
I665
sI1958
I522
sI1959
I512
sI1960
I665
sI1962
I522
sI1965
I677
sI1966
I675
sI1968
I690
sI1969
I684
sI1970
I692
sI1971
I522
sI1972
I495
sI1975
I477
sI1978
I512
sI1986
I630
sI1987
I486
sI2039
I626
sI1998
I671
sI2003
I479
sI2006
I771
sI2007
I473
sI2008
I495
sI1908
I673
sI2013
I495
sI2015
I771
sI2017
I696
sI2018
I485
sI2020
I485
sI2024
I479
sI2027
I473
sI2028
I696
sI2030
I485
sI2031
I459
sI2032
I626
sI2035
I671
sI2038
I485
sI1909
I660
sI2042
I740
sI2043
I492
sI2044
I771
sI2046
I775
s.