(dp1
I2
F-17.368404126307553
sI3
F-25.440766182907879
sI5
F-34.640960019847512
sI6
F-12.041384071924028
sI7
F-26.41219310892977
sI8
F-19.086617093491498
sI9
F-14.68755513341317
sI11
F-21.526756603496551
sI13
F-20.54141298825914
sI14
F-30.873801313808713
sI15
F-19.782644848014911
sI16
F-25.037102513435485
sI18
F-22.825177972675675
sI19
F1.6424591076301169
sI20
F-30.083766775057285
sI21
F-16.455276497564128
sI22
F6.587659915941515
sI23
F-24.807434204420701
sI24
F-24.198717406725848
sI27
F-25.675335893142801
sI28
F-68.718813305491778
sI29
F-15.382230965463179
sI30
F-18.410327002913846
sI31
F-12.075933382284376
sI32
F-19.734690373588933
sI33
F-30.537589196934391
sI34
F-41.155277171583464
sI35
F-18.664316870514199
sI39
F-25.474487396059686
sI43
F-6.6441331444936651
sI46
F-39.138312111633837
sI47
F2.2934060303844319
sI52
F-38.036393922805757
sI58
F1.2117494661220292
sI60
F-18.005299634260524
sI61
F-9.061688635122465
sI65
F-21.773912160530259
sI66
F-36.630483884994931
sI69
F-33.146888720680266
sI70
F-28.89007831406991
sI73
F-21.025114090290884
sI74
F-19.005119698569985
sI76
F-17.335935547774085
sI80
F-22.808014515416104
sI82
F-39.66089902546814
sI83
F-20.317621368686247
sI85
F-19.72734969102919
sI86
F-29.361116590110441
sI87
F-20.361067405640824
sI90
F-30.261089112925731
sI93
F-34.674690922046707
sI94
F-24.347461875603813
sI99
F-20.682133305381427
sI100
F-28.331604843130236
sI102
F-21.403233181557766
sI104
F-26.405999693137062
sI108
F-20.895465767534276
sI109
F-24.85200555153051
sI111
F-27.308316593787907
sI112
F-10.269838740372677
sI115
F-19.045515642644887
sI117
F-18.360546833492847
sI121
F-22.252267259167766
sI125
F-9.9682502931678414
sI129
F-18.69497037733818
sI130
F-9.5083313180558093
sI131
F-32.598474955393371
sI133
F-22.895195577825262
sI134
F-31.987014184217685
sI137
F-21.013765211147586
sI139
F-18.073671025430542
sI143
F-14.477251664226387
sI146
F-21.828900582058779
sI147
F-13.566533513240017
sI148
F-7.3911335540410477
sI149
F9.5710057889001376
sI154
F-24.266295665122001
sI158
F-14.603227391626277
sI159
F-19.7110213954941
sI163
F-29.65502698418581
sI164
F-37.535505593154639
sI166
F-12.495334542209463
sI167
F-34.970484685670229
sI168
F-10.227662533459181
sI174
F-23.862789882462593
sI175
F-46.241581291899294
sI178
F-23.673975474554055
sI184
F-24.252337543824609
sI186
F-18.82962083834768
sI190
F-28.247720353526944
sI193
F-23.600424279654106
sI194
F-18.085929132792117
sI198
F0.079650307748522664
sI200
F-26.413669063424905
sI202
F-18.73813735371624
sI204
F-28.596349022128337
sI206
F9.7543341176358069
sI207
F-11.549889102902299
sI208
F-19.557139959220038
sI211
F-14.42276292157014
sI214
F4.8592827691025349
sI217
F-14.55307821032828
sI220
F4.3110948828110196
sI222
F-26.521569407570482
sI224
F5.3659972837620984
sI226
F-14.150959807258516
sI227
F-16.685378791924379
sI229
F-11.091448570912007
sI232
F-23.502447990565472
sI233
F-19.161667264432509
sI236
F-33.088448229462514
sI239
F-25.729260971326966
sI242
F-21.294222798238309
sI245
F-31.011077955724772
sI246
F-33.583830324943079
sI247
F-20.59359866322005
sI249
F-21.262420099721879
sI250
F-14.559875881039574
sI252
F-20.323500568398245
sI254
F-22.058571669050849
sI256
F-30.287081938507512
sI263
F-29.787160837435749
sI264
F-35.357600941780433
sI266
F-21.045390692781865
sI268
F-21.045863761522327
sI269
F-21.969262519108085
sI270
F-25.761336484307648
sI271
F-10.669798895623671
sI272
F-22.159634097379637
sI273
F-22.152970165226577
sI275
F-18.749632860307045
sI277
F-22.794767388827125
sI279
F-13.428415997803853
sI280
F-29.731311049597053
sI281
F-27.728277963287283
sI282
F6.1064850232497321
sI283
F-10.923797219564946
sI284
F-24.832134170965361
sI285
F-23.082307532986533
sI287
F-26.525659218203089
sI288
F-37.031143657253466
sI289
F-38.354702988600977
sI290
F-34.433314541423428
sI292
F-15.446795336737608
sI293
F-29.885930289931252
sI295
F-19.784053961851839
sI296
F-18.719396126593011
sI297
F-8.3705764318425224
sI299
F-31.465679489540435
sI300
F-19.856819002501396
sI303
F-21.323237559958699
sI304
F-27.037751032905959
sI305
F-23.8162387493132
sI306
F-24.75576733182946
sI308
F-15.967833534674043
sI312
F-27.493915316360869
sI313
F8.3256190119302005
sI314
F-36.281159344372099
sI315
F-21.495468473587735
sI317
F6.6298625354855574
sI318
F10.098899270096297
sI319
F-21.184779287860721
sI320
F-16.203616602723059
sI321
F-23.220258894206125
sI322
F-30.346760337687272
sI325
F-17.891858808059794
sI328
F4.1733065159165648
sI330
F-12.993757981678328
sI331
F-20.820343923812686
sI333
F-32.090152366171708
sI334
F-17.428827993876581
sI337
F-23.43246879461455
sI339
F-20.166737555876352
sI340
F-28.527184617208121
sI341
F-32.440364141942169
sI342
F-24.553571782775833
sI343
F-7.5525550299320656
sI344
F-20.867105082846692
sI345
F-31.256658663423366
sI346
F-26.646359175298471
sI347
F-23.852611332374337
sI348
F-20.426963403891421
sI352
F-18.785479775501983
sI353
F-11.66543732062317
s.