(dp1
I1115
(lp2
(cnumpy.core.multiarray
scalar
p3
(cnumpy
dtype
p4
(S'f8'
I0
I1
tRp5
(I3
S'<'
NNNI-1
I-1
I0
tbS'o8\xa0c\x0f\xa33@'
tRp6
g3
(g5
S'\x99j\xa0\xd8NNS@'
tRp7
tp8
ag3
(g5
S'?5^\xbaI\x0c:@'
tRp9
a(dp10
I0
(lp11
F-54.433975731403294
aF-24.566024268596706
asI1
(lp12
F-53.731023882231028
aF-25.268976117768972
asI2
(lp13
F-51.764089568408025
aF-27.235910431591975
asasI1116
(lp14
(g3
(g5
S']\xf7\x1cy\x9c\xa63@'
tRp15
g3
(g5
S'\xaaN O\xffMS@'
tRp16
tp17
ag3
(g5
S'\xbe\x9f\x1a/\xdd$"@'
tRp18
a(dp19
I0
(lp20
F-55.801275941319375
aF-24.198724058680625
asI1
(lp21
F-51.173081551986712
aF-28.826918448013288
asI2
(lp22
F-47.233379924640403
aF-32.766620075359597
asasI1117
(lp23
(g3
(g5
S'\x0b}\xf2\xa8\xdf\xa73@'
tRp24
g3
(g5
S'\x06\x8cG\x0c\xafOS@'
tRp25
tp26
ag3
(g5
S'\x19\x04V\x0e-\xb2?@'
tRp27
a(dp28
I1
(lp29
F-59.711677939104106
aF-19.288322060895894
asI2
(lp30
F-51.599096499531541
aF-27.400903500468459
asasI1118
(lp31
(g3
(g5
S'f\xe8L\x988\xaa3@'
tRp32
g3
(g5
S'\xfa\x00\xac\xa7\xb9LS@'
tRp33
tp34
ag3
(g5
S'\xd7\xa3p=\n\xd7#@'
tRp35
a(dp36
I12
(lp37
F-55.647036673700811
aF-24.352963326299189
asI13
(lp38
F-60.407821474906811
aF-19.592178525093189
asI4
(lp39
F-51.287511945180427
aF-28.712488054819573
asI5
(lp40
F-54.404556180899789
aF-25.595443819100211
asI7
(lp41
F-50.865495875186326
aF-29.134504124813674
asasI1119
(lp42
(g3
(g5
S'y-\xd7\x91\xd9\xaa3@'
tRp43
g3
(g5
S'\xabg\xb5~BDS@'
tRp44
tp45
ag3
(g5
S'X9\xb4\xc8v\xbeS@'
tRp46
a(dp47
I11
(lp48
F-57.297683466909248
aF-16.702316533090752
asI10
(lp49
F-53.905052304009303
aF-20.094947695990697
asI3
(lp50
F-48.594808487286798
aF-25.405191512713202
asasI1120
(lp51
(g3
(g5
S'\xe6\x01M\x00\xd5\xac3@'
tRp52
g3
(g5
S'\x0f\x85K\x9e\xddJS@'
tRp53
tp54
ag3
(g5
S'\x1f\x85\xebQ\xb8\x1e?@'
tRp55
a(dp56
I4
(lp57
F-53.828324398448714
aF-25.171675601551286
asI5
(lp58
F-46.507499188198807
aF-32.492500811801193
asI6
(lp59
F-52.404425582951177
aF-26.595574417048823
asI7
(lp60
F-58.740707577032197
aF-20.259292422967803
asI12
(lp61
F-56.809359473255498
aF-22.190640526744502
asI13
(lp62
F-55.254834044992194
aF-23.745165955007806
asasI1121
(lp63
(g3
(g5
S'N\x0b\x1c\xd8C\xae3@'
tRp64
g3
(g5
S'\xb13\xc7\xea}LS@'
tRp65
tp66
ag3
(g5
S'\xb8\x1e\x85\xebQ\xb8:@'
tRp67
a(dp68
I4
(lp69
F-55.166487333144971
aF-23.833512666855029
asI5
(lp70
F-51.653764725753206
aF-27.346235274246794
asI6
(lp71
F-59.977819289127808
aF-19.022180710872192
asI7
(lp72
F-49.651626711282447
aF-29.348373288717553
asI12
(lp73
F-46.936949533327692
aF-32.063050466672308
asI13
(lp74
F-57.120022913422332
aF-21.879977086577668
asI17
(lp75
F-60.697927707075365
aF-18.302072292924635
asI18
(lp76
F-60.498403774746279
aF-18.501596225253721
asasI1122
(lp77
(g3
(g5
S'o\xc5\xb4%a\xae3@'
tRp78
g3
(g5
S'\xac_\xc0\xfd\xc6NS@'
tRp79
tp80
ag3
(g5
S'\xdd$\x06\x81\x95C5@'
tRp81
a(dp82
I16
(lp83
F-58.863486861464224
aF-20.136513138535776
asI19
(lp84
F-60.56859294346998
aF-18.43140705653002
asI12
(lp85
F-58.282973883803919
aF-20.717026116196081
asI7
(lp86
F-54.548398628345609
aF-24.451601371654391
asasI1123
(lp87
(g3
(g5
S'#\\\x12\xb1\xd2\xaf3@'
tRp88
g3
(g5
S'\xf4\xb6F\xc2FGS@'
tRp89
tp90
ag3
(g5
S'?5^\xbaI\x0c\x02@'
tRp91
a(dp92
I8
(lp93
F-43.209129501541625
aF-36.790870498458375
asI15
(lp94
F-58.379007618577873
aF-21.620992381422127
asasI1124
(lp95
(g3
(g5
S'\xfd\xf1\xe2\xed\xd6\xb03@'
tRp96
g3
(g5
S'\\\xa4\x9a\xa3\xd8CS@'
tRp97
tp98
ag3
(g5
S'\xaa\xf1\xd2Mb\x100@'
tRp99
a(dp100
I11
(lp101
F-52.001006039171301
aF-27.998993960828699
asI10
(lp102
F-39.206073573447
aF-40.793926426553
asI3
(lp103
F-58.592454134891341
aF-21.407545865108659
asasI1125
(lp104
(g3
(g5
S'\x0et@T\x12\xb13@'
tRp105
g3
(g5
S'Y\xabn\xdc\x7fMS@'
tRp106
tp107
ag3
(g5
S'\xcd\xcc\xcc\xcc\xcc\xcc6@'
tRp108
a(dp109
I4
(lp110
F-59.920268404169491
aF-19.079731595830509
asI5
(lp111
F-58.217750213014554
aF-20.782249786985446
asI7
(lp112
F-51.330877491555995
aF-27.669122508444005
asI12
(lp113
F-50.697919085850401
aF-28.302080914149599
asI13
(lp114
F-59.449203954605395
aF-19.550796045394605
asI16
(lp115
F-60.329160628061516
aF-18.670839371938484
asI17
(lp116
F-60.395368340669464
aF-18.604631659330536
asI18
(lp117
F-58.785644241480185
aF-20.214355758519815
asI19
(lp118
F-60.002871233964157
aF-18.997128766035843
asI20
(lp119
F-59.763117440737432
aF-19.236882559262568
asasI1126
(lp120
(g3
(g5
S'5i\xe8\xd9\x8b\xb13@'
tRp121
g3
(g5
S'}\xc0\xd1\xc8\x86HS@'
tRp122
tp123
ag3
(g5
S'\x9a\x99\x99\x99\x99\x99\xe9?'
tRp124
a(dp125
I13
(lp126
F-58.615612906806902
aF-21.384387093193098
asI6
(lp127
F-55.306344722375115
aF-24.693655277624885
asasI1127
(lp128
(g3
(g5
S'\x88\x10x\xdc\xc7\xb13@'
tRp129
g3
(g5
S'\xa2\x9e\xdb\xd7C@S@'
tRp130
tp131
ag3
(g5
S'5^\xbaI\x0c\x02/@'
tRp132
a(dp133
I9
(lp134
F-48.422253565577108
aF-31.577746434422892
asasI1128
(lp135
(g3
(g5
S'\x8c\xdc\xb2\xc74\xb23@'
tRp136
g3
(g5
S'\x93\x88\xd7\x92\xe1KS@'
tRp137
tp138
ag3
(g5
S'\xdb\xf9~j\xbct9@'
tRp139
a(dp140
I4
(lp141
F-58.918094971549507
aF-20.081905028450493
asI5
(lp142
F-54.032767343642035
aF-24.967232656357965
asI6
(lp143
F-59.163319887038767
aF-19.836680112961233
asI7
(lp144
F-56.756964700462305
aF-22.243035299537695
asI12
(lp145
F-48.862982093352926
aF-30.137017906647074
asI13
(lp146
F-51.005006325526978
aF-27.994993674473022
asI17
(lp147
F-56.467034721562882
aF-22.532965278437118
asI18
(lp148
F-57.179010276711935
aF-21.820989723288065
asasI1130
(lp149
(g3
(g5
S'\x01\xfd\x199f\xb43@'
tRp150
g3
(g5
S'L\x96\xac\xed\x1aBS@'
tRp151
tp152
ag3
(g5
S'\x0e-\xb2\x9d\xef\xa7K@'
tRp153
a(dp154
I10
(lp155
F-57.475831080162351
aF-18.524168919837649
asI11
(lp156
F-53.280010249707601
aF-22.719989750292399
asasI1131
(lp157
(g3
(g5
S'\x0f\xaa\xa2\xb2@\xb53@'
tRp158
g3
(g5
S'\xe2\xbcI\x1d\xaeDS@'
tRp159
tp160
ag3
(g5
S'\xe3\xa5\x9b\xc4 \xb0F@'
tRp161
a(dp162
I15
(lp163
F-47.748626652543393
aF-28.251373347456607
asasI1132
(lp164
(g3
(g5
S'\x9f\x07\xd2 `\xb53@'
tRp165
g3
(g5
S'\xe0\xe1n\xf7\x0fLS@'
tRp166
tp167
ag3
(g5
S'\xa6\x9b\xc4 \xb0r\x10@'
tRp168
a(dp169
I5
(lp170
F-58.142750491222955
aF-21.857249508777045
asI7
(lp171
F-58.931931881697778
aF-21.068068118302222
asI12
(lp172
F-53.603074177291475
aF-26.396925822708525
asI13
(lp173
F-53.428963715197838
aF-26.571036284802162
asI17
(lp174
F-52.274318188394261
aF-27.725681811605739
asI18
(lp175
F-52.466242042510018
aF-27.533757957489982
asI20
(lp176
F-59.900427324704197
aF-20.099572675295803
asI24
(lp177
F-58.301987113224271
aF-21.698012886775729
asasI1134
(lp178
(g3
(g5
S'sGA\xe8\x87\xb83@'
tRp179
g3
(g5
S"'\x9d\x8aL\xe7NS@"
tRp180
tp181
ag3
(g5
S'\xd1"\xdb\xf9~j\x0c@'
tRp182
a(dp183
I16
(lp184
F-53.368810314780134
aF-26.631189685219866
asI24
(lp185
F-58.16270038742212
aF-21.83729961257788
asI19
(lp186
F-42.968106258937155
aF-37.031893741062845
asI20
(lp187
F-48.393008477402475
aF-31.606991522597525
asasI1135
(lp188
(g3
(g5
S'\xbc\xa6\xcdY\x1b\xb93@'
tRp189
g3
(g5
S'\xf6\xee\xd1\x13\xfd<S@'
tRp190
tp191
ag3
(g5
S';\xdfO\x8d\x97n&@'
tRp192
a(dp193
I21
(lp194
F-60.116822466922912
aF-19.883177533077088
asasI1136
(lp195
(g3
(g5
S' \xb9\xd2\xbe\xfb\xb93@'
tRp196
g3
(g5
S'\xc3\xef\xe8w\x88MS@'
tRp197
tp198
ag3
(g5
S'\xcd\xcc\xcc\xcc\xcc\xcc4@'
tRp199
a(dp200
I12
(lp201
F-59.547380049749677
aF-19.452619950250323
asI16
(lp202
F-59.702016855167855
aF-19.297983144832145
asI17
(lp203
F-57.396200689223008
aF-21.603799310776992
asI18
(lp204
F-51.296116438921587
aF-27.703883561078413
asI19
(lp205
F-55.313888635940856
aF-23.686111364059144
asI20
(lp206
F-50.513904669483679
aF-28.486095330516321
asI24
(lp207
F-51.282739697935327
aF-27.717260302064673
asasI1137
(lp208
(g3
(g5
S'*\x00\xc63h\xba3@'
tRp209
g3
(g5
S'\xc5l,\xd5\x03LS@'
tRp210
tp211
ag3
(g5
S'\xc7K7\x89A`C@'
tRp212
a(dp213
I33
(lp214
F-59.50297066981949
aF-19.49702933018051
asI12
(lp215
F-59.463561518351781
aF-19.536438481648219
asI13
(lp216
F-58.092177835469485
aF-20.907822164530515
asI17
(lp217
F-47.364891015161376
aF-31.635108984838624
asI18
(lp218
F-45.707260585025708
aF-33.292739414974292
asI20
(lp219
F-58.752240308220777
aF-20.247759691779223
asI24
(lp220
F-53.041811084263458
aF-25.958188915736542
asI28
(lp221
F-58.660171583621249
aF-20.339828416378751
asasI1138
(lp222
(g3
(g5
S'M\xb0(\xbah\xba3@'
tRp223
g3
(g5
S'\xe2\xc0\x16\x81\x92PS@'
tRp224
tp225
ag3
(g5
S'}?5^\xbaI4@'
tRp226
a(dp227
I16
(lp228
F-52.54691069591783
aF-27.45308930408217
asI19
(lp229
F-53.992751061663341
aF-26.007248938336659
asI20
(lp230
F-57.507455124272468
aF-22.492544875727532
asasI1139
(lp231
(g3
(g5
S'(\xfb|\xce\xbc\xba3@'
tRp232
g3
(g5
S'1N\x11\x1a\xa0GS@'
tRp233
tp234
ag3
(g5
S'\xb6\xf3\xfd\xd4x\xe9"@'
tRp235
a(dp236
I27
(lp237
F-54.929067568937754
aF-25.070932431062246
asI28
(lp238
F-60.237285448125107
aF-19.762714551874893
asI29
(lp239
F-55.014771074218174
aF-24.985228925781826
asI22
(lp240
F-55.256212137660611
aF-24.743787862339389
asasI1140
(lp241
(g3
(g5
S'\xe9=[(\x15\xbb3@'
tRp242
g3
(g5
S';jT\xf9A>S@'
tRp243
tp244
ag3
(g5
S'\xdfO\x8d\x97n\x12I@'
tRp245
a(dp246
I32
(lp247
F-60.496486970961087
aF-15.503513029038913
asI25
(lp248
F-53.885012841809612
aF-22.114987158190388
asI21
(lp249
F-54.511323284536417
aF-21.488676715463583
asI37
(lp250
F-60.421911629314707
aF-15.578088370685293
asasI1141
(lp251
(g3
(g5
S'\xaa\x86yf\xb4\xbb3@'
tRp252
g3
(g5
S'\x16S\xa7\x0b\x8a?S@'
tRp253
tp254
ag3
(g5
S'\xe9&1\x08\xac\x1c0@'
tRp255
a(dp256
I32
(lp257
F-56.77415028087475
aF-23.22584971912525
asI25
(lp258
F-47.051444876263716
aF-32.948555123736284
asI34
(lp259
F-58.798482622694422
aF-21.201517377305578
asI21
(lp260
F-38.173624364742196
aF-41.826375635257804
asI37
(lp261
F-59.503081648852714
aF-20.496918351147286
asasI1142
(lp262
(g3
(g5
S'\x86\x9a\xb6\xb9\x10\xbd3@'
tRp263
g3
(g5
S'\xa7\n\xa1\xde\xa7OS@'
tRp264
tp265
ag3
(g5
S'/\xdd$\x06\x81\x959@'
tRp266
a(dp267
I19
(lp268
F-51.275818269876027
aF-27.724181730123973
asasI1143
(lp269
(g3
(g5
S'nc\x9a\x864\xbd3@'
tRp270
g3
(g5
S'W1l\xff\x10NS@'
tRp271
tp272
ag3
(g5
S'L7\x89A`\xe5\x18@'
tRp273
a(dp274
I16
(lp275
F-59.685620689900475
aF-20.314379310099525
asI17
(lp276
F-60.025143701684783
aF-19.974856298315217
asI18
(lp277
F-56.304610790544842
aF-23.695389209455158
asI19
(lp278
F-54.285743528282069
aF-25.714256471717931
asI20
(lp279
F-48.584307863386869
aF-31.415692136613131
asI24
(lp280
F-51.456563604785345
aF-28.543436395214655
asasI1144
(lp281
(g3
(g5
S'B\xb9en[\xbd3@'
tRp282
g3
(g5
S'V?\x80V\xeaAS@'
tRp283
tp284
ag3
(g5
S'\xf2\xd2Mb\x10XA@'
tRp285
a(dp286
I32
(lp287
F-55.431938993894732
aF-23.568061006105268
asI34
(lp288
F-59.661295216668123
aF-19.338704783331877
asI35
(lp289
F-56.918319696089895
aF-22.081680303910105
asI41
(lp290
F-60.350604600054268
aF-18.649395399945732
asI23
(lp291
F-48.343590176884618
aF-30.656409823115382
asI25
(lp292
F-58.991699967857983
aF-20.008300032142017
asI31
(lp293
F-56.122383858989167
aF-22.877616141010833
asasI1145
(lp294
(g3
(g5
S'\xae\xfe[\x0b\xab\xbd3@'
tRp295
g3
(g5
S'Hx\x94\xad\xa2IS@'
tRp296
tp297
ag3
(g5
S'D\x8bl\xe7\xfb\xa95@'
tRp298
a(dp299
I17
(lp300
F-57.793978322227503
aF-21.206021677772497
asI27
(lp301
F-59.921526622613371
aF-19.078473377386629
asI28
(lp302
F-49.411823631099111
aF-29.588176368900889
asI29
(lp303
F-56.419002689455823
aF-22.580997310544177
asI22
(lp304
F-45.336752696068942
aF-33.663247303931058
asasI1146
(lp305
(g3
(g5
S'\xb6\xc6\x98\xa2\xf9\xbe3@'
tRp306
g3
(g5
S':\x82\xe9\xee\x19KS@'
tRp307
tp308
ag3
(g5
S'\xd5x\xe9&1\x08T@'
tRp309
a(dp310
I24
(lp311
F-56.831270790417079
aF-17.168729209582921
asI17
(lp312
F-55.081406003803394
aF-18.918593996196606
asI18
(lp313
F-57.090472964550031
aF-16.909527035449969
asI28
(lp314
F-51.079561509704121
aF-22.920438490295879
asasI1147
(lp315
(g3
(g5
S'v\xa7\xf92j\xbf3@'
tRp316
g3
(g5
S'"\x9e6\xf4\xa0QS@'
tRp317
tp318
ag3
(g5
S'\xaa\xf1\xd2Mb\x10<@'
tRp319
a(dp320
I40
(lp321
F-59.582280015483576
aF-19.417719984516424
asI26
(lp322
F-49.18010857851435
aF-29.81989142148565
asI30
(lp323
F-44.895297631043306
aF-34.104702368956694
asasI1148
(lp324
(g3
(g5
S'\x19\xa6:\r\xe6\xbf3@'
tRp325
g3
(g5
S'\xffG\x01\xfdYHS@'
tRp326
tp327
ag3
(g5
S'\xac\x1cZd;\xdf5@'
tRp328
a(dp329
I38
(lp330
F-55.104283368101392
aF-23.895716631898608
asI44
(lp331
F-59.854126830014792
aF-19.145873169985208
asI22
(lp332
F-51.996966267115567
aF-27.003033732884433
asI27
(lp333
F-54.170699396315385
aF-24.829300603684615
asI28
(lp334
F-56.053775805491171
aF-22.946224194508829
asI29
(lp335
F-44.136452232668688
aF-34.863547767331312
asasI1149
(lp336
(g3
(g5
S'\n\xa2\xcd\xf5\xa6\xc03@'
tRp337
g3
(g5
S'R\xe5\xe6\xe1\xa5@S@'
tRp338
tp339
ag3
(g5
S'\xb0rh\x91\xed|7@'
tRp340
a(dp341
I32
(lp342
F-39.256199846417246
aF-39.743800153582754
asI34
(lp343
F-52.902476459555047
aF-26.097523540444953
asI35
(lp344
F-55.008275605772511
aF-23.991724394227489
asI37
(lp345
F-56.858915110115049
aF-22.141084889884951
asI21
(lp346
F-54.515760363784267
aF-24.484239636215733
asI23
(lp347
F-57.819316136343261
aF-21.180683863656739
asI25
(lp348
F-54.02631488166125
aF-24.97368511833875
asI31
(lp349
F-59.605846759159618
aF-19.394153240840382
asasI1150
(lp350
(g3
(g5
S'\x81\x07\x06\x10>\xc13@'
tRp351
g3
(g5
S'\x11\xee\xa5[\xfcRS@'
tRp352
tp353
ag3
(g5
S'5^\xbaI\x0c\x02+@'
tRp354
a(dp355
I26
(lp356
F-57.809165605729234
aF-22.190834394270766
asI30
(lp357
F-52.861892558436438
aF-27.138107441563562
asasI1151
(lp358
(g3
(g5
S'm\x06\xf2\xcb\xe4\xc13@'
tRp359
g3
(g5
S'i\x16\xaa\x93ZGS@'
tRp360
tp361
ag3
(g5
S'\x9c\xc4 \xb0rh-@'
tRp362
a(dp363
I38
(lp364
F-54.738338256078194
aF-25.261661743921806
asI39
(lp365
F-60.571578610324195
aF-19.428421389675805
asI44
(lp366
F-59.61099831864378
aF-20.38900168135622
asI22
(lp367
F-57.952717180653707
aF-22.047282819346293
asI27
(lp368
F-47.489194872605083
aF-32.510805127394917
asI28
(lp369
F-60.01128106420984
aF-19.98871893579016
asI29
(lp370
F-47.601723767887378
aF-32.398276232112622
asasI1152
(lp371
(g3
(g5
S'Y1\xe0U\xa4\xc23@'
tRp372
g3
(g5
S'p\xadY\xdb\x12PS@'
tRp373
tp374
ag3
(g5
S'\xa8\xc6K7\x89A @'
tRp375
a(dp376
I40
(lp377
F-52.222546335221992
aF-27.777453664778008
asI26
(lp378
F-51.470177561253877
aF-28.529822438746123
asI30
(lp379
F-55.666161482531294
aF-24.333838517468706
asasI1153
(lp380
(g3
(g5
S'\xe2\xad\xd2a\xae\xc23@'
tRp381
g3
(g5
S'\x18\xcf\x7f\x93\x96LS@'
tRp382
tp383
ag3
(g5
S'\x02+\x87\x16\xd9\xce/@'
tRp384
a(dp385
I33
(lp386
F-53.44205011285365
aF-26.55794988714635
asI36
(lp387
F-57.0012493865773
aF-22.9987506134227
asI17
(lp388
F-59.891811218693661
aF-20.108188781306339
asI18
(lp389
F-58.724555935866704
aF-21.275444064133296
asI24
(lp390
F-54.389602211638277
aF-25.610397788361723
asI28
(lp391
F-59.074384978073141
aF-20.925615021926859
asasI1154
(lp392
(g3
(g5
S'\xa2\xd6\xf2\xd2f\xc33@'
tRp393
g3
(g5
S'\xfe\xc7S\xa0\xe0BS@'
tRp394
tp395
ag3
(g5
S'ffffff6@'
tRp396
a(dp397
I32
(lp398
F-57.989023379555874
aF-21.010976620444126
asI34
(lp399
F-60.103854831910382
aF-18.896145168089618
asI35
(lp400
F-52.164920578071886
aF-26.835079421928114
asI39
(lp401
F-56.675280374371766
aF-22.324719625628234
asI41
(lp402
F-51.561138610906752
aF-27.438861389093248
asI50
(lp403
F-59.747293678469802
aF-19.252706321530198
asI23
(lp404
F-55.29026410111787
aF-23.70973589888213
asI31
(lp405
F-47.48602560718858
aF-31.51397439281142
asasI1155
(lp406
(g3
(g5
S'\xed\x8fbF\x99\xc53@'
tRp407
g3
(g5
S'\xf1\xbf\xae\x899IS@'
tRp408
tp409
ag3
(g5
S'3333339@'
tRp410
a(dp411
I38
(lp412
F-48.731541260878487
aF-30.268458739121513
asI44
(lp413
F-52.786951120548679
aF-26.213048879451321
asI47
(lp414
F-58.521025226397228
aF-20.478974773602772
asI51
(lp415
F-58.700944515981831
aF-20.299055484018169
asI27
(lp416
F-59.775082884087226
aF-19.224917115912774
asI28
(lp417
F-55.651382979265193
aF-23.348617020734807
asasI1156
(lp418
(g3
(g5
S'\xe9;\t\xb6[\xc63@'
tRp419
g3
(g5
S'\xa1\xde\xe7SbRS@'
tRp420
tp421
ag3
(g5
S'\x96C\x8bl\xe7\xfb)@'
tRp422
a(dp423
I26
(lp424
F-58.334267025521228
aF-21.665732974478772
asI53
(lp425
F-60.557212280983208
aF-19.442787719016792
asI30
(lp426
F-54.539718452232719
aF-25.460281547767281
asasI1157
(lp427
(g3
(g5
S'\xfe\xa6\x87\xd3\x0f\xc73@'
tRp428
g3
(g5
S'\xe3\x00\xd9oVOS@'
tRp429
tp430
ag3
(g5
S'\xf2\xd2Mb\x10X5@'
tRp431
a(dp432
I40
(lp433
F-44.479005649306998
aF-34.520994350693002
asI26
(lp434
F-58.689588997718019
aF-20.310411002281981
asI36
(lp435
F-50.880220928112124
aF-28.119779071887876
asI30
(lp436
F-60.126193353185784
aF-18.873806646814216
asasI1158
(lp437
(g3
(g5
S'\xdd\xbba6\\\xc73@'
tRp438
g3
(g5
S'&\xbf\x0b|\x81?S@'
tRp439
tp440
ag3
(g5
S'Zd;\xdfO\x8d\x1f@'
tRp441
a(dp442
I25
(lp443
F-58.864243469186647
aF-21.135756530813353
asI34
(lp444
F-49.844193820901566
aF-30.155806179098434
asI45
(lp445
F-51.895892952642129
aF-28.104107047357871
asI21
(lp446
F-60.462894337490255
aF-19.537105662509745
asI37
(lp447
F-45.744324185518877
aF-34.255675814481123
asasI1159
(lp448
(g3
(g5
S'\xc6\x9d\x98\x16q\xc73@'
tRp449
g3
(g5
S'%d\xb53\xebPS@'
tRp450
tp451
ag3
(g5
S'?5^\xbaI\x0c6@'
tRp452
a(dp453
I26
(lp454
F-57.099037467815421
aF-21.900962532184579
asI30
(lp455
F-56.313276104642455
aF-22.686723895357545
asasI1160
(lp456
(g3
(g5
S'nrS^\x86\xc73@'
tRp457
g3
(g5
S'\x11do\xef\xbbAS@'
tRp458
tp459
ag3
(g5
S'\xf4\xfd\xd4x\xe9&3@'
tRp460
a(dp461
I32
(lp462
F-56.498808450857496
aF-23.501191549142504
asI34
(lp463
F-56.298090652835043
aF-23.701909347164957
asI35
(lp464
F-48.234620393050676
aF-31.765379606949324
asI39
(lp465
F-60.191606106309592
aF-19.808393893690408
asI41
(lp466
F-55.228373241915818
aF-24.771626758084182
asI55
(lp467
F-58.399711610827325
aF-21.600288389172675
asI49
(lp468
F-58.162446482800931
aF-21.837553517199069
asI50
(lp469
F-52.912148630746216
aF-27.087851369253784
asI23
(lp470
F-60.151171062880422
aF-19.848828937119578
asI31
(lp471
F-58.035498979404991
aF-21.964501020595009
asasI1161
(lp472
(g3
(g5
S'\xfd\xa9L\x8c\xc0\xc73@'
tRp473
g3
(g5
S'\xec\x81\x1c\xb5\xfe=S@'
tRp474
tp475
ag3
(g5
S'\x8f\xc2\xf5(\\\x8f.@'
tRp476
a(dp477
I25
(lp478
F-60.359135651226666
aF-19.640864348773334
asI34
(lp479
F-57.831245667124662
aF-22.168754332875338
asI49
(lp480
F-57.300016503764894
aF-22.699983496235106
asI37
(lp481
F-53.449223280273998
aF-26.550776719726002
asI45
(lp482
F-51.796504419633337
aF-28.203495580366663
asasI1162
(lp483
(g3
(g5
S'I\xb8\xd2cB\xc83@'
tRp484
g3
(g5
S'\xf8\x82?\x91!FS@'
tRp485
tp486
ag3
(g5
S'^\xbaI\x0c\x02+?@'
tRp487
a(dp488
I39
(lp489
F-55.004525811600644
aF-23.995474188399356
asI41
(lp490
F-59.913555698773521
aF-19.086444301226479
asI42
(lp491
F-43.855208605871297
aF-35.144791394128703
asI47
(lp492
F-54.734775249936888
aF-24.265224750063112
asI56
(lp493
F-59.525710876956879
aF-19.474289123043121
asI57
(lp494
F-58.971224732009517
aF-20.028775267990483
asI58
(lp495
F-57.996605489148862
aF-21.003394510851138
asI61
(lp496
F-59.325340680194273
aF-19.674659319805727
asasI1163
(lp497
(g3
(g5
S'\xa5\xa9\xb7i\xe0\xc83@'
tRp498
g3
(g5
S'g\xea\xd8\xb5;JS@'
tRp499
tp500
ag3
(g5
S'\xbe\x9f\x1a/\xdd$.@'
tRp501
a(dp502
I51
(lp503
F-52.776701710831517
aF-27.223298289168483
asI44
(lp504
F-53.475822478478449
aF-26.524177521521551
asI38
(lp505
F-56.742252215305513
aF-23.257747784694487
asasI1164
(lp506
(g3
(g5
S'3T\xc5T\xfa\xc83@'
tRp507
g3
(g5
S'n^j\xbeiDS@'
tRp508
tp509
ag3
(g5
S'\x9e\xef\xa7\xc6K7;@'
tRp510
a(dp511
I35
(lp512
F-60.07172962220443
aF-18.92827037779557
asI39
(lp513
F-47.491411670387919
aF-31.508588329612081
asI41
(lp514
F-52.426805990041018
aF-26.573194009958982
asI42
(lp515
F-54.083447275677344
aF-24.916552724322656
asI58
(lp516
F-57.245339200925315
aF-21.754660799074685
asI63
(lp517
F-58.630429356288033
aF-20.369570643711967
asI31
(lp518
F-58.016987861871002
aF-20.983012138128998
asasI1165
(lp519
(g3
(g5
S'r\xd3\xf2Es\xc93@'
tRp520
g3
(g5
S'~\x81j\xcd CS@'
tRp521
tp522
ag3
(g5
S'\xf4\xfd\xd4x\xe9&1@'
tRp523
a(dp524
I35
(lp525
F-56.18886369762339
aF-23.81113630237661
asI39
(lp526
F-55.421450358390956
aF-24.578549641609044
asI41
(lp527
F-47.787075226992158
aF-32.212924773007842
asI42
(lp528
F-59.625296412016041
aF-20.374703587983959
asI50
(lp529
F-56.502726910373497
aF-23.497273089626503
asI55
(lp530
F-54.071778315550063
aF-25.928221684449937
asI58
(lp531
F-59.792248669988751
aF-20.207751330011249
asI63
(lp532
F-59.023290652634842
aF-20.976709347365158
asI31
(lp533
F-57.454311271124467
aF-22.545688728875533
asasI1166
(lp534
(g3
(g5
S'\xde\x11_7\xb6\xc93@'
tRp535
g3
(g5
S'\xb0Ax\x17\x1cPS@'
tRp536
tp537
ag3
(g5
S'\x9c\xc4 \xb0rh\xd1?'
tRp538
a(dp539
I26
(lp540
F-59.671963437209115
aF-20.328036562790885
asI52
(lp541
F-60.258610445411648
aF-19.741389554588352
asI54
(lp542
F-54.231127950175193
aF-25.768872049824807
asI30
(lp543
F-59.884013323685281
aF-20.115986676314719
asasI1167
(lp544
(g3
(g5
S'\xecQ\x13\xd8\xf7\xc93@'
tRp545
g3
(g5
S'\x87d\x12?PSS@'
tRp546
tp547
ag3
(g5
S'\x8bl\xe7\xfb\xa9\xf1*@'
tRp548
a(dp549
I52
(lp550
F-52.601731208981633
aF-27.398268791018367
asI53
(lp551
F-55.502710955084524
aF-24.497289044915476
asasI1168
(lp552
(g3
(g5
S'\xd3\xc7\xd7\xf9\x12\xcb3@'
tRp553
g3
(g5
S'\xd27\xab6&HS@'
tRp554
tp555
ag3
(g5
S'H\xe1z\x14\xaeG3@'
tRp556
a(dp557
I56
(lp558
F-51.417568574773611
aF-28.582431425226389
asI57
(lp559
F-52.812286932889705
aF-27.187713067110295
asI61
(lp560
F-58.333509788926733
aF-21.666490211073267
asI29
(lp561
F-59.899203400495523
aF-20.100796599504477
asI47
(lp562
F-48.335295118814059
aF-31.664704881185941
asasI1169
(lp563
(g3
(g5
S'\xc1lD(\x9d\xcb3@'
tRp564
g3
(g5
S'\x0bd\xd1\xcfoNS@'
tRp565
tp566
ag3
(g5
S'\xd9\xce\xf7S\xe3\xa5;@'
tRp567
a(dp568
I48
(lp569
F-58.37949048396591
aF-20.62050951603409
asI43
(lp570
F-51.498314226162989
aF-27.501685773837011
asasI1170
(lp571
(g3
(g5
S'\xd7;\xf5\xab\xad\xcb3@'
tRp572
g3
(g5
S'\xa9\x99\xbd\x85\x18>S@'
tRp573
tp574
ag3
(g5
S'\xaa\xf1\xd2Mb\x10(@'
tRp575
a(dp576
I49
(lp577
F-55.397917331731975
aF-24.602082668268025
asI45
(lp578
F-48.599338574749893
aF-31.400661425250107
asasI1171
(lp579
(g3
(g5
S'@\x1b\x14(\xbd\xcb3@'
tRp580
g3
(g5
S'\x10\xd2l\x81\xf1LS@'
tRp581
tp582
ag3
(g5
S'o\x12\x83\xc0\xca\xa11@'
tRp583
a(dp584
I48
(lp585
F-49.576192435174576
aF-30.423807564825424
asI33
(lp586
F-59.302290488470717
aF-20.697709511529283
asI43
(lp587
F-48.105614041197413
aF-31.894385958802587
asasI1172
(lp588
(g3
(g5
S'\x1fzZ\x97}\xcc3@'
tRp589
g3
(g5
S'\x15$\xcfX(AS@'
tRp590
tp591
ag3
(g5
S'u\x93\x18\x04V\x0e3@'
tRp592
a(dp593
I34
(lp594
F-58.360638801719702
aF-21.639361198280298
asI35
(lp595
F-57.603894744046414
aF-22.396105255953586
asI66
(lp596
F-59.682558049487881
aF-20.317441950512119
asI50
(lp597
F-38.803153818762596
aF-41.196846181237404
asI55
(lp598
F-57.012921052748425
aF-22.987078947251575
asasI1173
(lp599
(g3
(g5
S'\x84\xfc\x01I\xb7\xcc3@'
tRp600
g3
(g5
S'10D\xb1IKS@'
tRp601
tp602
ag3
(g5
S'b\x10X9\xb4\xc8:@'
tRp603
a(dp604
I48
(lp605
F-49.717189730500408
aF-29.282810269499592
asI51
(lp606
F-49.177530400558624
aF-29.822469599441376
asI43
(lp607
F-58.259160389515159
aF-20.740839610484841
asI44
(lp608
F-58.757158770209998
aF-20.242841229790002
asasI1174
(lp609
(g3
(g5
S'\xc0\xae\x89y\x14\xcd3@'
tRp610
g3
(g5
S'\x82\x98\x19pu?S@'
tRp611
tp612
ag3
(g5
S'\x1b/\xdd$\x06\x81)@'
tRp613
a(dp614
I49
(lp615
F-43.984279561969544
aF-36.015720438030456
asI34
(lp616
F-58.175251627346952
aF-21.824748372653048
asI37
(lp617
F-56.963858201245046
aF-23.036141798754954
asI45
(lp618
F-50.441866991823574
aF-29.558133008176426
asasI1175
(lp619
(g3
(g5
S'0\xdb-M:\xcd3@'
tRp620
g3
(g5
S'\x1a\x084\x9e)XS@'
tRp621
tp622
ag3
(g5
S'\xcd\xcc\xcc\xcc\xcc\xcc0@'
tRp623
a(dp624
I46
(lp625
F-51.666477846593651
aF-28.333522153406349
asasI1176
(lp626
(g3
(g5
S'\xa8_\x964N\xce3@'
tRp627
g3
(g5
S'i 3\xa3aSS@'
tRp628
tp629
ag3
(g5
S';\xdfO\x8d\x97n2@'
tRp630
a(dp631
I52
(lp632
F-46.616990974540627
aF-33.383009025459373
asI53
(lp633
F-53.077947377901111
aF-26.922052622098889
asasI1177
(lp634
(g3
(g5
S';\xfeM \xd3\xce3@'
tRp635
g3
(g5
S'B.He\xd0TS@'
tRp636
tp637
ag3
(g5
S'\x89A`\xe5\xd0"+@'
tRp638
a(dp639
I52
(lp640
F-57.195701971409832
aF-22.804298028590168
asI53
(lp641
F-40.925557818168983
aF-39.074442181831017
asI46
(lp642
F-59.489576538151482
aF-20.510423461848518
asasI1178
(lp643
(g3
(g5
S'm\xe5\xc2\xd4\xd8\xcf3@'
tRp644
g3
(g5
S'\x88Q\x08\xcb\xb5BS@'
tRp645
tp646
ag3
(g5
S'\xcf\xf7S\xe3\xa5\x9b(@'
tRp647
a(dp648
I50
(lp649
F-55.513569826169942
aF-24.486430173830058
asI63
(lp650
F-55.124312053972446
aF-24.875687946027554
asI66
(lp651
F-53.712348304352091
aF-26.287651695647909
asI58
(lp652
F-59.114165086075417
aF-20.885834913924583
asI55
(lp653
F-43.973712080246045
aF-36.026287919753955
asasI1179
(lp654
(g3
(g5
S'\xb8V\x9c\xe6\xf4\xcf3@'
tRp655
g3
(g5
S'In\xa8s`IS@'
tRp656
tp657
ag3
(g5
S'\xd9\xce\xf7S\xe3\xa5C@'
tRp658
a(dp659
I56
(lp660
F-53.213751707631531
aF-25.786248292368469
asI57
(lp661
F-55.244627065020239
aF-23.755372934979761
asI61
(lp662
F-59.763490638270156
aF-19.236509361729844
asI47
(lp663
F-58.211657750589538
aF-20.788342249410462
asasI1180
(lp664
(g3
(g5
S'\xae&\x91u\x1f\xd03@'
tRp665
g3
(g5
S'*\xd3?\xf3\x7fES@'
tRp666
tp667
ag3
(g5
S'\xe5\xd0"\xdb\xf9~<@'
tRp668
a(dp669
I39
(lp670
F-59.583090293220977
aF-19.416909706779023
asI42
(lp671
F-58.435255704258424
aF-20.564744295741576
asI71
(lp672
F-56.96125860907253
aF-22.03874139092747
asI47
(lp673
F-58.175419856202211
aF-20.824580143797789
asI56
(lp674
F-59.368864322563255
aF-19.631135677436745
asI57
(lp675
F-58.054481559039829
aF-20.945518440960171
asI58
(lp676
F-38.679404551475017
aF-40.320595448524983
asI61
(lp677
F-53.033713658937302
aF-25.966286341062698
asasI1181
(lp678
(g3
(g5
S'g\x8d\x0f\xedB\xd03@'
tRp679
g3
(g5
S'\x12\xfe\x7f{bQS@'
tRp680
tp681
ag3
(g5
S'\xa2E\xb6\xf3\xfd\xd4M@'
tRp682
a(dp683
I54
(lp684
F-48.035937793600993
aF-27.964062206399007
asasI1182
(lp685
(g3
(g5
S'~\xc1\xb0\xf4\x88\xd03@'
tRp686
g3
(g5
S'\xe9TC,,XS@'
tRp687
tp688
ag3
(g5
S'\x98n\x12\x83\xc0\xca!@'
tRp689
a(dp690
I59
(lp691
F-58.376602199527966
aF-21.623397800472034
asI62
(lp692
F-42.849430552289562
aF-37.150569447710438
asI46
(lp693
F-55.795869016162641
aF-24.204130983837359
asasI1183
(lp694
(g3
(g5
S'-\x9a\x08\xfa\x8f\xd03@'
tRp695
g3
(g5
S'\xe9Y\xd6\x1e\xf2GS@'
tRp696
tp697
ag3
(g5
S'\x8bl\xe7\xfb\xa9\xf14@'
tRp698
a(dp699
I56
(lp700
F-43.847292256158141
aF-35.152707743841859
asI57
(lp701
F-41.899344554374281
aF-37.100655445625719
asI61
(lp702
F-53.366571874174682
aF-25.633428125825318
asI47
(lp703
F-54.279567939933571
aF-24.720432060066429
asasI1184
(lp704
(g3
(g5
S'\x1ax\xe6\xcc\x13\xd13@'
tRp705
g3
(g5
S'g\xcf+\xbf\x08VS@'
tRp706
tp707
ag3
(g5
S'sh\x91\xed|?!@'
tRp708
a(dp709
I59
(lp710
F-38.512481887399815
aF-41.487518112600185
asI62
(lp711
F-57.617908324302988
aF-22.382091675697012
asasI1185
(lp712
(g3
(g5
S'+\x7f\x08\xbbr\xd13@'
tRp713
g3
(g5
S'\xfdHtC\x11DS@'
tRp714
tp715
ag3
(g5
S'\xc5 \xb0rh\x917@'
tRp716
a(dp717
I63
(lp718
F-37.455859897400131
aF-41.544140102599869
asI58
(lp719
F-52.92174600762867
aF-26.07825399237133
asI55
(lp720
F-52.755932140208017
aF-26.244067859791983
asI68
(lp721
F-54.267822049663238
aF-24.732177950336762
asI39
(lp722
F-60.355312379055178
aF-18.644687620944822
asasI1186
(lp723
(g3
(g5
S'd\x00n7=\xd23@'
tRp724
g3
(g5
S'P)\xc0\xc1\xe8FS@'
tRp725
tp726
ag3
(g5
S'#\xdb\xf9~j\xbc,@'
tRp727
a(dp728
I56
(lp729
F-54.345733798207291
aF-25.654266201792709
asI57
(lp730
F-51.950579638349026
aF-28.049420361650974
asI58
(lp731
F-55.856887225652514
aF-24.143112774347486
asI61
(lp732
F-39.006076552443105
aF-40.993923447556895
asasI1187
(lp733
(g3
(g5
S'v\xecV\x85\xbc\xd23@'
tRp734
g3
(g5
S'\xb3\xa2\xfea\xa8SS@'
tRp735
tp736
ag3
(g5
S'\xe3\xa5\x9b\xc4 \xb0.@'
tRp737
a(dp738
I73
(lp739
F-56.167160779539813
aF-23.832839220460187
asI60
(lp740
F-44.872650508667633
aF-35.127349491332367
asasI1188
(lp741
(g3
(g5
S"\xa41\x9cc'\xd33@"
tRp742
g3
(g5
S'\xa3\xc9\xa4\n\xafLS@'
tRp743
tp744
ag3
(g5
S')\\\x8f\xc2\xf5(A@'
tRp745
a(dp746
I64
(lp747
F-45.617388367067008
aF-33.382611632932992
asI65
(lp748
F-48.95286015115245
aF-30.04713984884755
asI74
(lp749
F-57.047817981379978
aF-21.952182018620022
asasI1189
(lp750
(g3
(g5
S'\xbe\x83\xc0Fi\xd33@'
tRp751
g3
(g5
S'\x88\x00\x96K\x99NS@'
tRp752
tp753
ag3
(g5
S'\x89A`\xe5\xd0"/@'
tRp754
a(dp755
I72
(lp756
F-54.86021198276778
aF-25.13978801723222
asasI1190
(lp757
(g3
(g5
S'\xdc\x1c\xbe\xb7\xaf\xd43@'
tRp758
g3
(g5
S']\x9f\xbd#\xb8TS@'
tRp759
tp760
ag3
(g5
S'\x02+\x87\x16\xd9\xce/@'
tRp761
a(dp762
I67
(lp763
F-47.075384783097292
aF-32.924615216902708
asasI1191
(lp764
(g3
(g5
S'}1\x08j\x00\xd53@'
tRp765
g3
(g5
S'\ns\x0e\xe0\xe5AS@'
tRp766
tp767
ag3
(g5
S'\xc5 \xb0rh\x91?@'
tRp768
a(dp769
I50
(lp770
F-58.754599305622421
aF-20.245400694377579
asI66
(lp771
F-48.779784880529348
aF-30.220215119470652
asI55
(lp772
F-57.070000265541879
aF-21.929999734458121
asasI1192
(lp773
(g3
(g5
S'P\x8b\xa0\xb5\xcb\xd63@'
tRp774
g3
(g5
S'\xae\xdb\x1c\xbewJS@'
tRp775
tp776
ag3
(g5
S'w\xbe\x9f\x1a/\xddB@'
tRp777
a(dp778
I64
(lp779
F-60.178593026823734
aF-18.821406973176266
asI80
(lp780
F-59.626258349940713
aF-19.373741650059287
asI75
(lp781
F-58.439010106028931
aF-20.560989893971069
asI70
(lp782
F-50.404975471624851
aF-28.595024528375149
asI65
(lp783
F-55.306821705669648
aF-23.693178294330352
asasI1193
(lp784
(g3
(g5
S'\x18\xe9\xc9%#\xd73@'
tRp785
g3
(g5
S'~."\xa3\xe6QS@'
tRp786
tp787
ag3
(g5
S'P\x8d\x97n\x12\x83:@'
tRp788
a(dp789
I72
(lp790
F-58.158088968756459
aF-20.841911031243541
asI73
(lp791
F-56.805361759527756
aF-22.194638240472244
asI76
(lp792
F-52.041345084405137
aF-26.958654915594863
asI69
(lp793
F-52.751660819950729
aF-26.248339180049271
asasI1194
(lp794
(g3
(g5
S'\xd0>^a$\xd73@'
tRp795
g3
(g5
S'|\xf6\xf9{\xabSS@'
tRp796
tp797
ag3
(g5
S'\xcd\xcc\xcc\xcc\xcc\xcc\x0c@'
tRp798
a(dp799
I73
(lp800
F-47.20798835748073
aF-32.79201164251927
asasI1195
(lp801
(g3
(g5
S'\x00o\x81\x04\xc5\xd73@'
tRp802
g3
(g5
S'F9\xe2\xda\x1aPS@'
tRp803
tp804
ag3
(g5
S'\xe3\xa5\x9b\xc4 \xb0F@'
tRp805
a(dp806
I72
(lp807
F-44.617795508913701
aF-31.382204491086299
asI76
(lp808
F-58.728511732988366
aF-17.271488267011634
asI69
(lp809
F-46.391048497593786
aF-29.608951502406214
asI78
(lp810
F-58.603632174877873
aF-17.396367825122127
asasI1196
(lp811
(g3
(g5
S'7\x04C-8\xd83@'
tRp812
g3
(g5
S'\xc4U\n&\xe3CS@'
tRp813
tp814
ag3
(g5
S'5^\xbaI\x0c\x02+@'
tRp815
a(dp816
I68
(lp817
F-44.647589582732152
aF-35.352410417267848
asasI1197
(lp818
(g3
(g5
S'\x1b\xe7\xc2\x8aK\xd83@'
tRp819
g3
(g5
S'\xad\x8f\xa0[\\HS@'
tRp820
tp821
ag3
(g5
S'\xb6\xf3\xfd\xd4x\xe9"@'
tRp822
a(dp823
I80
(lp824
F-59.175659132622286
aF-20.824340867377714
asI81
(lp825
F-59.124376081600701
aF-20.875623918399299
asI75
(lp826
F-46.507238830824917
aF-33.492761169175083
asI77
(lp827
F-54.790779841132974
aF-25.209220158867026
asI70
(lp828
F-52.656584152594633
aF-27.343415847405367
asasI1198
(lp829
(g3
(g5
S'\x14\xc1I\xe4\xcc\xd83@'
tRp830
g3
(g5
S'\xfd\x08.\x1c)NS@'
tRp831
tp832
ag3
(g5
S'\xb6\xf3\xfd\xd4x\xe90@'
tRp833
a(dp834
I65
(lp835
F-59.292489822843322
aF-20.707510177156678
asI74
(lp836
F-44.93230321528128
aF-35.06769678471872
asI79
(lp837
F-57.556506111622241
aF-22.443493888377759
asasI1199
(lp838
(g3
(g5
S'\xa5\xb5q\xdd\xf7\xd83@'
tRp839
g3
(g5
S'V\xa4\x99Y\xd1ES@'
tRp840
tp841
ag3
(g5
S'\xe1z\x14\xaeG\xe14@'
tRp842
a(dp843
I58
(lp844
F-58.736135833451144
aF-20.263864166548856
asI71
(lp845
F-43.616950560066954
aF-35.383049439933046
asasI1200
(lp846
(g3
(g5
S'\xb3z\xa8\xe9\x8a\xda3@'
tRp847
g3
(g5
S'\xfa-\xd7.oTS@'
tRp848
tp849
ag3
(g5
S'\xb8\x1e\x85\xebQ\xb8:@'
tRp850
a(dp851
I73
(lp852
F-48.321653288428308
aF-30.678346711571692
asI59
(lp853
F-60.487728457210736
aF-18.512271542789264
asI76
(lp854
F-57.203730249697713
aF-21.796269750302287
asasI1201
(lp855
(g3
(g5
S'\x8ar\xab\x18\x95\xdb3@'
tRp856
g3
(g5
S'\xc9%\n\x04\xecRS@'
tRp857
tp858
ag3
(g5
S'\x02+\x87\x16\xd9\xce+@'
tRp859
a(dp860
I73
(lp861
F-50.843730931781494
aF-29.156269068218506
asI76
(lp862
F-45.879792311597896
aF-34.120207688402104
asasI1202
(lp863
(g3
(g5
S']^-5J\xdc3@'
tRp864
g3
(g5
S'\xab\x0b\xf4`}PS@'
tRp865
tp866
ag3
(g5
S'#\xdb\xf9~j\xbc,@'
tRp867
a(dp868
I72
(lp869
F-54.298115440889561
aF-25.701884559110439
asI76
(lp870
F-56.711863408896846
aF-23.288136591103154
asI69
(lp871
F-53.661182774044136
aF-26.338817225955864
asI78
(lp872
F-57.420022225099132
aF-22.579977774900868
asasI1203
(lp873
(g3
(g5
S'\xb5\x84c3\x13\xdd3@'
tRp874
g3
(g5
S'\xa5\x85\xec8\x95GS@'
tRp875
tp876
ag3
(g5
S'\x08\xac\x1cZd;9@'
tRp877
a(dp878
I80
(lp879
F-58.239773595603538
aF-20.760226404396462
asI81
(lp880
F-56.118031946751628
aF-22.881968053248372
asI75
(lp881
F-51.03169990553252
aF-27.96830009446748
asI77
(lp882
F-32.572865265090115
aF-46.427134734909885
asI70
(lp883
F-58.936739984369154
aF-20.063260015630846
asasI1204
(lp884
(g3
(g5
S'\xa4\xc7\xce_\x11\xde3@'
tRp885
g3
(g5
S'r"\x8f\x1a\xf2MS@'
tRp886
tp887
ag3
(g5
S'\x17\xd9\xce\xf7S\xe37@'
tRp888
a(dp889
I64
(lp890
F-60.230347752381803
aF-18.769652247618197
asI74
(lp891
F-52.557264050613185
aF-26.442735949386815
asI78
(lp892
F-45.452488964662564
aF-33.547511035337436
asI79
(lp893
F-51.37346952035864
aF-27.62653047964136
asasI1205
(lp894
(g3
(g5
S'>\x853*6\xde3@'
tRp895
g3
(g5
S'`\x1et\x01\xd6QS@'
tRp896
tp897
ag3
(g5
S'o\x12\x83\xc0\xca\xa1\x1d@'
tRp898
a(dp899
I84
(lp900
F-60.203496216508796
aF-19.796503783491204
asasI1206
(lp901
(g3
(g5
S'\xed#\\mj\xde3@'
tRp902
g3
(g5
S'\x84\x99\xd7\x8d\x8eOS@'
tRp903
tp904
ag3
(g5
S'\x14\xaeG\xe1z\x14&@'
tRp905
a(dp906
I72
(lp907
F-55.836209051416134
aF-24.163790948583866
asI69
(lp908
F-57.897020004428185
aF-22.102979995571815
asI78
(lp909
F-51.72643302396537
aF-28.27356697603463
asasI1207
(lp910
(g3
(g5
S'2\xbdq\x10|\xde3@'
tRp911
g3
(g5
S'0\xafL\x8d\x8aIS@'
tRp912
tp913
ag3
(g5
S'\xcb\xa1E\xb6\xf3\xfd0@'
tRp914
a(dp915
I70
(lp916
F-56.685431713691031
aF-23.314568286308969
asI75
(lp917
F-55.083067134508639
aF-24.916932865491361
asI77
(lp918
F-57.481241909720524
aF-22.518758090279476
asI80
(lp919
F-46.097593587442958
aF-33.902406412557042
asI81
(lp920
F-51.44700179583856
aF-28.55299820416144
asI82
(lp921
F-55.054805348875448
aF-24.945194651124552
asI83
(lp922
F-59.79841749479229
aF-20.20158250520771
asasI1208
(lp923
(g3
(g5
S'\x07\\x\xda\xf1\xe13@'
tRp924
g3
(g5
S'\x1c"\xf2\x86\tPS@'
tRp925
tp926
ag3
(g5
S'\xd9\xce\xf7S\xe3\xa5@@'
tRp927
a(dp928
I72
(lp929
F-59.66411636833692
aF-19.33588363166308
asI78
(lp930
F-56.240563111173969
aF-22.759436888826031
asasI1209
(lp931
(g3
(g5
S'd\xd9\xa3\xa2w\xe23@'
tRp932
g3
(g5
S'+\xa9\xd1\xb3\xb2LS@'
tRp933
tp934
ag3
(g5
S'w\xbe\x9f\x1a/\xddB@'
tRp935
a(dp936
I74
(lp937
F-59.138116883372788
aF-19.861883116627212
asI78
(lp938
F-57.322357836465841
aF-21.677642163534159
asI79
(lp939
F-49.555374778176656
aF-29.444625221823344
asI80
(lp940
F-60.655582609311821
aF-18.344417390688179
asI82
(lp941
F-60.358675865140412
aF-18.641324134859588
asI83
(lp942
F-52.641831657569682
aF-26.358168342430318
asI86
(lp943
F-55.82676081209695
aF-23.17323918790305
asI87
(lp944
F-60.581815243234729
aF-18.418184756765271
asI88
(lp945
F-59.959925332010954
aF-19.040074667989046
asasI1210
(lp946
(g3
(g5
S'\x95w\x1f\x91\x00\xe33@'
tRp947
g3
(g5
S'\x988\xea\xcf\x9bHS@'
tRp948
tp949
ag3
(g5
S';\xdfO\x8d\x97n&@'
tRp950
a(dp951
I80
(lp952
F-53.045122316798583
aF-26.954877683201417
asI81
(lp953
F-44.3607223115648
aF-35.6392776884352
asI82
(lp954
F-52.921351786119629
aF-27.078648213880371
asI75
(lp955
F-58.093079079130206
aF-21.906920920869794
asI77
(lp956
F-56.800387592795246
aF-23.199612407204754
asasI1211
(lp957
(g3
(g5
S'\x9e\xc6\xa4\\m\xe33@'
tRp958
g3
(g5
S'\xf2\xee\xa7J\x84QS@'
tRp959
tp960
ag3
(g5
S'\x87\x16\xd9\xce\xf7S\x03@'
tRp961
a(dp962
I84
(lp963
F-58.489110926593426
aF-21.510889073406574
asI76
(lp964
F-58.635946682926004
aF-21.364053317073996
asasI1212
(lp965
(g3
(g5
S'\xc0h$|\xce\xe33@'
tRp966
g3
(g5
S's\xff\x89x\xc8IS@'
tRp967
tp968
ag3
(g5
S'}?5^\xbaI0@'
tRp969
a(dp970
I80
(lp971
F-49.781167739833506
aF-30.218832260166494
asI83
(lp972
F-56.709021531551969
aF-23.290978468448031
asI82
(lp973
F-35.228912578072936
aF-44.771087421927064
asI75
(lp974
F-60.113227513931946
aF-19.886772486068054
asasI1213
(lp975
(g3
(g5
S'\x1d\x9b6F_\xe63@'
tRp976
g3
(g5
S'\xcc\xaf\x8bG\x8eSS@'
tRp977
tp978
ag3
(g5
S'm\xe7\xfb\xa9\xf1\xd2%@'
tRp979
a(dp980
I84
(lp981
F-37.280053890230903
aF-42.719946109769097
asasI1214
(lp982
(g3
(g5
S'\xfe\xf9\xae\xef`\xe63@'
tRp983
g3
(g5
S'\xe5Jw\xb6KLS@'
tRp984
tp985
ag3
(g5
S"\xb2\x9d\xef\xa7\xc6K'@"
tRp986
a(dp987
I80
(lp988
F-60.602864500161672
aF-19.397135499838328
asI82
(lp989
F-59.108973610739085
aF-20.891026389260915
asI83
(lp990
F-47.98952977062163
aF-32.01047022937837
asI86
(lp991
F-52.917924652679432
aF-27.082075347320568
asI87
(lp992
F-56.676021784465149
aF-23.323978215534851
asI88
(lp993
F-56.451305933169522
aF-23.548694066830478
asasI1215
(lp994
(g3
(g5
S'\x95\x89\x95\xb0\xba\xe63@'
tRp995
g3
(g5
S'\x90s\xb4\rPNS@'
tRp996
tp997
ag3
(g5
S'\x04V\x0e-\xb2\x9d7@'
tRp998
a(dp999
I78
(lp1000
F-57.916216809827162
aF-21.083783190172838
asasI1216
(lp1001
(g3
(g5
S'J\xb4\x05\x00\x9e\xe83@'
tRp1002
g3
(g5
S'\xde\xf5\xe3@\x19RS@'
tRp1003
tp1004
ag3
(g5
S'\xc3\xf5(\\\x8f\xc2%@'
tRp1005
a(dp1006
I85
(lp1007
F-38.141421931036774
aF-41.858578068963226
asasI1217
(lp1008
(g3
(g5
S'j \n$0\xeb3@'
tRp1009
g3
(g5
S'\xdbh\xc6\xc3wKS@'
tRp1010
tp1011
ag3
(g5
S'\xb2\x9d\xef\xa7\xc6KI@'
tRp1012
a(dp1013
I88
(lp1014
F-54.821750169793859
aF-21.178249830206141
asI87
(lp1015
F-43.214622302993163
aF-32.785377697006837
asasI1218
(lp1016
(g3
(g5
S'2\x93$\xdf\xd7\xeb3@'
tRp1017
g3
(g5
S'\xde:A\x93kMS@'
tRp1018
tp1019
ag3
(g5
S'\xf2\xd2Mb\x10X7@'
tRp1020
a(dp1021
I83
(lp1022
F-58.98159444371214
aF-20.01840555628786
asI86
(lp1023
F-50.074692016213987
aF-28.925307983786013
asI87
(lp1024
F-57.983476218249152
aF-21.016523781750848
asI88
(lp1025
F-46.003213972830665
aF-32.996786027169335
asI89
(lp1026
F-56.667663610427752
aF-22.332336389572248
asI90
(lp1027
F-60.493023388981982
aF-18.506976611018018
asasI1219
(lp1028
(g3
(g5
S'#\x02\xc4\x130\xee3@'
tRp1029
g3
(g5
S'E\x12{pPIS@'
tRp1030
tp1031
ag3
(g5
S'\xac\x1cZd;\xdf5@'
tRp1032
a(dp1033
I91
(lp1034
F-56.626468552278538
aF-22.373531447721462
asasI1221
(lp1035
(g3
(g5
S'\xff{*\x86/\xf13@'
tRp1036
g3
(g5
S'<o[B\xdbLS@'
tRp1037
tp1038
ag3
(g5
S'\xf8S\xe3\xa5\x9b\xc40@'
tRp1039
a(dp1040
I88
(lp1041
F-51.941473587909272
aF-28.058526412090728
asI89
(lp1042
F-44.227074752232852
aF-35.772925247767148
asI90
(lp1043
F-55.909121048594045
aF-24.090878951405955
asI86
(lp1044
F-58.542192031939763
aF-21.457807968060237
asasI1222
(lp1045
(g3
(g5
S'\xc6J\x0e\xd0d\xf23@'
tRp1046
g3
(g5
S'\x84T@\x902KS@'
tRp1047
tp1048
ag3
(g5
S'\x14\xaeG\xe1z\x14*@'
tRp1049
a(dp1050
I89
(lp1051
F-53.115772338154358
aF-26.884227661845642
asI90
(lp1052
F-38.761223616958418
aF-41.238776383041582
asI91
(lp1053
F-56.475803619677833
aF-23.524196380322167
asI92
(lp1054
F-54.600155044291142
aF-25.399844955708858
asasI1223
(lp1055
(g3
(g5
S'y\x7fr\xca\x92\xf43@'
tRp1056
g3
(g5
S'=[\xcd[\xf1IS@'
tRp1057
tp1058
ag3
(g5
S'\xe3\xa5\x9b\xc4 \xb0I@'
tRp1059
a(dp1060
I90
(lp1061
F-53.172945651255958
aF-22.827054348744042
asI91
(lp1062
F-44.972429056696967
aF-31.027570943303033
asI92
(lp1063
F-55.179879789966861
aF-20.820120210033139
asI87
(lp1064
F-59.032893945599938
aF-16.967106054400062
asasI1224
(lp1065
(g3
(g5
S'\x8fz\xfc\x9c\x8a\xf83@'
tRp1066
g3
(g5
S'f/\xdbN\xdbKS@'
tRp1067
tp1068
ag3
(g5
S'\x14\xaeG\xe1z\x14*@'
tRp1069
a(dp1070
I90
(lp1071
F-54.750769767590583
aF-25.249230232409417
asI91
(lp1072
F-58.989599745087787
aF-21.010400254912213
asI92
(lp1073
F-46.556824876918597
aF-33.443175123081403
asasI1225
(lp1074
(g3
(g5
S'K\x87wN\xed\xf93@'
tRp1075
g3
(g5
S'\x8d\xd4\x18\x00\xacLS@'
tRp1076
tp1077
ag3
(g5
S'\xc9v\xbe\x9f\x1a/%@'
tRp1078
a(dp1079
I90
(lp1080
F-58.223313047564659
aF-21.776686952435341
asI92
(lp1081
F-54.422169305679105
aF-25.577830694320895
asas.