(dp1
I0
(lp2
F-22.762001240074767
aF-31.037893307353002
aF-22.594895712554973
aF-18.942001076698347
aF-24.077514643524211
aF-8.6773429420440067
aF-35.584427683365575
aF-24.83941442057224
aF-18.980612825976152
aF-22.065119060088094
aF-22.30567664662172
aF-19.867610446998782
aF-19.584405213120363
asI1
(lp3
F-22.352517795314469
aF-22.178778289750838
aF-21.812227581696419
aF-21.738039830439874
aF-19.318538081308219
aF-25.006849869152916
aF-16.314807571941159
aF-24.139849738169318
aF-41.683268133961207
aF-31.269090068860208
aF-24.97817878429187
aF-18.362265759048071
asI2
(lp4
F-24.499549866776874
aF-25.70961432876345
aF-21.365145847261729
aF-19.476050809054598
aF10.33263142847548
aF-22.916326055120919
aF-18.27175952406526
aF-24.337234724713625
aF-23.180949931548525
aF-18.510338746258611
aF-40.495229051989696
aF-33.619331183409741
asI3
(lp5
F-30.122323071560217
aF-25.876023260165027
aF-9.5100019899518884
aF-19.393187532968966
aF-19.196519308470698
aF9.501427423970199
aF-23.690645997163898
aF-19.647392119685748
aF-29.661001592914545
aF-30.674660739357051
aF-19.282414623497203
aF-23.340307098418023
asI4
(lp6
F-25.207714165595576
aF-37.685340951173046
aF-28.365195853674351
aF-21.400227184468321
aF-20.057107141483755
aF-21.856329182270173
aF-19.700567304374388
aF-19.54641686955317
asI5
(lp7
F-24.26207862616333
aF-22.375579457740656
aF-23.466116920090798
aF-18.865158101517565
aF-21.392025033404437
asI6
(lp8
F-18.276920962343894
aF-26.542094070064167
aF-20.49176035436777
aF-20.042355182900735
aF-24.771410073510026
aF-27.847685330113748
aF-31.113043039708074
aF-21.527236979478971
aF-21.901378236134406
asI7
(lp9
F-22.686249929418295
aF-21.827141693075731
aF-25.835618328324784
aF-18.121205640645798
aF8.5344769870376354
aF-20.931186352066206
aF-22.052305028396077
asI8
(lp10
F-25.865260328240879
aF-22.055425738032312
aF-20.96643865870071
aF-29.479977581674007
aF-19.927218364021201
aF-40.369486957934768
aF-19.663568303964837
aF-24.844356243797392
aF-20.542970516211966
aF-20.39986026442638
aF-25.692814456354057
aF-22.723634196519697
aF-21.803725134758452
asI9
(lp11
F-20.715213407381057
aF-21.540377629589486
aF-20.013609759276306
aF-21.119478280298267
aF-21.108386337997644
aF-42.751550021028564
aF-25.38147179819083
aF-25.869476104505267
asI10
(lp12
F-38.206616035881964
aF-18.971349957264039
aF-25.619662209771732
aF-20.191407203903452
asI11
(lp13
F-21.20440420345804
aF-20.945132549201276
aF-21.953014627967775
aF-24.319942831543045
aF0.20475913175178562
aF-24.011002045420241
aF-25.557638775408662
aF-30.312989679827496
aF-19.052751354326489
aF-18.524816539569372
aF-21.116664552969013
asI12
(lp14
F-19.661886549808372
aF-24.827466420684857
aF-43.932813584457335
aF-28.952607548013461
aF-22.808613911579954
asI13
(lp15
F-18.885939025206653
aF-20.214603264854844
aF-7.9584260109837714
aF-15.404007013539143
aF-25.384550884308254
aF-22.519753453727589
asI14
(lp16
F-17.989476173090409
aF-19.374158058525055
aF-21.948038406607111
aF-24.638219113928699
aF-20.182967057312936
aF-31.902344188492094
aF-23.899071342872702
aF-31.417610020070285
aF-24.66618430341282
asI15
(lp17
F-20.49707781769888
aF-20.855347385369072
aF-25.424020367064855
aF-24.177526644965212
aF-22.479566154844434
aF-27.319994678399496
aF-20.685575884010063
aF-22.437128171735196
aF-19.765219412275769
aF-19.373894162576619
aF-23.304217962919864
aF-23.259039287735362
aF-33.691618152161382
aF-24.348035242037199
aF-29.112855657229375
asI16
(lp18
F-17.861351932610432
aF-31.031939427414528
aF-24.555478092466558
aF-42.228117457208512
aF-19.251323779533749
asI17
(lp19
F-21.845598784735159
aF-17.126540521546701
aF-23.857337486567673
aF-20.353456220923633
aF-26.348670182005122
asI18
(lp20
F-20.182948017272338
aF-22.633546769415858
aF-20.165938042031087
aF-19.424859885671111
aF-20.064539484197184
aF-21.334325435820034
aF-28.773244795888743
aF-31.808178234559435
aF-23.0988996685968
aF-22.681144775933461
aF-28.342539445533589
asI19
(lp21
F-39.629324905581029
aF-19.57680466533364
aF-28.898703843062492
aF-19.551764291276868
aF-22.391787901204196
aF-25.798261041934964
aF-21.257031804173607
aF-21.852708219749957
aF-23.916141314723419
aF-19.869700386427809
aF-20.669405381994764
aF-31.313002494329851
aF-27.351479076164424
aF-19.046226716341678
aF-27.057326229856926
asI20
(lp22
F-23.440559791389546
aF-28.179007364274582
aF-20.46167265781682
aF-13.771161631600606
aF-16.443357529781679
aF-20.465235003615632
aF-26.969226472232947
aF-20.614081588455079
aF-19.449703787176304
asI21
(lp23
F-29.868906087898026
aF-20.046511610396962
aF-24.585412957890867
aF8.7151697436275839
aF-20.320838644166983
aF-21.330825325669849
aF-25.424196263038539
asI22
(lp24
F-35.577323646934488
aF-26.294784478102898
aF-23.912560806051857
aF-17.241398421812349
aF-19.845189025530814
aF-22.631947516483365
aF-22.718348613289521
aF-21.476350720477313
asI23
(lp25
F-27.316190996660424
aF-22.812346775468967
aF-29.44308477909415
aF-15.303515651157312
aF-18.490862093533153
aF-19.815051349445511
aF-20.557378234879394
aF-24.848332658228117
aF-22.709256199907415
asI24
(lp26
F-22.447247310729267
aF-19.366111641898328
aF-44.685194109607608
aF-19.354189738403818
aF-15.441333499094156
aF-24.893145087212218
aF-23.213285254592734
aF-20.790954624528297
asI25
(lp27
F-26.175457520705123
aF-18.869377302677265
aF-30.234840639465546
aF-20.741302601918605
aF-24.884250062454626
aF-19.764399745979986
aF-42.68565097995554
aF-21.79292655795733
aF-23.706697297152971
aF-21.685036991424809
aF-26.08894305870146
aF-19.655032864475331
asI26
(lp28
F-28.834197056259512
aF-26.498315757120608
aF-19.50655548572999
aF-35.57003165967393
aF-28.232289013285367
aF-22.663775653793209
aF-22.206288743086958
aF-22.675533868070403
aF-22.874286569192677
aF-22.115031993283253
asI27
(lp29
F-19.514972818583146
aF-18.212177768033627
aF-19.609893787462084
aF-33.422516071502358
aF-11.344675627902618
aF-26.200759388772639
aF-23.08792320112201
aF-24.753965276428801
asI28
(lp30
F-20.889113803527152
aF-19.106721387217391
aF-19.953412510018595
aF-19.644637597916471
aF-18.457165911730755
aF-25.332543327237659
aF-32.070519251143793
aF-19.153531787751092
aF-22.019105359501097
aF-23.669701678186499
asI29
(lp31
F-25.412434777268146
aF-26.089073531256346
aF-22.178575097882998
aF-18.979486045183421
aF-23.754688383059289
aF-18.959342820092473
aF-23.960546361907078
asI30
(lp32
F-19.474720596916939
aF-21.396454473879317
aF-23.201067759214808
aF-20.380974920031775
aF-33.202216833728613
aF-20.811266386475495
asI31
(lp33
F-40.64120393282073
aF-13.998269901532126
aF-19.68600327570411
aF-18.367303867768584
aF-19.509274670705736
aF-25.775145045849001
asI32
(lp34
F-15.978698195776502
aF-23.981379844325716
aF-29.441288572209686
aF-22.557958475539976
aF-26.723643231794156
aF-22.670761745836046
asI33
(lp35
F-30.805461234506268
aF-19.602286639887154
aF-22.41372850602842
aF-22.502135241830757
aF-25.768339060997079
asI34
(lp36
F-29.475861065116348
aF-27.444412000574488
aF-29.417899300207921
aF-14.015975860408318
asI35
(lp37
F-25.353457830890648
aF-20.172292410175956
aF-19.33429379412641
aF-33.202262436669457
aF-21.873727822629789
aF-22.137751027639354
asI36
(lp38
F-19.311786055685573
aF-21.722949588779628
aF-13.717106606873287
asI38
(lp39
F-24.534991763114505
aF-20.232693217492951
aF-21.470700724174037
aF-20.342063479974655
aF-19.572031599840699
aF-24.115366715053483
aF-18.587502674044515
aF-27.274146823733275
aF-18.522758025859076
aF-21.011071399168131
aF-21.628344461887878
asI39
(lp40
F-22.37685476808133
aF-26.576184215791386
aF-9.9346438811177222
aF-23.159656730487569
aF-38.664690357317099
asI40
(lp41
F-20.236596233424223
aF-22.941397067525671
aF-23.372575689487576
aF-20.088238917084908
aF-31.341769410102671
aF-20.309809340614351
aF-22.953043174226991
aF-26.70803460803711
asI41
(lp42
F-23.229738341643014
aF-22.65933711741215
aF-18.326031339836703
aF-27.992372268966392
asI42
(lp43
F-22.028955734022958
aF-27.440208344420284
aF-14.498248074599502
asI43
(lp44
F-37.198367596425015
aF-16.146121667326582
aF-21.081193238014635
aF-10.392559619684192
asI44
(lp45
F-26.587809768206426
aF-29.209675933948887
aF-14.200320849379864
asI46
(lp46
F-20.373652100676011
asI47
(lp47
F-19.558307781069601
aF-26.474408997181712
aF-20.280739620000787
aF-20.982350130763777
aF-23.751610311860418
aF-25.236456983356646
aF-39.249310982766247
asI48
(lp48
F-25.282975759786652
aF-19.476607718517357
aF-18.404200266008559
aF-22.046020050795079
aF-16.789033167943387
aF-26.651476877242558
aF-18.452622359780378
aF-20.240503564739072
aF-27.786321244938563
asI49
(lp49
F-18.287391012600111
asI50
(lp50
F-10.226896647879329
aF-24.985544615638389
aF-21.676232097568288
asI51
(lp51
F-20.43628211027729
aF-30.010882309126401
aF-20.651978437167728
aF-29.823990117382237
aF-23.157617065789509
asI52
(lp52
F-30.361174643065894
aF-26.683387507268321
aF-23.43947624505725
aF-18.459271131648066
aF-16.755187223307757
aF-30.059995885876688
aF-17.725848982985454
aF-28.447524739253836
aF-16.039381296563306
asI53
(lp53
F-27.325275435900963
aF-25.048379915421236
aF-21.691196532745693
aF-20.522527888653812
aF-33.968701196173384
asI54
(lp54
F-33.830803912699579
aF-20.88355287834537
aF-25.34617139985005
aF-27.269410289985615
asI55
(lp55
F-28.700959375734016
aF-23.857976025008455
aF-22.363291661035561
aF-23.367166313206155
aF-20.998566529545272
asI56
(lp56
F-26.170281595351895
aF-31.210526029361432
asI57
(lp57
F-29.494923653254375
aF-19.66264718874298
asI58
(lp58
F-26.797067479753167
aF-27.83901042346136
asI59
(lp59
F-38.202240711614721
aF-21.591157012767212
aF-18.805919172826208
asI60
(lp60
F-19.521125267650461
aF-11.570638597580867
aF-19.678771160027367
asI61
(lp61
F-36.986713708118344
aF-14.588163053899464
aF-27.47011874150391
aF-26.823567695592402
asI62
(lp62
F-25.740915768651007
aF-26.511017074045057
aF-35.117045280621753
aF-22.253607501978891
aF-18.834030867195949
aF-20.805646573960416
asI63
(lp63
F-43.78142632006201
aF-29.768110261088466
aF-30.476571384881609
aF-18.632997198493825
asI64
(lp64
F-21.013188487004811
aF-18.766108973340565
aF-21.909592163251659
asI65
(lp65
F-20.221472700596962
aF-20.35706147539959
aF-26.596658510513066
aF-31.507390616591721
aF-16.27451795752026
asI66
(lp66
F-18.534033257636622
aF-31.304081133799031
asI67
(lp67
F-21.690480172265353
aF-24.180003985950037
aF-39.118667437673722
aF-28.123762138426883
asI68
(lp68
F-28.386668200872421
aF-20.288899090032743
aF-20.510252101952432
aF-23.198234920313269
asI69
(lp69
F-27.866847540022718
aF-27.095583585607599
asI70
(lp70
F-20.140965167525323
aF-33.107115138665208
aF-28.703346680860051
aF-20.429670688068313
asI71
(lp71
F-23.558826570260265
aF-24.373327198697012
aF-28.978315143084998
aF-23.622299058728686
aF-24.681718794809171
asI72
(lp72
F-22.896975989421691
aF-19.465381874555788
aF-23.319249868389761
aF-18.340578469539096
aF-18.278001748772795
aF-33.547186918708277
aF-21.471342751169459
aF-19.092729431670818
aF-20.198396614475399
aF-20.344057925250752
aF-19.147285371474766
asI73
(lp73
F-31.735706188362784
asI74
(lp74
F-26.173435865248138
aF-18.91668247546005
aF-16.811559712523859
aF-27.815283701843214
aF-19.824053895884219
aF-18.955773681327628
asI75
(lp75
F-20.569963724989094
aF-25.612358994794079
aF-24.603065794295475
aF-25.233164251987404
aF-27.071418442477068
aF-27.012686975528638
aF-18.671393344488919
asI76
(lp76
F-21.233455794867723
aF-21.548351265444126
aF-26.618099938526001
aF-23.528172292146053
aF-18.920916936105314
aF-22.482437687053562
aF-19.3016659724844
asI77
(lp77
F-51.116399226136764
aF-22.58603502285284
aF-19.251645452665286
aF-20.925473665840741
aF-19.591142032834767
asI78
(lp78
F-23.743288584250166
aF-24.716781349752139
aF-29.257698851350682
aF-28.839644273611569
aF-25.013161386957833
aF-15.799691321146398
aF-24.890998601748663
aF-20.670432597731178
aF-16.308747196570096
asI79
(lp79
F-18.246854748161056
aF-32.613253834948338
aF-30.58158127454513
asI80
(lp80
F-22.705286057052547
aF-21.31774097461043
aF-20.787798912100897
aF-19.542604699580806
aF-21.652294881225401
aF-23.716093202264233
aF-22.766729076693508
aF-29.589666863690383
aF-42.173589312715691
aF-21.863005180876883
aF-21.939183871615811
asI81
(lp81
F-13.263449815974596
aF-15.665404641054636
aF-22.811008970378822
aF-19.120991928858473
aF-24.740291899929375
aF-31.483957432292641
aF-19.369810492826574
aF-22.926417666756805
aF-18.022956965295734
asI82
(lp82
F-17.195720670119613
aF-27.265983818132497
aF-19.51496297684325
aF-19.144049374391074
aF-27.079674476371054
aF-27.527826691454294
aF-25.283008388192357
asI83
(lp83
F-15.437436641551812
aF-22.275964992028776
aF-27.88261219183471
aF-18.531774677519905
aF-28.650703982817731
aF-25.181662051693962
asI84
(lp84
F-21.544850848654733
aF-18.504596866360998
aF-16.295714884814657
aF-19.798647124423354
asI85
(lp85
F-25.705334103850021
aF-19.792490725212957
aF-18.938288682613617
aF-23.128592854429698
aF-28.633135665586849
asI86
(lp86
F-21.315709198968321
aF-21.750620701710488
aF-21.33585554390757
aF-18.319225489956352
aF-19.397568639475651
aF-26.858483049127642
aF-17.951093186752331
aF-27.273687711783978
asI87
(lp87
F-26.643768249226284
aF-28.552375898957962
aF-23.108363352361266
aF-17.449247881148608
aF-22.851448161418588
aF-20.59896788010083
aF-18.941774647771012
aF-21.599314592995398
aF-19.337039332394738
aF-27.296300901212746
aF-26.925972494905153
aF-22.457687066511681
aF-27.727277447352805
aF-17.651852995671959
aF-43.063544445205451
aF-26.341786694845325
aF-19.97257247426073
asI88
(lp88
F-25.413370528466459
aF-14.412432366482676
asI89
(lp89
F-30.388209996719866
aF-21.006919762691581
aF-27.55537470577643
aF-19.998837161633233
aF-14.755483430565164
aF-23.945471661547742
aF-19.341415874218313
aF-21.313164354281099
aF-24.27676671324798
aF-29.686076738706305
aF-26.33558367039393
aF-22.826018918068257
aF-28.371679320931975
aF-57.226614519999089
asI90
(lp90
F-21.378329321914379
aF-20.088573784776315
aF-20.805312321257276
aF-22.245927473092394
aF-21.977132059479558
aF-19.705868452215668
aF-18.778618820230847
aF-21.527680126891539
aF-21.014201826500127
aF-29.437986357981515
aF-33.883171108456708
aF-23.717564447455246
aF-15.797412545316945
aF-29.012742111682257
asI91
(lp91
F-24.453771526319116
aF-37.354204945297894
asI92
(lp92
F-20.485633751038876
aF-20.10917643428985
aF-14.696164382366135
aF-25.127788960960785
aF-27.769169397019169
aF-29.952831057139392
asI93
(lp93
F-33.064620561949539
aF-21.684199613245482
aF-28.410326750301451
aF-20.19581145073235
aF-14.789498888682118
aF-25.077283394653847
aF-19.355159064192861
aF-18.706762304791027
aF-20.399084705961656
aF-23.058224678479306
aF-27.80666498325516
aF-25.526197217718305
aF-22.279804884485515
aF-27.43522964575665
aF-37.042865981744328
asI94
(lp94
F-16.697879993729387
aF-24.271098105544183
aF-20.548179498138225
aF-23.390046254699939
asI95
(lp95
F-21.802277483171906
aF-37.821018574456559
aF-19.360626015142273
aF-22.321439836747729
aF-20.651280600058044
aF-22.467388672807388
aF-18.698658547018383
aF-18.369609938756199
aF-20.65429924728663
aF-19.750179264113399
aF-19.89003766149898
aF-22.947138992894352
aF-19.936749707335309
aF-21.016385414709674
aF-17.077398117543481
asI96
(lp96
F-27.920104464127689
aF-33.488701230922175
aF-27.107268498237687
aF-21.601632925157361
aF-20.814193501477121
aF-17.402864412711438
aF-19.557513556792827
aF-31.535726680104204
aF-22.526564612477955
asI97
(lp97
F-25.788492171490589
aF-31.963705205310134
aF-37.734059885614712
aF-23.36679715029284
aF-26.147618866097829
aF-21.028875273631741
aF-26.728974384033691
aF-18.483429828147621
aF-23.863431511404698
aF-21.243016540440493
aF-20.110986591154997
aF-20.37920071811844
aF-20.782082960324729
aF-18.362840165032537
aF-24.597483401165789
aF-17.667773944167948
aF-26.641283367955623
aF-19.879178842277128
aF-21.883274582219599
asI98
(lp98
F-36.176128355804792
aF-18.53927112586419
aF-16.30545435020656
asI99
(lp99
F-20.744453235082275
aF-23.659972233390334
aF-24.00022054850298
aF-30.534867345780455
aF-21.506617671220454
aF-27.24100679606147
aF-32.904545786672585
aF-21.002397841067506
aF-22.436520914777574
aF-22.053788477515639
aF-23.558706245367617
aF-21.348182854080903
aF-19.83387260496994
aF-18.409008797972092
aF-23.395239170799925
aF-19.417889859166536
aF-22.479741159648626
aF-15.828583365806679
aF-26.184936139576465
asI100
(lp100
F-31.227205929642864
aF-35.338826779831763
aF-29.081574652629143
aF-23.766480134403309
aF-24.243176758096581
aF-16.107388783233631
aF-19.651113298150946
aF-19.37233274946135
aF-19.688971652616857
asI101
(lp101
F-18.186620483059102
aF-41.085825305817821
aF-26.144645678452008
aF-21.435558375915306
aF-16.769179457173152
asI102
(lp102
F-15.366797111181143
aF-19.387995314595287
aF-20.438123129142568
asI103
(lp103
F-21.449834499029805
aF-29.916400253271561
aF-18.455006174869041
aF-24.257764515404205
aF-15.542674632537768
aF-0.27586170796364229
asI104
(lp104
F-33.202778270400557
aF-23.529409399812593
aF-26.128636888427266
aF-18.679219951307203
aF-22.113171744056359
aF-20.126220835592136
asI105
(lp105
F-20.300381151197016
aF-36.467727734762789
aF-19.969524367630981
aF-20.562136910529176
asI106
(lp106
F-28.280883574717706
aF-25.385979853035437
aF-29.785231545094121
aF-23.884062209964128
aF-22.967505499406016
asI107
(lp107
F-23.036870045114895
aF-25.045310768008392
aF-22.531913301308919
aF-20.471895320063155
aF-30.821850590773252
aF-18.787484733466982
aF-21.741464482807828
aF-22.70379843567099
aF-20.733237945785334
aF-19.040765234649115
aF-20.097853799289368
asI108
(lp108
F-19.8733214776409
aF-21.931177408481318
aF-19.790052894330046
aF-20.457605067380555
aF-25.947124100614644
aF-20.401840965682254
aF-24.636856170406105
aF-41.848384488369902
aF-18.985333882295038
aF-30.684871022822563
aF-21.932649146754258
aF-23.688484878792806
aF-18.629462412610394
aF-28.454968157786595
aF-23.752671075751039
aF-20.361402720285668
aF-23.635742119882849
aF-20.34078324334439
aF-21.791809947224309
aF-20.599213365832313
aF-20.933920057564933
asI109
(lp109
F-22.962329501581621
aF-26.126402790018645
aF-23.559318406054615
aF-27.361632009552736
aF-20.34254934048522
aF-26.515276343968154
aF-18.028628437424359
aF-21.277725078793708
aF-21.449853673033516
asI110
(lp110
F-20.625391327237807
aF-20.467723117009143
aF-21.102296626784522
aF-16.625711034720226
aF-8.7800026540443241
aF-21.330962114236826
aF-26.705782413705805
aF-20.706778763130274
aF-19.713433074951013
aF-22.528918342016084
asI111
(lp111
F-20.907457164512294
aF-19.694422300224943
aF-14.720914034337582
aF-18.820353470422219
aF-24.805220227589899
aF-33.960331990548653
aF-26.558909366024778
aF-24.71630846144744
aF-22.305848489783017
aF-31.058672788216484
aF-28.930249522136506
aF-28.715160496155036
aF-19.291602429684062
aF-16.908741289138277
aF-24.898813408863361
aF-21.938876396513578
aF-24.034423009941918
aF-21.822624974340386
aF-22.348177767481815
asI112
(lp112
F-10.862911844330114
aF-58.326555880037432
aF-25.619575678408069
asI113
(lp113
F-19.536684074555495
aF-21.880697711812616
aF-17.484973591217511
aF-33.272753473292582
aF-23.761638795962256
aF-12.711379942063814
aF-23.77193044096822
aF-28.029071602594527
aF-20.240198939025888
aF-22.115383652130561
aF-22.401559863276873
aF-22.194086457884708
asI114
(lp114
F-21.90687631680936
aF-19.780792922451909
aF-20.112758632459702
aF-21.155169932815141
aF-15.515419119333586
aF-22.044898361937314
aF-23.634968615283242
aF-20.239063560262053
aF-19.559478157168783
aF-26.90564259888211
aF-44.454102152120612
aF-18.904264861300092
aF-30.201587462817827
aF-22.126251584991365
aF-24.724291887977913
aF-21.188741603501128
aF-18.647552073754611
aF-23.480420844911407
aF-22.216215391160645
aF-17.747568939335977
aF-21.584798295285765
aF-19.635970047011767
aF-22.525672563189062
asI115
(lp115
F-20.115238162251018
aF-22.74717133377365
aF-30.135081411011896
aF-22.206457533727445
aF-26.559209769686717
aF-21.748640009141084
asI116
(lp116
F-14.331045497846375
aF-23.957158803145603
aF-23.000419813391318
aF-24.533233226427797
aF-30.700759043270267
aF-18.458658290864363
aF-24.113556849585933
aF-39.30352761987784
aF-23.671640985045798
aF-20.107369111883528
aF-33.48171160427114
aF-26.527834341014369
aF-19.043487351937046
aF-23.035567007967273
aF-22.055872304909713
aF-24.132492949802327
aF-20.436761608012546
asI117
(lp117
F-19.671519693240057
aF-16.752864102201386
aF-15.507225857926585
aF-20.494718349741873
aF-21.346173933381721
aF-26.31342102353932
aF-21.967893321528962
aF-24.721444161394516
aF-19.928141941705135
aF-37.519076211931932
aF-23.084293252186654
aF-29.843935801306216
aF-22.181894267000729
aF-22.466240770254686
aF-25.208065227927193
aF-24.699448605147708
aF-21.822540547940122
aF-26.406045171755778
aF-19.469878183502516
aF-25.017928718660855
aF-21.365913055827164
asI118
(lp118
F-17.9245200670412
aF-45.518244623621854
aF-27.460632516887571
aF-24.013232392795288
aF-14.881008632007791
aF-23.178614406579158
asI119
(lp119
F-20.876971386197511
aF-18.665496750418043
aF-19.715620053871902
aF-18.43348609796314
aF-19.942506973386784
aF-22.315888661444149
aF-23.24258102795217
aF-19.358112278972271
aF-21.640708539552691
aF-24.944377739025725
aF-19.071986599159686
aF-21.775210904966897
aF-27.575413822134024
aF-20.825030415790309
aF-28.760060115275692
aF-19.372951663507493
asI120
(lp120
F-20.593279666490787
aF-21.769563561334152
aF-20.257664384714147
aF-21.015232512320395
aF-26.808130319950465
aF-15.419819370693162
aF-27.306799224310296
aF-20.416826228758481
aF-23.61418657910491
aF-22.687262745384189
asI121
(lp121
F-22.625806114312979
aF-19.137624558226435
aF-20.061855248295828
aF-16.852822951937341
aF-19.077855565535543
aF-28.303833435336372
aF-24.112988769789524
aF-20.666657269774419
aF-26.436488206589075
aF-37.61117497724814
aF-30.17472215310967
aF-20.350285739925383
aF-23.11798212466249
aF-21.205420850678237
aF-19.309801784434228
aF-20.755147794741703
aF-23.288835750126765
aF-19.541844412107309
aF-22.009236989212681
asI122
(lp122
F-15.487012947308571
aF-17.705769571682879
aF-20.761202301904149
aF-37.638326187237396
aF-20.946506310027942
aF-27.404922075128908
asI123
(lp123
F-19.463953858086967
aF-19.884179676657283
aF-18.215583032380678
aF-28.481141477380334
aF-24.6949533525177
aF-10.49474759975277
aF-29.421120650529986
aF-26.02727839813393
aF-23.121633149857786
aF-20.699430881262444
aF-25.980195524555072
aF-24.380321445355463
aF-22.076326603650159
asI124
(lp124
F-20.744308130329784
aF-19.9585365788042
aF-23.581658371487308
aF-25.41121941273795
aF-20.707943321252372
aF-31.719933618859784
aF-26.67435879220595
aF-40.810092535145827
aF-25.691464406126457
aF-21.994876375357322
aF-22.087580973274186
aF-26.776693201990398
aF-29.053464006754936
asI125
(lp125
F-22.749384452993027
aF-20.102302877783757
aF-22.299833642633956
asI126
(lp126
F-19.121361694912849
aF-23.392868247567918
aF-22.703250065860743
aF-26.415225984300974
aF-31.310558912438722
aF-29.220159413814343
aF-21.771988462445563
aF-26.00043410720032
aF-19.611376783932329
aF-29.884401311458191
aF-26.801278599251887
aF-20.442140326863722
asI127
(lp127
F-24.339505996567709
aF-22.004368167358621
aF-17.631858609922517
aF-18.289929931661504
aF-22.130047157095788
aF-16.100177545066288
aF-8.1147256484593981
aF-22.13499581087963
aF-18.730412912159323
aF-32.024122828482703
aF-22.410165215302499
aF-19.606386502883041
aF-22.76419289488922
aF-27.856827138392418
asI128
(lp128
F-24.433888293929812
aF-21.443523992341284
aF-16.621481813794958
aF-20.486838990432432
aF-9.9789772951695568
aF-26.442553577101123
aF-27.247605822357087
aF-24.648507731493581
aF-20.989653467583338
aF-26.40460378490063
asI129
(lp129
F-11.378749622935032
aF-22.951271532364984
aF-18.85379990842037
aF-21.558904272651645
aF-10.990279042729441
aF-32.467034880859487
aF-22.197909305577227
aF-17.622928535553939
aF-28.868631750053169
aF-22.099648196411522
aF-28.35073523254087
asI130
(lp130
F-23.194840723161846
aF-20.031568858208345
aF-19.835093368411293
aF-18.913284287091443
aF-13.715262507271703
aF-18.884203306465594
aF-18.805866357175859
aF-22.392887877377973
aF-30.550567463919464
aF-18.394024528332238
aF-23.111458614959233
asI131
(lp131
F-19.376832900771902
aF-20.567256143704626
aF-20.471743680000742
aF-33.779049344253991
aF-21.043181781778884
aF-25.409333104421464
asI132
(lp132
F-27.167167481630628
aF-25.71999193127516
aF-24.559352348603653
aF-13.311872100298928
aF-20.899285646214565
aF-14.42762581833631
aF-14.124993936957736
aF-16.373927404275918
aF-32.104175307419638
aF-28.394143113537481
aF-20.287737516414552
aF-24.374612120526933
aF-15.86195629754414
aF-22.84978960112683
asI133
(lp133
F-14.558921130531871
aF-30.627336700699772
aF-40.997234484228812
asI134
(lp134
F-31.425704494577246
aF-25.564997340238762
aF-19.633710451343973
aF-21.874345915123541
aF-22.388733169275412
aF-20.358990381713525
aF-21.19927717227489
aF-19.191441203278217
aF-20.683701691632933
aF-24.414755569561464
aF-27.698552868194909
aF-23.538362239810766
aF-22.148780327005539
aF-20.056485065845266
aF-20.64178811197263
aF-28.88332286616118
aF-22.302655461498347
aF-25.655124173394597
aF-24.178799530678305
aF-23.729078574743212
aF-20.540899531677724
aF-30.098520145107614
asI135
(lp135
F-21.466317361821211
aF-23.916483842620593
aF-17.271227883412166
aF-21.136782558191555
aF-9.7141583738099087
aF-15.751563970661977
aF-17.464416251690793
aF-22.531790865489427
aF-30.649891207079492
aF-22.375562559677434
aF-35.794285723674165
aF-28.745261439992021
aF-24.234065629229107
aF-29.697740998047564
asI136
(lp136
F-23.072603865389368
aF-18.50977760719492
aF-33.739406291045299
asI137
(lp137
F-23.048888023373109
aF-10.800355346420162
aF-22.634350518971857
aF-39.957493143897111
asI138
(lp138
F-18.621243076117963
aF-20.081397871333692
aF-19.875892951865609
aF-21.62301400958151
aF-22.807019579577585
aF-18.713651623950653
aF-20.919217720351568
aF-23.825747391641627
aF-21.171054595324577
aF-31.63873674409831
aF-19.65712865559783
aF-31.452848577498571
aF-21.509837604242378
aF-25.352123892307986
aF-24.29688245576159
aF-21.043176718213658
asI139
(lp139
F-28.253009052904275
aF-27.861770059248116
aF-10.701199921323791
aF-21.958505810308466
aF-18.461707716040337
aF-20.791835210637885
aF-15.767927027887595
aF-18.3777522800182
aF-13.498363708773041
aF-20.037360455749024
aF-29.24122039121346
aF-20.574274275049561
aF-22.465002165189873
aF-30.120364111563887
aF-38.021782085976255
asI140
(lp140
F-22.521072008081688
aF-30.37590196538801
aF-22.488620690743716
aF-21.109251503044561
aF-18.091625338896108
aF-24.574335929076057
aF-13.525073488789531
aF-15.731403998233247
aF-16.78100504813122
aF-22.36385518110346
aF-21.5122625056582
aF-28.755640151456177
aF-25.301751577642776
aF-23.121330419766423
aF-34.190996630188636
asI141
(lp141
F-24.059707210825962
aF-31.277865382581496
aF-28.208179227981873
aF-17.213592953922685
aF-21.431846458832382
aF-20.194543350625466
aF-19.370241329125662
aF-21.43470440535981
aF-21.608902949219043
aF-21.330546463324566
aF-20.626048849159588
aF-26.452110133556033
aF-26.400426968578614
aF-21.956302330502382
aF-33.126676052555055
aF-20.708076625659459
aF-24.956109454365958
aF-16.629980760742399
aF-51.891748021531825
aF-30.965710437864487
aF-27.38852662628004
asI142
(lp142
F-25.869150106307217
aF-20.843258901179126
aF-24.473442356650054
aF-24.027961349650639
aF-22.157485998347568
aF-23.672572528371063
aF-19.763882729244898
aF-23.354285221443831
aF-20.719319263921108
aF-19.591840380517169
aF-22.238362907559178
aF-14.276326573394272
aF-23.410864975348858
aF-24.115589387212708
aF-20.770048456570692
aF-18.078024350693084
aF-28.68228409157561
aF-35.847433669451163
aF-23.026498568690897
asI143
(lp143
F-41.657159204119637
aF-28.651668876674051
aF-9.386223589780414
aF-20.151699762326217
aF-23.422699837835339
aF-21.663996147162081
aF-19.914668552268807
aF-19.03291937298161
aF-19.726652661612178
aF-13.492600858574406
aF-24.507550230288786
aF-23.569514638345552
aF-19.357165770055445
aF-23.461367644313242
aF-32.843087077715438
asI144
(lp144
F-25.709973956359008
aF-21.535142487300433
aF-20.961340664639991
aF-22.301588436731222
aF-28.978535091098138
asI145
(lp145
F-38.919252382767496
aF-30.202994403344036
aF-21.987786670350872
aF-26.057100743638387
aF-28.485428859225806
aF-22.98263907740818
aF-20.690028339669411
aF-18.664237043372481
aF-20.875907761301335
aF-22.307528452797229
aF-19.935384695111395
aF-21.03318581232999
aF-19.917219745662194
aF-18.553964359856593
aF-23.008482195646607
aF-22.518355131893927
aF-23.064898797073113
aF-22.733474525904796
aF-25.367309547421129
aF-21.782057489559577
aF-36.265457710075694
asI146
(lp146
F-45.010928933361342
aF-26.949685431706584
aF-22.685332823390581
aF-34.759416636697011
aF-14.276513514380071
aF-23.269795238294478
aF-19.303579562238937
aF-22.667555540794751
aF-16.446721531172471
aF-24.977996446675959
aF-22.696184731310296
aF-23.381188380480836
aF-14.107726134082483
aF-21.73338051661392
asI147
(lp147
F-34.261534284166657
aF-25.711908948385258
aF-24.832536225333271
aF-20.514864752207359
aF-19.836600160354948
aF-8.0209448378548984
aF-20.848603738476328
aF-19.592128990419127
aF-19.790770406123585
aF-24.72125338531643
aF-30.485793328272095
asI148
(lp148
F-19.698326118641234
aF-26.622137825638333
aF-21.825395042326676
aF-20.667117744411058
aF-22.028146303638749
aF-17.316105541017095
aF-23.901063181768521
aF-16.600529573875775
aF-16.871718488315793
asI149
(lp149
F-30.358744180138103
aF-10.245799374246744
aF-14.170007528991604
aF-17.167027466814091
aF-32.268565493242335
asI150
(lp150
F-25.307972221409784
aF-19.775420075252825
aF-33.012277742170539
aF-26.361975382437151
aF-19.035393198123117
aF-25.487589659433297
aF-21.050908055776205
aF-22.261107030909713
aF-19.212336626347962
aF-16.100533917346041
aF-18.340030336990452
aF-21.433525693412449
aF-21.943020098367839
aF-25.223302884846589
aF-15.7789719933035
aF-22.708934259298587
asI151
(lp151
F-26.144735879213016
aF-22.837736703383143
aF-18.723444707356691
aF-24.595750860379667
aF-25.344559083190219
asI152
(lp152
F-23.529454887715389
aF-30.866042898020879
aF-34.746992043717512
aF-17.737133960948128
aF-23.539633099883716
aF-22.651021205688465
aF-19.601104449269315
aF-18.805142930945919
aF-21.881570352933267
aF-22.53610945736132
aF-18.636344201231395
aF-25.588347034787475
aF-19.863842587527117
aF-23.079122379677813
aF-15.998765147741238
aF-30.127448906383634
aF-28.29782527508371
aF-25.901401155289236
asI153
(lp153
F-23.295632522085413
aF-20.419750513752973
aF-18.340312909374433
aF-28.089909611731144
aF-27.303948527401587
asI154
(lp154
F-18.313626948858683
aF-19.744092805675592
aF-37.700934871928027
aF-18.88212711708394
aF-20.837591143600932
aF-17.431971852335266
aF-16.259379972807693
aF-23.952821703816269
aF-20.674703085792061
aF-19.833390260429354
aF-20.212512019619567
aF-22.518781401335119
aF-22.221465591972276
aF-16.203703649806073
aF-25.471639968983027
aF-20.606975778747184
aF-22.42465053664661
asI155
(lp155
F-21.304577930734169
aF-25.048083914647563
aF-24.657203671439049
aF-13.73412613895438
aF-23.488936716696003
aF-23.070179299877083
aF-21.996407650768987
aF-21.84422663147032
aF-19.029995470176274
aF-21.476993472996156
aF-19.875488761031576
aF-19.605288487537393
aF-20.183630593394554
aF-19.894325039797479
aF-24.885193587880252
aF-24.650311911810661
aF-21.996061232654256
asI156
(lp156
F-36.378277265949663
aF-23.109786509939738
aF-29.256056230961335
aF-19.883312972387472
aF-13.887313677371452
aF-9.8781649211126137
asI157
(lp157
F-28.890479834087728
aF-27.980791118827952
aF-47.625252441577672
aF-30.837062671336213
aF-19.155109096718689
aF-20.945756623049576
aF-20.45439973038107
aF-23.523551623391057
aF-21.212120825293852
asI158
(lp158
F-28.235951398399664
aF-23.289929260792647
aF-24.097343087941383
aF-36.790937894287822
aF-13.859055050743876
aF-23.313784902009218
aF-27.168588080362369
aF-27.294612188893723
aF-20.376240583828206
aF-17.464434874683931
aF-20.999977075159649
aF-18.543209568542437
aF-20.343714578138673
aF-20.929924756136046
aF-19.346135442485689
aF-19.748425356565207
asI159
(lp159
F-25.795305340223564
aF-16.857901752331387
aF-19.938502543734757
aF-21.971622338667274
aF-24.203564777804388
aF-23.167416603885272
aF-20.489896919497426
aF-20.453095458187747
aF-19.378391579106562
aF-15.659696988373142
asI160
(lp160
F-26.483347632383328
aF-29.872570126241527
aF-14.43670179993282
aF-24.807831003267395
asI161
(lp161
F-21.959544714773642
aF-19.829395104062229
aF-27.508113317745412
aF-35.35463245163109
aF-28.276432847607254
aF-11.294182075892138
aF-23.225237618976649
aF-24.469717666177473
aF-21.71244270973159
aF-23.356998049501669
aF-19.179799736250544
aF-19.532785665383301
aF-19.937955733428367
aF-18.703044375220344
aF-20.912377038944214
aF-15.77365143258973
aF-16.187502545920935
aF-19.816800694782785
aF-24.272750669770033
asI162
(lp162
F-22.517794720447796
aF-25.550235397132781
aF-20.618442300037628
aF-32.587761605017661
aF-21.588852306801016
aF-20.24907420399316
aF-34.805238860322561
aF-28.338158717858718
aF-21.213778215079117
aF-20.482186454362761
aF-23.759602727452176
aF-20.520857253018477
aF-22.452080690592325
aF-20.056706649035306
aF-18.655293980886029
aF-19.526094989545797
aF-22.994410962426002
aF-19.530371428032367
aF-19.827588934131768
asI163
(lp163
F-26.586235668448509
aF-13.174353305329618
aF-24.610711644826836
aF-18.910749587304451
asI164
(lp164
F-13.097326279037247
aF-22.658250548191347
aF-25.320873391474436
aF-23.145237314405293
aF-33.48717166421244
aF-18.346732985590791
aF-20.17322545040409
aF-24.432224369123077
aF-17.827886750631976
aF-20.198923702873799
aF-19.361283625095496
aF-16.57705871542251
aF-19.345280459367885
aF-21.792855202531371
asI165
(lp165
F-13.959109237386542
aF-31.312262030341358
aF-19.283093463236909
aF-23.29252202443584
aF-31.208887913665862
aF-19.63291116739839
aF-21.107368063436155
aF-18.415585600035172
aF-20.291919290104147
asI166
(lp166
F-23.568493554755122
aF-21.918664249539034
aF-18.716522313761061
aF-23.133371032148375
aF-19.592176000032339
aF-28.982590141319776
aF-34.237679852039577
aF-26.656146841900053
aF-21.0508336078328
aF-15.454426434525502
aF-18.108626668640511
aF-20.945009597614842
aF-19.606021689969964
aF-22.308195348995213
asI167
(lp167
F-29.433395105413211
aF-19.147919699103255
aF-21.373738254421795
aF-16.816414435039647
aF-18.285380793210777
aF-32.988126749171272
aF-19.11134344005221
aF-22.071611947587627
aF-19.897338341614116
aF-25.554210323014246
aF-24.459850993131795
aF-17.132328564718819
aF-13.365140308906163
aF-20.694501227282046
aF-20.62483545546246
aF-20.166561601725761
asI168
(lp168
F-24.017918192259287
aF-26.452642324218743
aF-11.585398828804557
aF-19.881975130788703
aF-33.697151156969539
aF-23.083016384655124
aF-23.348507838199708
aF-28.324339468218852
aF-31.165896525219722
aF-21.480882762761667
aF-23.637393370170344
aF-19.643840337585203
aF-22.904825544748604
aF-23.344547572710852
aF-20.505801549720644
aF-20.011160760014164
aF-19.392095214562545
aF-19.514444761451514
aF-21.576862116408364
asI169
(lp169
F-14.073966080245512
aF-23.243711224920503
aF-30.273175795925624
aF-37.738542983978107
aF-18.78947141299173
asI170
(lp170
F-27.946618559186135
aF-23.183781941045496
aF-38.299539309719592
aF-23.14021342647375
aF-23.362328605277753
aF-9.7178824175752112
aF-9.9475811722760028
asI171
(lp171
F-21.575471955985464
aF-25.334808430286699
aF-21.254935863248022
aF-44.938384590851854
asI172
(lp172
F-21.768960990173611
aF-19.886125723236631
aF-21.210338141675919
aF-20.852544627740741
aF-24.51524224648368
aF-40.107776251194466
aF-19.605454686722169
aF-31.728212471519839
aF-23.777141460059497
aF-17.366268669602391
aF-21.026371173760964
aF-20.4431236686316
asI173
(lp173
F-18.537742829079193
aF-20.982856409315673
aF-20.693829092465606
aF-22.472378864695514
aF-22.105961728837769
aF-29.19008804276146
aF-14.834441178774171
aF-36.343265696729389
aF-23.458117609540324
aF-27.226886403058387
aF-25.059693174134082
aF-23.071350421941673
aF-19.322652565038879
aF-17.662151180635504
aF-13.390353360306477
aF-20.010855461733456
aF-21.172195880839979
asI174
(lp174
F-22.045914978751654
aF-24.930602014399057
aF-13.078365858784565
aF-30.378384726821636
aF-20.659279145585344
aF-21.516782819588741
aF-19.476986715131332
aF-36.393413675301005
aF-29.239599258198751
aF-24.328426667099961
aF-22.408506893335201
aF-19.797810674563976
aF-22.5973389851397
aF-25.158728924189759
aF-22.57008116606994
aF-19.890738515621081
aF-20.040922228720689
aF-19.290879085980293
aF-19.18890269853307
aF-19.296820350110778
aF-20.419826850004426
asI175
(lp175
F-22.986073333296872
aF-20.082671937313577
aF-17.310257625073362
aF-22.022111106195013
aF-27.498547739720351
aF-25.512395454204466
aF-30.628725774211318
aF-27.038677334040869
aF-18.870915146430377
aF-19.9665244944579
asI176
(lp176
F-20.959672654353156
aF-21.65992279076454
aF-16.917618415177927
aF-21.953901126080325
aF-25.420455666718979
aF-26.249623288526635
aF-20.827647762730066
aF-35.68069127566369
aF-21.903259393871963
aF-27.182658236917263
aF-18.519614311391081
aF-22.169621251592446
aF-24.027674406105973
aF-16.03656889241455
aF-21.986932688643066
aF-18.360232932631618
aF-21.854583079835407
aF-19.724356937596966
asI177
(lp177
F-21.296385583056221
aF-19.497435194267766
aF-18.636036094478797
aF-16.299652073264795
aF-24.412341171439607
aF-20.130233901483095
aF-20.077778287464156
aF-19.282165392854381
aF-18.51567487045304
asI178
(lp178
F-26.968014273156001
aF-34.968994781963573
aF-32.676424520178529
aF-23.086807574216039
aF-22.930693213463243
asI179
(lp179
F-21.15312539955282
aF-23.275835766601531
aF-24.186281919378928
aF-28.026354416292037
aF-23.903122695019931
aF-32.782877232948564
aF-19.52125482638516
aF-32.162485863074366
aF-19.789030996296063
aF-23.85420249672319
aF-31.196357745998569
aF-25.262097532074534
aF-20.690627199911177
aF-25.249957172404791
aF-22.604368644869751
aF-20.347378491420073
aF-19.573126037612496
aF-19.358634182103543
asI180
(lp180
F-22.619116848484481
aF-20.834724114585782
aF-26.498918868923397
aF-30.141264834110075
aF-21.05112669613321
aF-16.598651318777215
aF-22.835012979560062
aF-29.382857559182668
aF-20.767873173942121
aF-17.046612499113735
aF-25.133778103749194
aF-23.429003728120591
aF-21.005862901057128
aF-22.120816296523913
aF-19.605754245510568
asI181
(lp181
F-22.226260718053283
aF-20.721631131305543
aF-23.875805263220457
aF-18.997331212205282
aF-19.320232024537873
aF-32.733394789172166
aF-22.817773624732013
aF-23.813190098805819
aF-21.341393606899146
aF-20.542753160035247
aF-24.335209003912112
aF-21.021753743235294
aF-10.203728072277016
asI182
(lp182
F-20.386441479401697
aF-20.065403180810961
aF-24.298407670409389
aF-19.412650314822969
aF-26.24855325442644
aF-29.972496831192828
aF-28.525806056492755
asI183
(lp183
F-18.606403350161472
aF-19.430157972244018
aF-21.565177671396725
aF-20.924507173662107
aF-19.96332623243066
aF-25.352918308253706
aF-19.960207012084709
aF-18.275958248648152
aF-28.802174466493454
aF-22.146431236931392
aF-28.79989195202981
aF-25.315559052965355
aF-20.33934913750555
aF-21.834226817640044
asI184
(lp184
F-20.074610355145381
aF-22.182737095549442
aF-21.247428206356062
aF-24.4709579073958
aF-24.85782180330915
aF-30.235997741696181
aF-20.790478223879958
aF-28.515539803873679
aF-18.800389922231261
aF-22.660533637363656
aF-34.682307430296689
aF-29.977184391257126
aF-23.086292969673877
aF-27.064538821743042
aF-21.456456717685882
aF-25.731973003026951
aF-19.645317820641594
aF-20.900056463552204
aF-21.626622013816899
aF-20.837334435548343
asI185
(lp185
F-20.052887955621642
aF-19.334083559166032
aF-14.782347829207708
aF-22.013414325851556
aF-14.366840959193169
aF-22.40003006163461
aF-20.704243756576091
aF-19.560185272095438
aF-35.993750742214615
aF-24.151682531771073
aF-29.312693862123737
aF-18.372417377947087
aF-20.127422878793539
aF-21.873338137004623
aF-19.982660000319115
aF-27.041107243687023
aF-21.879790613188248
aF-20.039479016567469
asI186
(lp186
F-7.1100262413786481
aF-22.104570186049074
aF-9.5367597669978892
aF-26.350965991260438
aF-17.06271665564752
aF-39.928748189197023
aF-23.387807072010247
aF-18.328259243803089
aF-22.782296665974016
asI187
(lp187
F-21.833916629830298
aF-18.812159950193404
aF-19.996576229242208
aF-18.436826982819753
aF-21.154270024792027
aF-29.540479133478755
aF-23.30250801466093
aF-19.908553778739147
aF-30.06296185631912
aF-10.147044323756774
asI188
(lp188
F-19.196873079027938
aF-24.681579809188491
aF-18.750980338818323
aF-23.563529603202738
aF-32.996099036119318
aF-29.514192200778496
aF-20.946916421118203
aF-13.566375956152228
aF-20.484102169478291
asI189
(lp189
F-19.608744859821272
aF-11.529241404699292
aF-25.547083162363009
aF-21.137234702462777
aF-27.472108229450924
aF-24.697752494175091
aF-33.621683844240522
aF-20.706103364620304
aF-24.798992333279344
aF-20.180219846181245
aF-29.219516371599667
aF-18.312750962471938
aF-26.709303231261657
asI190
(lp190
F-17.358280157330228
aF-22.744475880582115
aF-46.708619737803929
aF-23.7799963408672
aF-29.652046382146267
aF-21.486515390245501
asI191
(lp191
F-19.944236770177724
aF-9.3811292722206474
aF-18.938659033165351
aF-19.920873096403653
aF-23.22057726289728
aF-21.036095357081066
aF-25.317202002862544
aF-19.758364109732327
aF-22.352091010662278
aF-21.258371280113352
aF-27.372524213713717
aF-41.055262709873134
aF-20.433251275196227
aF-22.768732351924584
aF-24.15326358930642
aF-28.289604316321572
aF-27.847962395827011
aF-20.771742723166113
asI192
(lp192
F-21.51931327563122
aF-22.3699099945228
aF-19.804301978187254
aF-19.324891444430378
aF-18.481832953895463
aF-20.647713195955774
aF-26.960474383348895
aF-24.626884471113783
aF-23.543463190769415
aF-19.256845610640852
aF-24.019339077738024
aF-20.761349243872985
aF-22.251032237934169
aF-34.369404894960553
aF-22.456390237544696
aF-16.297070509728428
aF-23.506846732555104
asI193
(lp193
F-21.139013123004844
aF-18.71240401485818
aF-15.859583926020036
aF-22.320806604592264
aF-19.258723196788054
aF-21.493016854471904
aF-26.033682634467993
aF-18.540681940172846
aF-22.96397806562419
aF-18.6737776196113
aF-32.095749803494243
aF-30.603523227208285
aF-23.380973418225238
aF-22.839526917403674
aF-21.176210478787652
aF-25.689607447426141
asI194
(lp194
F-28.379699380288343
aF-22.422971187700227
aF-23.836687708168654
aF-20.471770890422519
aF-20.583927476581636
aF-22.738890108751434
aF-15.703569944354129
aF-28.9850797788622
aF-25.138261557471765
aF-38.901814170798446
aF-20.3962479863429
asI195
(lp195
F-18.03977559367911
aF-17.293870799894449
aF-21.090505576835298
aF-28.272491111877855
aF-22.644628248905462
asI196
(lp196
F-11.23603818829703
aF-20.095546196396739
aF-19.649168261748159
aF-19.395881293328401
aF-18.445183270138969
aF-21.334063189014401
aF-26.486807704498133
aF-17.295852273507805
asI197
(lp197
F-25.213847314924806
aF-10.342926020369958
aF-17.298006424940652
aF-19.126034556189921
aF-18.310541259220201
aF-19.1055130530778
aF-21.490866791000045
aF-23.560878382204052
aF-19.690257872377984
aF-20.82878012878642
aF-23.844464665578371
aF-26.559882149533379
aF-37.701043776509493
aF-17.953813555936605
aF-24.179441453121242
asI198
(lp198
F-30.405591559227176
aF-32.483225734734816
aF-27.849033283399478
aF-18.978574084886276
aF-21.792396743158662
aF-19.19059688209434
aF-19.277761936479408
aF-17.118511703223447
aF-21.134875914112726
aF-25.461811917542732
aF-26.554318570669324
aF-15.747602288173582
aF-25.242306257967584
asI199
(lp199
F-19.418525533791794
aF-20.924226706843712
aF-23.908814846128593
aF-16.957703822696999
aF-19.321180159336308
aF-25.455127003394722
aF-32.88094600132294
aF-24.506199220021657
asI200
(lp200
F-20.989210723838113
aF-19.988277218377476
aF-24.770883372042462
aF-27.259690667541406
aF-20.102989203899369
aF-21.054664926691387
aF-20.094561154115468
aF-20.342059812408621
aF-22.158778357018832
aF-35.708154941036469
asI201
(lp201
F-21.652189002133269
aF-32.742543719771874
aF-23.405152565004315
aF-9.8824244040474696
aF-22.239024963928557
aF-21.891263949896256
aF-20.487274978151504
aF-20.443958073028682
aF-22.495571424046872
aF-21.190514057338888
aF-20.566918268481061
asI202
(lp202
F-21.488514617154607
aF-27.104978468571602
aF-41.374382931500463
aF-21.050251938225344
aF-12.809558323623165
aF-24.71543628776773
aF-19.956294216953253
aF-21.066283324176652
aF-19.992101189136505
aF-22.962603664851443
aF-10.076848176231749
aF-22.319782491149681
asI203
(lp203
F-21.505620314186132
aF-17.331846844698077
aF-39.239703175862928
aF-16.616264462965162
aF-22.789950542853731
aF-15.297255685908297
aF-19.861366266932635
aF-21.852425197710886
aF-25.48413451963323
asI204
(lp204
F-28.33370538046168
aF-14.905627145624607
aF-22.823570911994494
aF-34.702327994267407
aF-19.76237952795951
aF-24.455776488363512
aF-19.412708439252498
aF-23.701762084121228
asI205
(lp205
F-27.288838377831979
aF-19.174999104673518
aF-18.854848485095317
aF-17.904878127181746
aF-26.902015956843599
aF-19.422644359398603
aF-26.177752390999416
aF-20.654182320516227
aF-21.359707670282063
aF-22.054877224834598
asI206
(lp206
F-22.899033936547568
aF-23.276579106803553
aF-26.526854388003585
aF-21.025713128510745
aF-33.418641517122268
aF-10.906931642715335
aF-19.771980611655678
aF-21.53277747747947
asI207
(lp207
F-21.948454668361478
aF-16.169776681092031
aF-14.939412756841392
aF-26.253596284430969
aF-21.099597992238699
aF-36.387147397716973
aF-24.142637887883794
aF-21.855587335115061
aF-15.967837413771463
asI208
(lp208
F-16.01972075610027
aF-23.882924259246138
aF-19.274065719824875
aF-19.800595715163468
aF-52.128785632463888
aF-21.203446043493557
aF-16.224741343911674
aF-28.30478820936996
aF-20.13681708649716
aF-19.84406312100046
aF-17.35834478838845
aF-15.543265237737899
asI209
(lp209
F-14.931273861858841
aF-10.408128446706868
aF-22.185104441024606
aF-24.973722675971899
aF-27.239930300474455
aF-32.608782562215978
aF-24.188175894761031
aF-19.556801596047137
asI210
(lp210
F-21.361754776380323
aF-22.6807064072473
aF-23.14039676163533
aF-24.545894218417061
aF-21.476697822389184
aF-29.173676885517949
aF-20.304950347586981
aF-21.421192049733889
aF-19.680969183162532
asI211
(lp211
F-21.841423568456264
aF-22.546565470115468
aF-25.658535918586935
aF-25.928662637572728
aF-20.572645099314201
aF-30.419577716314549
asI212
(lp212
F-18.998393319047054
aF-22.813151950779343
aF-22.597690885322876
aF-37.438804928801332
aF-23.416488101395231
aF-27.9506659276161
aF-18.274328835679171
asI213
(lp213
F-35.501007203169721
aF-22.476047044660334
aF-26.929920271442114
aF-30.409893733242654
aF-28.86340524627677
aF-22.502915030662734
aF-18.931337193291483
aF-21.241595462576271
asI214
(lp214
F-19.875616490522802
aF-35.940936314121316
aF-25.580813393982524
aF-21.057200315269355
aF-19.502221364487497
asI215
(lp215
F-29.790989366947372
aF-23.316771819861415
aF-29.590159274491015
aF-39.438457392497639
aF-31.511088252789307
aF-23.401646368796889
aF-23.306539491248131
aF-18.479602863089085
as.