(dp1
I0
F-28.478824863854356
sI1
F-35.688163202961604
sI2
F-10.385037987373607
sI3
F-20.36339332660026
sI4
F-12.436073430592657
sI6
F-25.467289797399573
sI8
F-15.345224923388443
sI10
F-16.807135516296995
sI11
F-12.580702940126272
sI13
F-20.428954688482406
sI17
F-16.144624567419584
sI18
F-27.14784054319027
sI19
F-11.833319108251217
sI21
F-14.624926790020353
sI24
F-18.697834061192395
sI25
F-17.794706039114573
sI27
F-21.05891155513163
sI28
F-0.32253048179100574
sI29
F-28.863557253377806
sI30
F-7.999856010374458
sI31
F-20.24996305639435
sI33
F-24.517627751826879
sI35
F-21.383272556473997
sI36
F-32.884686191175632
sI37
F-21.836018671784274
sI38
F7.3870513344047026
sI40
F-8.4010681072289373
sI42
F-20.07432216549266
sI43
F3.4654959136266825
sI44
F-23.028143033630869
sI45
F-27.134598811255842
sI46
F-12.364821107387883
sI47
F-20.625352539089334
sI49
F-18.001312355273029
sI50
F-6.6493220393647334
sI51
F-20.234630425104541
sI52
F-28.343885448208326
sI53
F-31.159841823311183
sI54
F-8.7193062199295639
sI55
F-18.579445543837608
sI56
F8.7065887275334717
sI58
F-4.2638616997763705
sI59
F-8.7699179485021546
sI60
F-15.679028432982591
sI62
F-22.708960487734331
sI64
F-7.3107509309270711
sI65
F4.7190313065760421
sI66
F-20.757527469128405
sI67
F-3.3494197279762545
sI68
F-19.931988726783544
sI71
F-20.378923250216857
sI72
F-21.129587673975863
sI73
F-24.689416893756743
sI74
F-22.870507577640808
sI77
F-22.903103621809393
sI80
F-24.297649879966883
sI81
F-22.848224262442287
sI83
F-19.697839254033454
sI88
F-21.493630647351679
sI89
F-21.040481071089516
sI90
F-21.833332839908081
sI91
F8.4777976034759206
sI92
F-1.0202776080098914
sI93
F-15.771862443832603
sI94
F-37.028719066240697
sI98
F-22.957013859316447
sI99
F-21.74635251160538
sI102
F-22.278635131251846
sI103
F-7.0387289497131746
sI104
F-15.997785585401459
sI107
F-24.385714604734261
sI108
F-32.263783650094709
sI109
F-20.656976561053568
sI110
F-23.9900598411798
sI111
F-21.914555065452745
sI114
F-29.87866937487226
sI116
F-19.293226777732002
sI119
F-21.049343003790341
sI120
F-0.69388891226205374
sI121
F5.130787561620437
sI127
F-3.2197421326079052
sI128
F-28.059948754134325
sI129
F-26.961767823455475
sI132
F1.1729965716889694
sI137
F-20.136163166676226
sI138
F9.6770290351632013
sI140
F-16.570522663326557
sI141
F-20.302411175134594
sI143
F-28.308478543747896
sI144
F-27.295184665047614
sI146
F-3.2165087560975678
sI147
F-26.265265762749578
sI148
F-20.42869979260459
sI149
F-25.631955896425069
sI150
F-18.346772863544629
sI155
F-20.522251791282088
sI159
F-19.930070877905592
sI161
F-9.9787451896993673
sI162
F-32.453222620095687
sI163
F-29.835351905674628
sI166
F-23.776537554972364
sI167
F-14.515271781278486
sI168
F-37.168602727245897
sI170
F-21.476642780797505
sI171
F-31.185269969519055
sI172
F-15.871187525091599
sI173
F-31.730481315475117
sI175
F-14.38645494386725
sI176
F-7.6410245349200778
sI177
F8.1995625370883261
sI178
F1.2060195792954573
sI181
F-19.871743788059376
sI183
F-16.600775646560166
sI184
F-20.445188038527562
sI187
F-6.659020730616902
sI190
F-17.017783075163294
sI191
F-28.480761355897556
sI192
F-18.707313505628434
sI194
F-9.6741069018969341
sI195
F-43.877577123443174
sI197
F-2.6366886484510843
sI199
F-24.629554488228166
sI202
F-24.97722696633069
sI203
F-36.94032850237673
sI204
F-21.406961125660843
sI205
F-24.25505768721942
sI207
F-20.358435034198521
sI209
F-19.929617268926435
sI210
F-33.928060174891385
sI211
F-19.406266508306075
sI213
F-19.094191175449126
sI215
F-25.399607648740187
sI216
F-16.951963480655849
sI219
F-27.448086491536444
sI220
F-1.2647173276054104
sI222
F-18.013590774462955
sI224
F-18.564205244483716
sI228
F-19.216281631558303
sI229
F6.8701623420689373
sI230
F-22.100766818042615
sI231
F-21.160885633257863
sI233
F-29.545915698931566
sI234
F-22.306678802902255
sI237
F-30.799075550729867
sI239
F-15.85683950000498
sI240
F-18.502560914846327
sI241
F-19.992803657909519
sI242
F-25.499649206412641
sI244
F-16.544744635992444
sI245
F-29.67515259585241
sI246
F-28.31166819627407
sI247
F-2.0377782997328637
sI251
F-19.061886404308012
sI252
F-20.779396312850281
sI253
F-15.100431654746316
sI254
F10.804500088541914
sI255
F-18.242406763921068
sI259
F-20.984519933708398
sI260
F-22.033085770269849
sI262
F-19.67269918039274
sI263
F-11.638802389480361
sI264
F-22.80643519912708
sI265
F-2.6516327799408828
sI268
F-16.415863185428691
sI269
F-21.012641642860387
sI270
F-0.94682989570256382
sI271
F-25.878199005567794
sI272
F-24.809675133472496
sI273
F-19.741218257211528
sI274
F-20.169302134232296
sI278
F-19.811352675571698
sI280
F-16.901471753555796
sI281
F-23.715152922492805
sI282
F-29.882559381493138
sI283
F-29.298477951761896
sI284
F-47.664063763269027
sI285
F-34.684836939651177
sI286
F-28.951993204013519
sI287
F-23.978730825568789
sI288
F-24.618361134584688
sI289
F-13.620081057186809
sI290
F-20.543851590303916
sI291
F5.2737777253880438
sI292
F-10.377688592258863
sI293
F-22.59264019966993
sI295
F-6.9994274094358104
sI299
F-22.218376092307395
sI300
F-11.919552471593093
sI304
F-25.273863538171753
sI305
F-23.199211423580081
sI306
F-2.2940836148110293
sI308
F-24.443702300425883
sI309
F-17.058566872469839
sI310
F-20.622547616194041
sI312
F-4.9149690657726239
sI313
F-21.643054091606032
sI314
F-15.453208650216808
sI315
F-10.706924046929728
sI316
F-14.433141538517617
sI318
F-24.23774968836787
sI320
F-15.846454450387512
sI322
F-20.473587003292778
sI323
F-14.674931475168762
sI325
F-12.671531317077651
sI328
F-15.792122197471699
sI329
F-32.179336884447395
sI331
F-25.63683778884446
sI332
F-34.379488549309045
sI333
F-33.379787728511388
sI334
F-29.476282126635056
sI335
F-19.832248115743369
sI336
F-20.682879450241273
sI338
F-24.310859555478345
sI339
F-16.341093801890196
sI343
F-29.965603584888299
sI344
F-18.487812541258918
sI346
F-12.738501807972966
sI347
F-22.608882280901554
sI348
F-16.020952611662267
sI349
F-33.83109882556235
sI351
F-20.452339190966157
sI353
F-20.997682588483244
sI354
F-16.482673262057659
sI355
F-28.47530250444035
sI356
F-21.916579215464424
sI357
F-26.136536069679707
sI359
F-25.444378621477838
sI360
F-18.831375819759842
sI361
F-23.647692992993825
sI362
F-11.124059376955756
sI364
F-34.079064631876861
sI365
F-23.636558142221759
sI366
F-17.808025384475741
sI367
F-23.564499020563773
sI368
F-31.25223909655567
sI369
F-22.746145235046583
sI370
F-21.573121436999969
sI372
F-20.192474352607263
sI373
F-18.751617856396024
sI374
F-15.231660932134176
sI376
F-19.962038762057261
sI377
F-22.710414834846091
sI378
F-23.856488641162031
sI386
F-15.346379846283966
sI387
F-24.920644422257581
sI389
F-18.572156742730229
sI390
F-17.716421641027608
sI391
F-22.036777050945744
sI394
F-30.846357766594949
sI395
F-18.963555364000371
sI396
F-36.323939659174044
sI397
F-21.813742276314684
sI399
F-32.275330266458766
sI400
F-14.789163627165976
sI401
F-31.748214688722086
sI402
F-11.202604622777429
sI406
F-27.393830227263948
sI407
F-0.89119593830187682
sI408
F-22.814921909358503
sI413
F-20.570397224011856
sI414
F-19.932619369366961
sI415
F-26.307105307248534
sI416
F5.8185354005017018
sI417
F-24.233469861746372
sI421
F-28.501206108511141
sI424
F-20.257682142634593
sI425
F-16.833816883906536
sI427
F-19.319708267449712
sI428
F-23.593538113021594
sI429
F-24.699396072146627
sI434
F-21.804779100544295
sI436
F-18.646225321373223
sI439
F-19.3030985884605
sI440
F-15.265334456543343
sI441
F-18.856248587217834
sI442
F-0.39208108850178292
sI443
F-26.611504339292779
sI449
F-12.16556804254418
sI455
F-15.526357555423516
sI460
F-15.886301242015037
sI461
F-24.501365700285788
sI462
F-24.015682270897358
sI465
F-30.547260096240194
sI466
F-19.550049129771878
sI467
F-17.933056570582181
sI468
F-9.4019714676667121
sI469
F0.56108010152198062
sI470
F-21.997826715490049
sI471
F-22.583458463377923
sI472
F-47.416731835874941
sI473
F2.2071043010416531
sI475
F-19.611608341429729
sI476
F-12.43171552589682
sI477
F-20.107552716154984
sI479
F-13.560134273693876
sI480
F7.3553405866404091
sI482
F-9.6972116671096558
sI483
F-29.560647430887187
sI486
F-26.802370461094114
sI487
F1.7980948424757912
sI491
F-34.229494977907805
sI492
F-15.162526184702017
sI494
F7.6745600794465076
sI495
F-39.625998481884935
sI500
F-19.355989263991177
sI501
F-25.749575591722703
sI502
F-19.749193981220998
sI503
F-8.2756990551328897
sI504
F-20.840579736328877
sI506
F-27.761790651885519
sI507
F7.6799270616057527
sI508
F-33.192586606748748
sI509
F-21.756397600204764
sI510
F-16.254762667875042
sI511
F-7.440101742607709
sI512
F-34.47575848075104
sI515
F-27.72106760400618
sI516
F-15.001925411193724
sI518
F-15.246951874580276
sI519
F-18.981702031012901
sI520
F-23.463767273596403
sI522
F-32.988386851786146
sI523
F-20.475454343805836
sI524
F-20.110548049713202
sI527
F-32.149012146586372
sI528
F-28.820442560142013
sI529
F-28.54492801539584
sI532
F2.6272382166597481
sI534
F-27.421252170260814
sI536
F-21.831430422429037
sI537
F-10.802081117773639
sI538
F-23.539785855875238
sI541
F-31.093348110465172
sI542
F-25.325400127274847
sI544
F-40.700522234636665
sI545
F-25.001248419624091
sI547
F1.1143647546057309
sI549
F-27.761461142415726
sI550
F-30.701173434168354
sI551
F-27.752351594866639
sI552
F-45.022025202573133
sI553
F-24.736618528473684
sI554
F-13.049769222552214
sI555
F-16.236042107995672
sI556
F-11.380365841264393
sI557
F-28.264726612047099
sI559
F2.0535891381526312
sI561
F-28.187531950166559
sI565
F-15.336373041843473
sI566
F-16.078306598345321
sI568
F-19.072676352452973
sI569
F-37.392985845935428
sI571
F-14.382803044402294
sI572
F-22.063115418220519
sI574
F-23.887141034297059
sI575
F1.0655922833769296
sI576
F-25.470845861476093
sI578
F-27.655117423584755
sI579
F-21.341358147766385
sI580
F-19.454135054493335
sI584
F-19.074295226341064
sI586
F-9.2458989087058256
sI589
F-24.00454154410528
sI591
F-17.327239204861073
sI592
F-18.731355167487308
sI593
F-25.847219138295884
sI595
F-21.038698067666317
sI596
F-16.260412479963236
sI598
F-29.880035309000377
sI600
F-45.430992727838117
sI601
F-22.872089247229923
sI602
F-31.242848042287449
sI603
F-30.246608430501524
sI609
F-22.949299038078507
sI611
F-15.341574635502781
sI612
F-15.676200809302415
sI613
F-28.303446033321563
sI614
F-26.311373183265928
sI615
F-7.0749282636105875
sI616
F6.1061150491004241
sI617
F-28.881264774519792
sI618
F-37.341309706552551
sI619
F-13.41016808877967
sI620
F-12.065578108947562
sI621
F-22.815808123602807
sI623
F-29.499020617140161
sI626
F-14.298414598787843
sI627
F-25.104777491130307
sI629
F-19.053611815495429
sI630
F7.1835722121295476
sI631
F-20.663456266955265
sI632
F-27.926291704114249
sI633
F-30.930781432076202
sI634
F-23.404772987686329
sI635
F7.6739853502893425
sI636
F-16.572672556492947
sI637
F-23.236558609190837
sI638
F-23.253046206297398
sI642
F-24.33397952016314
sI644
F-20.816426432907321
sI645
F-21.220646914160938
sI646
F-25.092490826757967
sI647
F-20.589129157929477
sI649
F7.1165152735739809
sI652
F-0.6746670300493065
sI653
F-23.238421844933214
sI655
F-11.628249534634435
sI656
F-31.774657947287835
sI657
F-20.130163018512746
sI658
F-27.120000400805125
sI659
F4.9542318747197953
sI660
F-9.4561320624716529
sI661
F-49.44120266010286
sI662
F-26.22473501392399
sI665
F-19.154244958678689
sI666
F5.9938576204566658
sI667
F-29.354846289187293
sI668
F-24.842701574623803
sI669
F-15.299687768797725
sI674
F-30.014510101487076
sI675
F-28.88739650734145
sI676
F-19.897098956243795
sI677
F-19.752128383094998
sI679
F-23.321914246654643
sI680
F-15.286096844600536
sI682
F-16.79171442080488
sI683
F-17.026712687005414
sI684
F-22.692859330605927
sI686
F-20.882232864594187
sI687
F-24.115989894392811
sI688
F-0.43064156968148382
sI690
F-27.004478626294471
sI691
F-31.410935657703774
sI692
F-23.611737002661499
sI694
F-17.977286163844312
sI695
F2.6000983188802564
sI697
F-24.666194367607744
sI699
F-22.487571087077924
sI700
F-16.362221016941618
sI701
F-14.188263806702366
sI702
F-18.52010374960615
sI703
F-27.403652623368828
sI705
F-23.157815343103891
sI706
F2.3688027041310562
sI707
F8.6501003652090418
sI708
F-20.303682186906258
sI709
F-21.444682153869408
sI711
F-22.153418162704057
sI714
F-11.210404062683509
sI715
F-17.289893044806519
sI716
F-13.771982718919006
sI717
F-23.132621574105571
sI719
F-27.456812697794092
sI720
F9.1513541398504401
sI721
F-17.743937015530449
sI722
F-21.956889668518755
sI723
F-19.173329881854215
sI724
F-24.894155625198323
sI726
F-21.668548859408503
sI727
F-21.315814520098115
sI728
F-11.549166220237339
sI730
F-15.744596861163927
sI731
F-26.193790616619196
sI732
F-30.146362630625688
sI733
F-22.482926921766477
sI734
F-26.160096783546464
sI735
F-21.640571652019958
sI738
F-13.292390202629804
sI739
F-23.043975001864808
sI740
F3.0939030968642101
sI741
F-10.100615269684837
sI743
F-21.021728245670445
sI746
F-13.413647949334901
sI748
F-21.335007068576886
sI749
F-21.465475676261491
sI750
F6.5968510405177909
sI754
F-29.513481076021094
sI756
F-18.011453993228017
sI757
F-15.358697569675655
sI758
F-38.950702142753769
sI759
F-14.610140047611438
sI762
F-25.11752321059727
sI763
F-39.079375452704213
sI764
F-33.511255819975773
sI766
F-18.619098532009389
sI767
F-36.029147693657393
sI769
F-30.454500192298724
sI770
F-25.519988842768583
sI771
F-10.150797388318438
sI772
F6.3493688572738449
sI773
F-20.725911360843668
sI774
F-17.219725300771373
sI775
F-60.954594719994347
sI776
F-16.976027067390035
sI777
F-23.415675351342628
sI778
F-15.785688578655112
sI779
F7.1144222918134261
sI782
F-29.900870021056193
sI785
F-21.503746116563448
sI789
F-28.122123636234647
sI790
F-27.229315550961672
sI791
F-10.891966397114089
sI792
F-27.336140655078495
sI793
F-32.449363498380663
sI794
F-15.834354954408909
sI797
F-16.589539855146825
sI798
F-31.933841815749616
sI799
F-19.973846894635599
sI800
F-18.616167495862044
sI801
F-29.901990412609223
sI802
F-20.775365024158333
sI806
F-28.106421024413038
sI808
F-22.419432852532793
sI809
F7.0635803395047674
sI810
F-18.454714034455563
sI811
F-16.786450478989224
sI812
F-23.833367989808238
sI813
F-20.622216758415831
sI815
F-6.4042437146931377
sI817
F6.7965002974887483
sI819
F-18.142047845959354
sI820
F-7.180272724075806
sI822
F-6.6812175379963037
sI823
F-23.243076913559094
sI824
F-21.867048864091444
sI825
F-20.41728175222525
sI827
F-22.571909325933518
sI829
F-32.5771700130651
sI830
F-27.019962315049384
sI831
F-17.848546503899129
sI832
F-25.616443719555832
sI835
F-15.987851479575966
sI836
F-12.539858331360634
sI837
F-20.13463404712364
sI839
F-17.074803515262829
sI841
F-19.351860812926873
sI844
F-26.458669154503866
sI846
F-20.332373390740969
sI847
F-17.445066607271713
sI850
F-26.051891672110301
sI851
F-8.2392897344027887
sI853
F-15.319049829775778
sI855
F-17.126349162013639
sI856
F-15.388877793249407
sI857
F-29.854129107293517
sI858
F-5.2843115226465187
sI859
F-14.542972594062718
sI861
F-24.931102019520239
sI862
F-8.4703830078424573
sI863
F-53.451036425307109
sI864
F-29.744384447691999
sI865
F-13.406903115653094
sI867
F-36.734390824283111
sI870
F3.3441060341518636
sI872
F-29.457366103384572
sI873
F-21.587096098966114
sI874
F-13.465885361622952
sI876
F7.1770765432720509
sI877
F-21.335132490657315
sI878
F-19.672022785344126
sI879
F-24.922253046338966
sI880
F-25.899074654672859
sI881
F-32.079135147518741
sI883
F-14.94160935951831
sI884
F-12.00001376801778
sI885
F7.0138614134341708
sI888
F-23.94956397808447
sI890
F-20.107431348317022
sI891
F-23.254762578767298
sI892
F-16.447708146585569
sI893
F-13.38029689566531
sI894
F-25.502990151717384
sI896
F-37.811626985133941
sI897
F-26.718232181327807
sI899
F-23.246580644652013
sI900
F-14.945209126424999
sI902
F-9.8609987017590583
sI903
F-26.718561402995633
sI904
F-6.7111672779251137
sI906
F-14.644535717437606
sI907
F-27.164425500768303
sI908
F-18.248088521058321
sI909
F-23.00232691324058
sI910
F-14.303665856237572
sI912
F-15.35377020514224
sI913
F-16.630320424878533
sI917
F-19.333485605423434
sI920
F-24.067834541898975
sI921
F-19.806871930202362
sI922
F0.1402675613643396
sI924
F1.9485253513257561
sI926
F-20.197575556708699
sI928
F-28.336576656178636
sI929
F-15.098223762621032
sI930
F-9.8959737153945753
sI932
F-10.886737544271142
sI934
F-19.342919438859099
sI936
F-31.863278021183874
sI937
F-17.326162399525629
sI938
F-9.757893946610551
sI939
F-27.65848279887112
sI940
F-20.80430738402444
sI941
F-32.097256559376106
sI943
F-22.307016626586375
sI944
F-22.13110620883549
sI945
F-14.584086841058067
sI946
F-18.434770414635508
sI947
F-16.932091869325205
sI948
F2.3118109203728778
sI949
F-2.2210889625201276
sI953
F-21.410348846561305
sI954
F-20.128020884922734
sI956
F-22.869240005386814
sI958
F-27.61841081754585
sI962
F-20.328939742269284
sI964
F-21.740482241550808
sI967
F-17.055661833731847
sI969
F-19.133415585984267
sI971
F-26.703111575326474
sI972
F-15.690243381211275
sI974
F-23.59885306608976
sI975
F-28.330134265445622
sI976
F-21.387101609115717
sI977
F-16.486181764090489
sI978
F-24.360867138493276
sI979
F-13.119067510248968
sI980
F-32.952334604866337
sI981
F-0.32603332484561065
sI984
F-0.35123819869323825
sI985
F-17.314677236451928
sI986
F6.1220216330800952
sI987
F-10.55320588288599
sI988
F-9.8445065760925274
sI989
F-22.8878419013121
sI990
F-18.809108973512096
sI993
F-13.083595688702133
sI995
F-15.79250925804412
sI997
F-15.647486078748756
sI999
F-6.9921011450053072
sI1003
F-20.903615646075451
sI1005
F-19.100786561887503
sI1007
F-24.014601251625251
sI1008
F-17.846769173002599
sI1009
F-11.348389191388634
sI1011
F-20.602700047186744
sI1013
F-36.259375261330177
sI1014
F-26.353984738657914
sI1015
F-33.807555533557107
sI1016
F-34.764547882574263
s.