(dp1
I0
F-1.0447505453527128
sI1
F-2.108038049970105
sI2
F2.7640895684080249
sI3
F6.1335285554925463
sI4
F10.920268404169491
sI5
F3.5591524882218977
sI6
F10.781216291185061
sI8
F0.85315541677668705
sI10
F3.0573240047897485
sI12
F4.9050523040093026
sI13
F8.9078185025933863
sI14
F1.6979190858504012
sI15
F-10.407691237104387
sI16
F7.0601531542959606
sI17
F6.1364747218691633
sI18
F6.2089753699354731
sI19
F9.3527524719578139
sI21
F-1.2513733474566067
sI24
F4.1452207602431486
sI25
F-6.031893741062845
sI26
F5.077799679199245
sI27
F10.900427324704197
sI28
F5.5113232845364166
sI29
F5.4951590640739738
sI31
F-1.8967729704435072
sI33
F10.671963437209115
sI34
F10.775082884087226
sI37
F-4.1047023689566942
sI39
F-9.7438001535827539
sI42
F1.8802209281121236
sI43
F10.896238155135592
sI47
F10.913555698773521
sI48
F10.625296412016041
sI49
F-0.89438595880258731
sI50
F-0.40066142525010662
sI51
F4.4037048423373619
sI53
F9.1624464828009309
sI54
F6.488643230091526
sI55
F3.7767017108315173
sI56
F8.1957019714098323
sI57
F-8.0744421818310173
sI58
F-0.96406220639900653
sI59
F9.3997116108273246
sI60
F10.525710876956879
sI62
F3.9217460076286699
sI63
F-10.487518112600185
sI64
F-4.1273494913323674
sI65
F4.3665718741746815
sI66
F-6.1505694477104385
sI67
F6.1243120539724458
sI68
F-3.3826116329329921
sI69
F4.7123483043520906
sI70
F5.3993273022856272
sI71
F-4.3524104172678477
sI72
F-2.6089515024062138
sI74
F7.9612586090725301
sI75
F5.2981154408895605
sI76
F-2.2740590796797875
sI77
F-1.7920116425192703
sI78
F-4.06769678471872
sI80
F9.6359466829260043
sI82
F7.5702068191471596
sI83
F8.9162168098271621
sI85
F7.1140446562717017
sI86
F0.7811677398335064
sI87
F-6.4742182175330498
sI89
F10.124376081600701
sI90
F0.32010481854680961
sI91
F9.9815944437121402
sI92
F-11.719946109769097
sI93
F0.33347843067559779
sI94
F-5.7891902707094971
sI95
F6.2747877891955426
sI97
F-5.7853776970068367
sI98
F-2.9967860271693354
sI99
F10.002952912523313
sI100
F5.7507697675905831
sI101
F7.6264685522785385
sI102
F9.8886696725520267
s.