(dp1
I1239
I0
sI1240
I1
sI1242
I2
sI1244
I3
sI1246
I5
sI1247
I5
sI1248
I8
sI1249
I9
sI1250
I10
sI1251
I12
sI1252
I10
sI1253
I13
sI1254
I14
sI1255
I15
sI1256
I22
sI1257
I20
sI1259
I19
sI1260
I21
sI1261
I25
sI1262
I22
sI1263
I15
sI1264
I20
sI1265
I30
sI1266
I20
sI1268
I25
sI1269
I30
sI1271
I30
sI1272
I32
sI1274
I35
sI1275
I35
sI1276
I36
sI1277
I36
sI1278
I38
sI1279
I41
sI1280
I38
sI1281
I40
sI1282
I41
sI1284
I45
sI1285
I45
sI1286
I41
sI1287
I41
sI1288
I45
sI1289
I50
sI1290
I50
sI1291
I45
sI1292
I50
sI1293
I49
sI1294
I54
sI1297
I50
sI1299
I51
sI1300
I52
sI1301
I51
sI1302
I54
sI1304
I53
sI1305
I54
sI1306
I51
sI1307
I63
sI1308
I60
sI1310
I62
sI1311
I65
sI1316
I62
sI1317
I68
sI1318
I64
sI1320
I64
sI1321
I78
sI1322
I69
sI1323
I71
sI1324
I65
sI1325
I79
sI1326
I78
sI1327
I69
sI1328
I78
sI1329
I77
sI1331
I68
sI1334
I78
sI1335
I80
sI1336
I83
sI1338
I88
sI1339
I94
sI1340
I85
sI1341
I78
sI1342
I82
sI1344
I85
sI1345
I96
sI1346
I94
sI1347
I87
sI1348
I82
sI1349
I86
sI1350
I92
sI1351
I97
sI1352
I118
sI1353
I91
sI1354
I88
sI1355
I99
sI1356
I101
sI1358
I102
sI1359
I104
sI1360
I99
sI1361
I110
sI1362
I106
sI1363
I105
sI1364
I117
sI1366
I113
sI1367
I110
sI1368
I104
sI1369
I127
sI1370
I88
sI1371
I128
sI1373
I115
sI1375
I121
sI1376
I118
sI1377
I117
sI1378
I102
sI1380
I131
sI1381
I123
sI1382
I129
sI1383
I128
sI1385
I127
sI1386
I128
sI1387
I129
sI1388
I123
sI1389
I133
sI1390
I131
sI1392
I129
sI1393
I132
sI1394
I130
sI1395
I136
sI1396
I134
sI1397
I133
sI1398
I128
sI1400
I129
sI1402
I140
sI1404
I148
sI1405
I136
sI1406
I131
sI1407
I153
sI1408
I156
sI1410
I142
sI1411
I131
sI1412
I155
sI1413
I163
sI1414
I146
sI1415
I140
sI1417
I136
sI1418
I153
sI1420
I156
sI1421
I164
sI1422
I155
sI1423
I157
sI1424
I140
sI1425
I163
sI1426
I161
sI1427
I162
sI1428
I159
sI1429
I172
sI1430
I172
sI1432
I168
sI1433
I168
sI1435
I174
sI1436
I171
sI1438
I172
sI1439
I175
sI1440
I176
sI1441
I179
sI1442
I178
sI1443
I179
sI1444
I178
sI1445
I189
sI1446
I179
sI1447
I178
sI1448
I178
sI1449
I175
sI1450
I183
sI1451
I189
sI1452
I189
sI1454
I194
sI1456
I189
sI1457
I200
sI1458
I194
sI1459
I194
sI1460
I179
sI1461
I200
sI1462
I200
sI1463
I200
sI1464
I193
sI1465
I200
s.