(dp1
I1
(lp2
F-20.324028495154579
aF-14.399840338956665
aF-27.310359888440331
asI2
(lp3
F-23.426844487643365
asI4
(lp4
F-30.735235753252468
asI5
(lp5
F-15.407637119881599
aF-23.088107978444782
aF-38.870226756309606
aF-23.652303892677722
aF-19.33484320744067
aF-18.47009082615449
asI6
(lp6
F-12.338350130764056
aF-18.090179947622985
asI7
(lp7
F-28.364448297075754
aF-20.698798905006328
asI8
(lp8
F-15.535745063831087
aF-15.925291824410863
aF-13.928483068957163
aF-24.444002427984728
aF-27.977348623314924
asI10
(lp9
F-11.368938632238056
aF-41.63352742337733
asI11
(lp10
F-17.577966300101124
aF-15.033042678897402
aF-40.447713874812749
asI13
(lp11
F-15.169403775997594
aF-21.604059287421151
asI14
(lp12
F-13.656242365171181
aF-17.043462197738052
aF-32.683884982817261
asI15
(lp13
F-30.221747480275596
asI16
(lp14
F-16.785637092243377
aF-22.447967076011238
aF-19.056575753962477
aF-20.641369748788748
aF-26.510774607894746
asI17
(lp15
F-25.153908812551293
aF-15.03748120918064
aF-20.558535608537255
aF-23.24763031662043
aF-19.874121544978522
asI18
(lp16
F-37.2319606647889
aF-15.72110898552809
aF-14.832179427884725
aF-17.026030895264569
aF-18.4163056245619
aF-15.508167366881963
asI19
(lp17
F-25.042988578027604
aF-17.586921455890973
aF-26.641080172701805
asI20
(lp18
F-14.860942556511702
aF-18.377618227094885
aF-21.757419419408862
aF-16.55750306198135
aF-29.057335742577919
aF-20.74264954805264
aF-14.099028242213549
aF-19.663731245397287
asI23
(lp19
F-12.177529202883008
aF-24.359840400454601
aF-35.295025484507349
aF-15.453814627641393
asI24
(lp20
F-33.823001752106762
aF-11.57308008151989
asI26
(lp21
F-22.520731512398214
aF-19.921511098895948
aF-15.810497576035914
aF-18.275112414317348
asI27
(lp22
F-16.709102277357346
aF-25.486738735211077
aF-21.852809301470728
aF-19.904042924572423
aF-20.010434396172329
aF-23.00764464786991
aF-12.636783351163231
asI28
(lp23
F-20.342682512164004
aF-11.72050282602396
aF-25.364968517860191
aF-28.942294455162653
aF-11.597600077075356
aF-6.567759934370855
asI29
(lp24
F-26.96939788026846
aF-20.608747789582239
asI30
(lp25
F-29.063665764082387
aF-16.264061283583786
aF-27.160632406491374
asI31
(lp26
F-19.826262063920552
aF-30.404763779351981
aF-20.78500735366049
asI32
(lp27
F-10.68651375485976
aF-22.557221278441062
aF-17.746823097166867
asI34
(lp28
F-22.251788306853086
asI36
(lp29
F-13.381452703386657
aF-28.703448986202218
asI37
(lp30
F-13.564594819508173
aF-22.751108761954413
aF-40.07916027331936
asI38
(lp31
F-36.27582467595586
asI39
(lp32
F-18.910512404320599
asI40
(lp33
F-25.455505591455733
aF-21.759355398761315
aF-16.010161303269626
aF-18.914168171844466
aF-22.84397647629433
aF-24.796713772984347
asI41
(lp34
F-23.069165638019314
aF-14.231333090643361
aF-11.283485717721291
aF-21.258422983399186
aF-25.722161343534083
aF-10.092606113886774
aF-27.677350172919844
asI42
(lp35
F-23.144972097182517
aF-22.092236582248574
aF-21.179585994598625
aF-19.591207951544817
aF-20.07340116769123
asI43
(lp36
F-18.174474324204624
aF-17.873134863099466
aF-20.009925249027958
aF-20.901500094372068
aF-10.182700601711744
aF-13.155904789667233
aF-56.762536914904231
asI44
(lp37
F-46.855251770714062
aF-22.809765561470556
aF-23.14551228581125
asI45
(lp38
F-22.523041640491044
aF-33.872522671831646
aF-27.213705812265943
aF-21.479885414987464
asI46
(lp39
F-28.537102519017893
asI47
(lp40
F-29.434891403992737
aF-34.763858330764563
aF-18.871377630118403
aF-15.32165903553269
aF-21.229795737412317
aF-14.215623508625441
aF-22.334226917486291
asI48
(lp41
F-17.67620561704139
asI49
(lp42
F-38.380852382245365
aF-22.023279069262742
aF-25.311770715762464
aF-21.891650605097979
aF-20.204920859045643
aF-22.195594683625018
aF-20.494357836291584
asI50
(lp43
F-23.837117564751409
aF-37.877528865228484
aF-12.985515480562668
aF-26.244412813857053
aF-29.796271590239755
aF-23.640055929322955
aF-19.665292709924501
aF-25.724079666260806
aF-12.730817093673465
aF-20.193425630350788
asI51
(lp44
F-31.488863868336836
asI52
(lp45
F-28.861505854195926
aF-27.267956541364043
aF-30.962429781725717
aF-19.179158396950939
aF-24.650648300061007
asI53
(lp46
F-35.506358493634508
asI54
(lp47
F-36.586337461758944
aF-23.932701563803334
aF-23.335573928980025
asI55
(lp48
F-25.763769773042014
aF-30.742337431237615
aF-18.452045289336965
aF-20.843655504084595
aF-22.637970262319499
aF-42.787512381288039
aF-23.650825119337611
aF-20.287125790922545
aF-30.74335233356291
aF-25.838476167856896
aF-27.16515753040332
aF-23.226539066831734
asI56
(lp49
F-20.766751525690353
aF-14.905169063196297
aF-18.526785513521702
aF-28.057651421943021
aF-28.527769805823027
aF-19.685030447142367
aF-28.534609626488347
aF-19.442441289477614
aF-17.338666741609572
aF-21.30600925246867
aF-24.162912610206433
asI57
(lp50
F-34.865973853902716
aF-23.828600625324327
aF-24.005680120804243
asI58
(lp51
F-16.425565691889517
aF-17.024862427158837
aF-20.658450597617332
aF-30.131458349568604
aF-48.266030955141332
aF-23.053340548924837
aF-25.067964051783775
aF-21.546870822177127
aF-20.666501768599488
asI59
(lp52
F-22.170052848240061
aF-19.638573680433481
aF-20.673472729773323
aF-34.154437089144182
aF-22.308117626352683
aF-23.559790423900125
aF-17.211387027299736
aF-16.593164789802955
aF-19.143102195999376
aF-24.315180242192582
aF-24.602125989433333
aF-21.554750645522148
asI60
(lp53
F-22.406656733800332
aF-21.086670020143515
aF-30.714097518217685
aF-32.289448871573754
aF-24.789745719431892
aF-19.143456792247122
aF-22.097357530747075
asI61
(lp54
F-18.306832685935007
aF-18.69117850562246
asI62
(lp55
F-21.156691914598269
aF-13.755014708320175
aF-22.734119552736146
aF-22.63243932006327
aF-18.232199552963891
aF-15.774653317356041
aF-25.910849871607994
aF-23.267047684380813
aF-20.266328317763595
aF-35.313706415171168
aF-29.981233247878379
aF-28.993016226356488
asI63
(lp56
F-37.242432660506367
aF-24.176578050473125
asI64
(lp57
F-9.9037786304252791
asI65
(lp58
F-20.844322776091346
aF-15.972471297852138
aF-24.214203867841647
aF-11.404417265579042
aF-37.948087529468026
aF-25.14081674135538
asI66
(lp59
F-28.692962533674034
aF-26.013408265122536
aF-25.840979486405928
aF-17.35912172657828
aF-22.129894801158528
aF-19.469486808438262
aF-21.17859654538573
aF-15.530261990350027
aF-17.826177243199083
aF-17.35638135732475
aF-21.650588241364886
aF-20.728693507628051
aF-15.400415118611363
aF-23.803600453643384
aF-18.516141159986631
aF-19.685861113630651
aF-19.134630063107508
aF-31.139426335114479
aF-23.42225331723219
asI67
(lp60
F-19.386474725488469
aF-26.863519150873415
aF-16.481562934402376
aF-11.293713637853315
aF-21.271339463399912
aF-22.133458243920643
aF-20.210241453329118
aF-25.335145757538029
aF-26.020755586786123
aF-31.800290786566194
aF-25.213110821788803
aF-20.863765606853363
asI68
(lp61
F-28.502521953244056
aF-23.57049939190648
aF-27.694528829784105
aF-21.761815889986906
aF-22.746191872295512
asI69
(lp62
F-36.240807036901657
aF-21.767784164767193
aF-27.671592650056411
aF-22.972129167977869
aF-24.073171163487018
aF-23.779683172770092
aF-27.079295322368012
aF-35.059694593158071
asI70
(lp63
F-35.136298102892951
aF-29.777204082806691
aF-15.53745823780244
aF-20.874883076221067
aF-20.55594812929786
aF-18.298586970770174
aF-21.793800646346142
aF-19.021193265458933
aF-20.03821231854117
aF-17.004505347875892
aF-23.579727436999178
aF-22.937803097863338
aF-33.224038204680156
asI71
(lp64
F-26.836094120854057
aF-17.356159247359557
aF-24.22341681770942
aF-20.81120523952184
aF-19.095214322624258
aF-17.906264270502021
aF-15.039079304456664
aF-13.741822121353778
aF-28.010945421519594
aF-20.032603551193191
aF-36.57616854650604
asI72
(lp65
F-31.076199075211008
aF-23.067025600794153
aF-20.481863596541274
aF-37.643075903554475
asI73
(lp66
F-36.171371580377652
aF-23.449357573292559
aF-30.369103439491454
aF-25.272586283933947
aF-24.046653711022543
aF-24.624460583276772
aF-25.47675715486298
aF-24.457840303569157
aF-29.776268324139082
asI74
(lp67
F-13.407903500638298
asI76
(lp68
F-21.189708165683825
aF-16.629592084415435
aF-20.905578884899853
aF-22.042794348079227
aF-18.890490292735592
aF-23.951333227523236
aF-32.707322592444825
asI77
(lp69
F-27.154870299425284
aF-37.892553767385522
aF-30.209268044783371
aF-28.281826175391174
aF-25.747190477700599
aF-20.03295989370622
aF-24.986805453386438
aF-15.412324438243274
aF-30.640323499861552
aF-22.07905557312003
asI78
(lp70
F-24.862459389930279
aF-28.537746061742411
aF-24.909073777283979
aF-23.97492630534785
asI79
(lp71
F-35.119424381565295
aF-21.06098683642108
asI80
(lp72
F-25.458947507245369
aF-25.924800008579069
aF-31.360411494230121
aF-25.500479547485781
aF-31.024622944778855
aF-28.398113035657673
aF-24.498777328563335
aF-23.948720323546169
aF-16.698889954097837
aF-18.754598714524448
aF-22.617222608637746
asI83
(lp73
F-36.164640088310506
aF-25.83375682381515
aF-29.260339375412556
aF-26.38015451012383
aF-18.65794681626727
aF-20.287802049128544
asI84
(lp74
F-27.727306395575823
asI86
(lp75
F-16.916463596173827
aF-29.042265993317883
aF-18.56982429075272
asI87
(lp76
F-26.81986308596737
asI88
(lp77
F-28.70921951824036
asI89
(lp78
F-28.723031718885608
asI90
(lp79
F-23.168961518786062
aF-36.144848763357459
aF-24.474382540180571
asI91
(lp80
F-16.664400275074215
aF-21.015811163846706
aF-23.987758390704897
asI92
(lp81
F-25.408597666953938
aF-21.016298052279183
aF-19.751654096995566
aF-27.160637577901497
aF-24.969585308095674
asI93
(lp82
F-29.035130019849106
asI95
(lp83
F-18.50759828566234
aF-17.632104723967643
aF-18.685265814035674
aF-38.288812551157818
asI96
(lp84
F-19.411910702090722
aF-37.199129004321946
asI97
(lp85
F-17.161260397140069
aF-20.697341408624638
aF-22.688212000190646
aF-27.888477222665273
aF-20.36914675254323
aF-26.107792652829744
aF-23.549094637942801
aF-26.428876962790937
asI98
(lp86
F-16.009144958269218
aF-35.917942270113954
asI100
(lp87
F-38.905332455984805
asI101
(lp88
F-26.472895809836302
asI102
(lp89
F-40.56653844163246
aF-28.53053597938063
aF-24.213708187281867
aF-14.803164831706823
aF-21.797280851623725
aF-35.379670027500936
asI104
(lp90
F-29.913107305290467
aF-26.321653817524066
asI105
(lp91
F-15.525606581604336
aF-33.903358836067341
aF-19.069981685484251
aF-27.010813889227535
aF-19.988666707184265
aF-19.020355697534285
aF-20.67320585631937
asI106
(lp92
F-26.99043105824677
aF-28.613628054086405
asI108
(lp93
F-24.558848857056461
aF-28.017679843028304
aF-26.268614593890163
aF-20.59673805012099
aF-23.054727883682347
aF-18.548491017605357
asI109
(lp94
F-21.838952635051385
aF-22.638399801284081
aF-23.425174873884174
aF-15.504084625542106
aF-15.616282814183336
aF-16.304267341038496
aF-19.932967568975059
asI111
(lp95
F-41.319329590114322
aF-21.277118702080486
aF-26.179539334401582
aF-22.276224819491716
aF-24.406246565697728
asI112
(lp96
F-19.562741907859063
aF-22.08824310176449
aF-17.266873329309249
aF-24.598326261379327
aF-31.281311408749843
aF-22.11702400561559
aF-25.278480359195413
aF-14.587384434200175
aF-21.806247510037792
aF-19.285289278763116
asI113
(lp97
F-21.49705101414267
asI114
(lp98
F-19.784132799897321
aF-28.642923412998925
aF-29.377163281192111
aF-24.994405064572007
aF-22.229117274079016
asI115
(lp99
F-16.784109833140405
aF-24.063844416897609
aF-46.019111202308153
aF-15.552208601128939
asI116
(lp100
F-19.481063972098596
aF-17.020113870850309
aF-19.944762575707273
aF-19.676104060685617
aF-40.844461999253824
aF-11.576107961089477
asI117
(lp101
F-19.155861164599813
asI118
(lp102
F-20.319773466764545
aF-23.461448636067701
aF-21.037397148055774
aF-19.77831112069714
aF-30.387331310307488
aF-21.886696550443716
asI119
(lp103
F-24.155961591284424
aF-24.30274867050997
aF-22.052389151771706
aF-27.661630397438415
asI120
(lp104
F-19.746781894500941
aF-18.085127823985289
aF-20.880899610078444
aF-27.727512273199537
asI121
(lp105
F-17.07900099491205
aF-25.772287462596822
asI123
(lp106
F-26.281399031376694
asI125
(lp107
F-21.154587955656638
aF-19.813388750670043
asI126
(lp108
F-20.648140832681406
asI127
(lp109
F-26.363429781703303
aF-32.750567045004814
asI128
(lp110
F-18.710680041915509
aF-20.127540015040239
aF-30.691805170719562
aF-20.063903236688105
asI129
(lp111
F-15.550638547958059
aF-23.542744122585447
aF-22.648468054188612
aF-28.272239081856313
asI131
(lp112
F-19.798746254317535
aF-21.228289325585152
asI132
(lp113
F-19.778029334806206
aF-28.884454022304425
aF-19.286509035399746
asI133
(lp114
F-26.542745070407491
aF-36.193955788339935
aF-30.182072728715823
asI134
(lp115
F-19.749697935518185
asI135
(lp116
F-18.539115922661026
aF-31.076653662774078
aF-28.324851146058421
aF-36.585650550279652
asI136
(lp117
F-30.849447576215681
aF-16.333787406150122
asI137
(lp118
F-24.715397899145614
aF-19.763252140887431
aF-21.922235152467238
aF-22.905873515774573
asI138
(lp119
F-27.107688712445579
aF-21.495399543103218
aF-23.793377413345695
aF-17.683865552901366
asI139
(lp120
F-25.358801875043866
aF-19.640630340730752
aF-22.374101823377316
aF-21.255314705299156
aF-20.300516572982346
asI140
(lp121
F-22.840755327047219
aF-30.8956201851949
aF-23.640145800432705
aF-35.982437338643393
aF-28.434559131076725
asI141
(lp122
F-15.977551548980898
aF-24.569031151440896
aF-22.444247684113364
aF-33.595325365285277
asI142
(lp123
F-20.644203790465284
aF-25.018091137311188
asI143
(lp124
F-29.830377700312184
asI144
(lp125
F-22.60191989103042
asI146
(lp126
F-22.054127040343104
aF-19.92819655621642
aF-45.165833653108095
aF-10.589301867752653
aF-15.436646677025678
aF-17.371450299780875
asI147
(lp127
F-25.175438497521583
asI148
(lp128
F-44.956680695963001
aF-21.097168246019862
aF-22.131064596824572
asI149
(lp129
F-29.857121657690485
aF-29.691423404583219
aF-14.98933492471896
asI150
(lp130
F-36.087853740340989
asI151
(lp131
F-35.177494889214003
asI152
(lp132
F-18.658977005027495
aF-19.775651704632565
aF-48.452133188434999
aF-21.960727272758078
asI153
(lp133
F-22.584515456310356
asI154
(lp134
F-18.588995002219349
aF-20.814485461291724
aF-41.280015807983503
asI155
(lp135
F-24.569531019664993
aF-26.639873479515217
asI156
(lp136
F-11.08852906795812
aF-19.523403600040012
aF-16.360317799538223
aF-24.7821551147305
asI157
(lp137
F-20.181889812592303
aF-25.087489106098673
asI159
(lp138
F-18.546714949466534
aF-20.80041092921762
asI160
(lp139
F-33.339871425299705
aF-18.48424866480056
asI161
(lp140
F-20.747425912250648
aF-21.231988470242811
asI162
(lp141
F-32.530862766916854
aF-16.774700682168145
aF-21.173954721819385
aF-16.277352426667676
asI163
(lp142
F-32.109479181840285
asI165
(lp143
F-19.697211279402268
asI166
(lp144
F-36.303105992255752
aF-18.385715672782482
asI167
(lp145
F-30.937707960482584
asI168
(lp146
F-22.915614805048989
aF-18.078380404236896
aF-31.98332243416823
aF-26.099699902943357
aF-21.721047087933513
asI169
(lp147
F-15.865043951209145
aF-27.796841947616372
aF-15.561265036897041
asI170
(lp148
F-38.348251902394196
aF-23.037865073407772
asI171
(lp149
F-18.398240617879665
aF-31.027909268457975
asI172
(lp150
F-30.24702533151563
asI174
(lp151
F-19.96627942143617
aF-17.933095733128695
asI175
(lp152
F-22.221654694870097
aF-24.188239115336714
aF-25.101548780951632
asI176
(lp153
F-21.949726048131581
asI177
(lp154
F-23.10984250621361
aF-24.262395902141321
aF-19.396048016939716
aF-19.071579231656358
aF-39.904076613822156
asI178
(lp155
F-24.525129604041354
asI180
(lp156
F-23.34711801604476
aF-18.325358524452611
aF-23.239474494383629
aF-25.843864909513499
asI182
(lp157
F-19.348875916292201
aF-24.024333949426818
asI183
(lp158
F-33.313968784782801
aF-18.939255171880333
asI184
(lp159
F-23.509345416555192
aF-23.898876964884607
aF-20.230070485549263
aF-30.224371888552525
aF-20.037251508335544
aF-15.483893283498375
asI186
(lp160
F-21.690741763637462
aF-27.300187605235465
aF-28.090131971811886
aF-21.314585601662003
aF-19.0170393071744
aF-16.816805784936207
asI187
(lp161
F-23.806958073882129
aF-30.382770586381824
aF-33.951176982934584
aF-11.73150056500387
aF-23.724418127988287
asI189
(lp162
F-19.662281077846245
aF-28.055147955912048
aF-15.396862494414137
aF-31.172980008702268
aF-19.599570114119729
asI190
(lp163
F-22.098040244747509
aF-43.67909330464002
aF-25.906309080694555
aF-24.850362822594207
asI191
(lp164
F-31.590270798795203
asI192
(lp165
F-22.918668471769806
aF-20.8292606446457
asI194
(lp166
F-16.413260397531644
aF-27.530000045281056
asI195
(lp167
F-25.090940416254185
aF-20.194226490442475
aF-24.844520433185579
aF-19.111140775069941
aF-22.409170855763108
asI196
(lp168
F-23.644515115340567
aF-31.009023308521577
asI197
(lp169
F-19.541938546087735
aF-25.362649118782315
aF-14.301065296578145
aF-52.744009989847171
asI198
(lp170
F-22.855747346490674
aF-16.774113128595445
asI199
(lp171
F-28.531416508301888
asI200
(lp172
F-32.913684269933725
asI202
(lp173
F-35.727077510748643
aF-16.776193644504716
asI203
(lp174
F-28.981346349681843
aF-17.52276890833987
asI204
(lp175
F-18.478858767333762
asI205
(lp176
F-27.998599588622241
aF-30.582780390853259
asI206
(lp177
F-27.432700462071523
asI207
(lp178
F-29.568835128850452
aF-27.51803919797031
asI209
(lp179
F-19.967874486070045
aF-29.043832220932671
asI211
(lp180
F-33.215430586947619
aF-21.103505789526679
asI215
(lp181
F-34.052510636186483
asI217
(lp182
F-25.880085272071199
aF-27.010532350262906
aF-26.495680308833954
asI218
(lp183
F-16.651002075234231
aF-38.737706881094482
asI219
(lp184
F-29.594519764321888
asI220
(lp185
F-33.149819274477849
aF-18.607194097777096
asI221
(lp186
F-34.360220835159453
asI222
(lp187
F-30.148863854287811
asI223
(lp188
F-28.688965086929002
aF-31.234028507735147
asI224
(lp189
F-39.243784875713146
asI225
(lp190
F-33.620188582298994
asI226
(lp191
F-20.071882515209069
asI227
(lp192
F-37.348552067131635
asI228
(lp193
F-39.376422575674496
asI229
(lp194
F-35.135207888815316
asI230
(lp195
F-37.583379339312827
asI232
(lp196
F-44.086208970615175
aF-29.032288624151178
asI234
(lp197
F-40.335649048979164
as.