(lp1
I74
aI100
aI82
aI141
aI142
aI101
aI89
aI90
aI132
aI72
aI41
aI67
aI76
aI92
aI144
aI152
aI81
aI93
aI97
aI78
aI122
aI119
aI58
aI35
aI51
aI79
aI95
aI103
aI135
aI16
aI33
aI23
aI28
aI43
aI49
aI84
aI112
aI19
aI52
aI69
aI57
aI6
aI27
aI63
aI12
aI22
aI24
aI26
aI32
aI39
aI66
aI75
aI124
aI38
aI46
aI15
aI40
aI65
aI73
aI88
aI110
aI64
aI59
aI111
aI129
aI137
aI146
aI147
aI148
aI83
aI108
aI128
aI14
aI96
aI126
aI20
aI105
aI131
aI118
aI134
aI10
aI8
aI25
aI44
aI50
aI54
aI71
aI2
aI68
aI47
aI11
aI139
aI60
aI21
aI29
aI80
aI145
aI4
aI61
aI62
aI117
aI42
aI56
aI5
aI94
aI99
aI150
aI9
aI17
aI53
aI30
aI136
aI0
aI55
aI109
aI121
aI48
aI113
aI98
aI106
aI91
aI143
aI114
aI125
aI149
aI127
aI7
aI3
aI77
aI85
aI107
aI140
aI45
aI102
aI116
aI115
aI138
aI18
aI70
aI37
aI31
aI120
aI87
aI133
aI36
aI34
aI130
aI86
aI13
aI151
a.